Archive member included to satisfy reference by file (symbol)

e:/work/meig/ec618/ec618_sdk_rel_sdk/plat/tools/gcc/bin/../lib/gcc/arm-none-eabi/10.2.1/../../../../arm-none-eabi/lib/thumb/v7-m/nofp\libc_nano.a(lib_a-exit.o)
                              e:/work/meig/ec618/ec618_sdk_rel_sdk/plat/tools/gcc/bin/../lib/gcc/arm-none-eabi/10.2.1/../../../../arm-none-eabi/lib/thumb/v7-m/nofp/crt0.o (exit)
e:/work/meig/ec618/ec618_sdk_rel_sdk/plat/tools/gcc/bin/../lib/gcc/arm-none-eabi/10.2.1/../../../../arm-none-eabi/lib/thumb/v7-m/nofp\libc_nano.a(lib_a-impure.o)
                              e:/work/meig/ec618/ec618_sdk_rel_sdk/plat/tools/gcc/bin/../lib/gcc/arm-none-eabi/10.2.1/../../../../arm-none-eabi/lib/thumb/v7-m/nofp\libc_nano.a(lib_a-exit.o) (_global_impure_ptr)
e:/work/meig/ec618/ec618_sdk_rel_sdk/plat/tools/gcc/bin/../lib/gcc/arm-none-eabi/10.2.1/../../../../arm-none-eabi/lib/thumb/v7-m/nofp\libc_nano.a(lib_a-init.o)
                              e:/work/meig/ec618/ec618_sdk_rel_sdk/plat/tools/gcc/bin/../lib/gcc/arm-none-eabi/10.2.1/../../../../arm-none-eabi/lib/thumb/v7-m/nofp/crt0.o (__libc_init_array)
e:/work/meig/ec618/ec618_sdk_rel_sdk/plat/tools/gcc/bin/../lib/gcc/arm-none-eabi/10.2.1/../../../../arm-none-eabi/lib/thumb/v7-m/nofp\libc_nano.a(lib_a-memset.o)
                              e:/work/meig/ec618/ec618_sdk_rel_sdk/plat/tools/gcc/bin/../lib/gcc/arm-none-eabi/10.2.1/../../../../arm-none-eabi/lib/thumb/v7-m/nofp/crt0.o (memset)
../../../../../../../PLAT/gccout/ec618_0h00/ap/bootloader/lib/libstartup.a(prec_init.o)
                              (--whole-archive)
../../../../../../../PLAT/gccout/ec618_0h00/ap/bootloader/lib/libstartup.a(syscalls.o)
                              (--whole-archive)
../../../../../../../PLAT/gccout/ec618_0h00/ap/bootloader/lib/libstartup.a(system_ec618.o)
                              (--whole-archive)
../../../../../../../PLAT/gccout/ec618_0h00/ap/bootloader/lib/libstartup.a(startup_ec618_gcc.o)
                              (--whole-archive)
../../../../../../../PLAT/gccout/ec618_0h00/ap/bootloader/lib/libdriver.a(plat_config.o)
                              (--whole-archive)
../../../../../../../PLAT/gccout/ec618_0h00/ap/bootloader/lib/libdriver.a(es8388.o)
                              (--whole-archive)
../../../../../../../PLAT/gccout/ec618_0h00/ap/bootloader/lib/libdriver.a(nau88c22.o)
                              (--whole-archive)
../../../../../../../PLAT/gccout/ec618_0h00/ap/bootloader/lib/libdriver.a(es8311.o)
                              (--whole-archive)
../../../../../../../PLAT/gccout/ec618_0h00/ap/bootloader/lib/libdriver.a(codecDrv.o)
                              (--whole-archive)
../../../../../../../PLAT/gccout/ec618_0h00/ap/bootloader/lib/libdriver.a(ntc.o)
                              (--whole-archive)
../../../../../../../PLAT/gccout/ec618_0h00/ap/bootloader/lib/libdriver.a(drv_odm_gpio.o)
                              (--whole-archive)
../../../../../../../PLAT/gccout/ec618_0h00/ap/bootloader/lib/libdriver.a(hal_pwrkey.o)
                              (--whole-archive)
../../../../../../../PLAT/gccout/ec618_0h00/ap/bootloader/lib/libdriver.a(hal_misc.o)
                              (--whole-archive)
../../../../../../../PLAT/gccout/ec618_0h00/ap/bootloader/lib/libdriver.a(ec_string.o)
                              (--whole-archive)
../../../../../../../PLAT/gccout/ec618_0h00/ap/bootloader/lib/libdriver.a(hal_i2s.o)
                              (--whole-archive)
../../../../../../../PLAT/gccout/ec618_0h00/ap/bootloader/lib/libdriver.a(bsp_usart.o)
                              (--whole-archive)
../../../../../../../PLAT/gccout/ec618_0h00/ap/bootloader/lib/libdriver.a(gpio.o)
                              (--whole-archive)
../../../../../../../PLAT/gccout/ec618_0h00/ap/bootloader/lib/libdriver.a(pad.o)
                              (--whole-archive)
../../../../../../../PLAT/gccout/ec618_0h00/ap/bootloader/lib/libdriver.a(i2s.o)
                              (--whole-archive)
../../../../../../../PLAT/gccout/ec618_0h00/ap/bootloader/lib/libdriver.a(wdt.o)
                              (--whole-archive)
../../../../../../../PLAT/gccout/ec618_0h00/ap/bootloader/lib/libdriver.a(oneWire.o)
                              (--whole-archive)
../../../../../../../PLAT/gccout/ec618_0h00/ap/bootloader/lib/libdriver.a(clock.o)
                              (--whole-archive)
../../../../../../../PLAT/gccout/ec618_0h00/ap/bootloader/lib/libdriver.a(usbd_proc_cb_custom.o)
                              (--whole-archive)
../../../../../../../PLAT/gccout/ec618_0h00/ap/bootloader/lib/libdriver.a(usbd_multi_usrcfg_custom.o)
                              (--whole-archive)
../../../../../../../PLAT/gccout/ec618_0h00/ap/bootloader/lib/libdriver.a(usb_bl_api.o)
                              (--whole-archive)
../../../../../../../PLAT/gccout/ec618_0h00/ap/bootloader/lib/libdriver.a(usb_bl_test.o)
                              (--whole-archive)
../../../../../../../PLAT/gccout/ec618_0h00/ap/bootloader/lib/libdriver.a(rndis_protocol.o)
                              (--whole-archive)
../../../../../../../PLAT/gccout/ec618_0h00/ap/bootloader/lib/libdriver.a(function_vcom_inherent.o)
                              (--whole-archive)
../../../../../../../PLAT/gccout/ec618_0h00/ap/bootloader/lib/libdriver.a(function_vcom_custp1.o)
                              (--whole-archive)
../../../../../../../PLAT/gccout/ec618_0h00/ap/bootloader/lib/libdriver.a(function_vcom_custp2.o)
                              (--whole-archive)
../../../../../../../PLAT/gccout/ec618_0h00/ap/bootloader/lib/libdriver.a(memcpy-armv7m.o)
                              (--whole-archive)
../../../../../../../PLAT/prebuild/PLAT/lib/gcc/libbootloader.a(image.o)
                              (--whole-archive)
../../../../../../../PLAT/prebuild/PLAT/lib/gcc/libbootloader.a(uECC.o)
                              (--whole-archive)
../../../../../../../PLAT/prebuild/PLAT/lib/gcc/libbootloader.a(hash.o)
                              (--whole-archive)
../../../../../../../PLAT/prebuild/PLAT/lib/gcc/libbootloader.a(sha256.o)
                              (--whole-archive)
../../../../../../../PLAT/prebuild/PLAT/lib/gcc/libbootloader.a(bl_bsp.o)
                              (--whole-archive)
../../../../../../../PLAT/prebuild/PLAT/lib/gcc/libbootloader.a(bl_slpman.o)
                              (--whole-archive)
../../../../../../../PLAT/prebuild/PLAT/lib/gcc/libosa.a(osasys.o)
                              (--whole-archive)
../../../../../../../PLAT/prebuild/PLAT/lib/gcc/libosa.a(osautil.o)
                              (--whole-archive)
../../../../../../../PLAT/prebuild/PLAT/lib/gcc/libosa.a(asn1util.o)
                              (--whole-archive)
../../../../../../../PLAT/prebuild/PLAT/lib/gcc/libosa.a(osanvm.o)
                              (--whole-archive)
../../../../../../../PLAT/prebuild/PLAT/lib/gcc/libosa.a(osasig.o)
                              (--whole-archive)
../../../../../../../PLAT/prebuild/PLAT/lib/gcc/libosa.a(osamempool.o)
                              (--whole-archive)
../../../../../../../PLAT/prebuild/PLAT/lib/gcc/libosa.a(osatime.o)
                              (--whole-archive)
../../../../../../../PLAT/prebuild/PLAT/lib/gcc/libosa.a(ostask.o)
                              (--whole-archive)
../../../../../../../PLAT/prebuild/PLAT/lib/gcc/libosa.a(osacfgnvm.o)
                              (--whole-archive)
../../../../../../../PLAT/prebuild/PLAT/lib/gcc/libmiddleware_ec_private.a(psstk_bip.o)
                              (--whole-archive)
../../../../../../../PLAT/prebuild/PLAT/lib/gcc/libmiddleware_ec_private.a(simbip.o)
                              (--whole-archive)
../../../../../../../PLAT/prebuild/PLAT/lib/gcc/libccio.a(rndis_entity.o)
                              (--whole-archive)
../../../../../../../PLAT/prebuild/PLAT/lib/gcc/libccio.a(eutra_entity.o)
                              (--whole-archive)
../../../../../../../PLAT/prebuild/PLAT/lib/gcc/libccio.a(ecm_entity.o)
                              (--whole-archive)
../../../../../../../PLAT/prebuild/PLAT/lib/gcc/libccio.a(serial_entity.o)
                              (--whole-archive)
../../../../../../../PLAT/prebuild/PLAT/lib/gcc/libccio.a(ccio_tfc.o)
                              (--whole-archive)
../../../../../../../PLAT/prebuild/PLAT/lib/gcc/libccio.a(ccio_rbuf.o)
                              (--whole-archive)
../../../../../../../PLAT/prebuild/PLAT/lib/gcc/libccio.a(ccio_entity.o)
                              (--whole-archive)
../../../../../../../PLAT/prebuild/PLAT/lib/gcc/libccio.a(ccio_device.o)
                              (--whole-archive)
../../../../../../../PLAT/prebuild/PLAT/lib/gcc/libdeltapatch.a(blocksort.o)
                              (--whole-archive)
../../../../../../../PLAT/prebuild/PLAT/lib/gcc/libdeltapatch.a(bzlib.o)
                              (--whole-archive)
../../../../../../../PLAT/prebuild/PLAT/lib/gcc/libdeltapatch.a(crctable.o)
                              (--whole-archive)
../../../../../../../PLAT/prebuild/PLAT/lib/gcc/libdeltapatch.a(decompress.o)
                              (--whole-archive)
../../../../../../../PLAT/prebuild/PLAT/lib/gcc/libdeltapatch.a(huffman.o)
                              (--whole-archive)
../../../../../../../PLAT/prebuild/PLAT/lib/gcc/libdeltapatch.a(randtable.o)
                              (--whole-archive)
../../../../../../../PLAT/prebuild/PLAT/lib/gcc/libdeltapatch.a(patch_main.o)
                              (--whole-archive)
../../../../../../../PLAT/prebuild/PLAT/lib/gcc/libdeltapatch.a(fakefs.o)
                              (--whole-archive)
../../../../../../../PLAT/prebuild/PLAT/lib/gcc/libdeltapatch.a(fakefs_cfg.o)
                              (--whole-archive)
../../../../../../../PLAT/prebuild/PLAT/lib/gcc/libfota.a(fota_man.o)
                              (--whole-archive)
../../../../../../../PLAT/prebuild/PLAT/lib/gcc/libfota.a(fota_patch.o)
                              (--whole-archive)
../../../../../../../PLAT/prebuild/PLAT/lib/gcc/libfota.a(fota_callbacks.o)
                              (--whole-archive)
../../../../../../../PLAT/prebuild/PLAT/lib/gcc/libfota.a(fota_parchive.o)
                              (--whole-archive)
../../../../../../../PLAT/prebuild/PLAT/lib/gcc/libfota.a(fota_hub.o)
                              (--whole-archive)
../../../../../../../PLAT/prebuild/PLAT/lib/gcc/libdriver_private_bl.a(acmsgtype.o)
                              (--whole-archive)
../../../../../../../PLAT/prebuild/PLAT/lib/gcc/libdriver_private_bl.a(hal_trim.o)
                              (--whole-archive)
../../../../../../../PLAT/prebuild/PLAT/lib/gcc/libdriver_private_bl.a(pwrkey.o)
                              (--whole-archive)
../../../../../../../PLAT/prebuild/PLAT/lib/gcc/libdriver_private_bl.a(uart.o)
                              (--whole-archive)
../../../../../../../PLAT/prebuild/PLAT/lib/gcc/libdriver_private_bl.a(cpxip.o)
                              (--whole-archive)
../../../../../../../PLAT/prebuild/PLAT/lib/gcc/libdriver_private_bl.a(efuse.o)
                              (--whole-archive)
../../../../../../../PLAT/prebuild/PLAT/lib/gcc/libdriver_private_bl.a(tls.o)
                              (--whole-archive)
../../../../../../../PLAT/prebuild/PLAT/lib/gcc/libdriver_private_bl.a(rng.o)
                              (--whole-archive)
../../../../../../../PLAT/prebuild/PLAT/lib/gcc/libdriver_private_bl.a(cache.o)
                              (--whole-archive)
../../../../../../../PLAT/prebuild/PLAT/lib/gcc/libdriver_private_bl.a(qspi.o)
                              (--whole-archive)
../../../../../../../PLAT/prebuild/PLAT/lib/gcc/libdriver_private_bl.a(flash.o)
                              (--whole-archive)
../../../../../../../PLAT/prebuild/PLAT/lib/gcc/libdriver_private_bl.a(ic.o)
                              (--whole-archive)
../../../../../../../PLAT/prebuild/PLAT/lib/gcc/libdriver_private_bl.a(gpr.o)
                              (--whole-archive)
../../../../../../../PLAT/prebuild/PLAT/lib/gcc/libdriver_private_bl.a(dma.o)
                              (--whole-archive)
../../../../../../../PLAT/prebuild/PLAT/lib/gcc/libdriver_private_bl.a(aonreg.o)
                              (--whole-archive)
../../../../../../../PLAT/prebuild/PLAT/lib/gcc/libdriver_private_bl.a(cpmureg.o)
                              (--whole-archive)
../../../../../../../PLAT/prebuild/PLAT/lib/gcc/libdriver_private_bl.a(shareinfo.o)
                              (--whole-archive)
../../../../../../../PLAT/prebuild/PLAT/lib/gcc/libusbbl_priv.a(usbd_clsdev.o)
                              (--whole-archive)
../../../../../../../PLAT/prebuild/PLAT/lib/gcc/libusbbl_priv.a(usbd_funclib.o)
                              (--whole-archive)
../../../../../../../PLAT/prebuild/PLAT/lib/gcc/libusbbl_priv.a(usbd_multi.o)
                              (--whole-archive)
../../../../../../../PLAT/prebuild/PLAT/lib/gcc/libusbbl_priv.a(usbd_multi_usrcfg_lib.o)
                              (--whole-archive)
../../../../../../../PLAT/prebuild/PLAT/lib/gcc/libusbbl_priv.a(usbd_proc_cb_lib.o)
                              (--whole-archive)
../../../../../../../PLAT/prebuild/PLAT/lib/gcc/libusbbl_priv.a(device_vcom.o)
                              (--whole-archive)
../../../../../../../PLAT/prebuild/PLAT/lib/gcc/libusbbl_priv.a(device_rndis.o)
                              (--whole-archive)
../../../../../../../PLAT/prebuild/PLAT/lib/gcc/libusbbl_priv.a(device_ecm.o)
                              (--whole-archive)
../../../../../../../PLAT/prebuild/PLAT/lib/gcc/libusbbl_priv.a(lib_list.o)
                              (--whole-archive)
../../../../../../../PLAT/prebuild/PLAT/lib/gcc/libusbbl_priv.a(lib_rbuf.o)
                              (--whole-archive)
../../../../../../../PLAT/prebuild/PLAT/lib/gcc/libusbbl_priv.a(func_dbg.o)
                              (--whole-archive)
../../../../../../../PLAT/prebuild/PLAT/lib/gcc/libusbbl_priv.a(function_vcom_tpl.o)
                              (--whole-archive)
../../../../../../../PLAT/prebuild/PLAT/lib/gcc/libusbbl_priv.a(function_ecm.o)
                              (--whole-archive)
../../../../../../../PLAT/prebuild/PLAT/lib/gcc/libusbbl_priv.a(function_rndis.o)
                              (--whole-archive)
../../../../../../../PLAT/prebuild/PLAT/lib/gcc/libusbbl_priv.a(usb_bl_cmsis_support.o)
                              (--whole-archive)
../../../../../../../PLAT/prebuild/PLAT/lib/gcc/libusbbl_priv.a(usbc_ctrl.o)
                              (--whole-archive)
../../../../../../../PLAT/prebuild/PLAT/lib/gcc/libusbbl_priv.a(usbc_dev_if.o)
                              (--whole-archive)
../../../../../../../PLAT/prebuild/PLAT/lib/gcc/libusbbl_priv.a(usbc_int.o)
                              (--whole-archive)
../../../../../../../PLAT/prebuild/PLAT/lib/gcc/libusbbl_priv.a(usbc_trace.o)
                              (--whole-archive)
../../../../../../../PLAT/prebuild/PLAT/lib/gcc/libusbbl_priv.a(usbpcd_proc.o)
                              (--whole-archive)
../../../../../../../PLAT/prebuild/PLAT/lib/gcc/libusbbl_priv.a(usbpcd_proc_api.o)
                              (--whole-archive)
../../../../../../../PLAT/prebuild/PLAT/lib/gcc/libusbbl_priv.a(usbpcd_proc_req.o)
                              (--whole-archive)
../../../../../../../PLAT/prebuild/PLAT/lib/gcc/libusbbl_priv.a(usbc_bsp.o)
                              (--whole-archive)
../../../../../../../PLAT/prebuild/PLAT/lib/gcc/libusbbl_priv.a(innophy.o)
                              (--whole-archive)
../../../../../../../PLAT/prebuild/PLAT/lib/gcc/libusbbl_priv.a(usb_lowpwr.o)
                              (--whole-archive)
e:/work/meig/ec618/ec618_sdk_rel_sdk/plat/tools/gcc/bin/../lib/gcc/arm-none-eabi/10.2.1/thumb/v7-m/nofp\libgcc.a(_aeabi_ldivmod.o)
                              ../../../../../../../PLAT/prebuild/PLAT/lib/gcc/libosa.a(osasys.o) (__aeabi_ldivmod)
e:/work/meig/ec618/ec618_sdk_rel_sdk/plat/tools/gcc/bin/../lib/gcc/arm-none-eabi/10.2.1/thumb/v7-m/nofp\libgcc.a(_aeabi_uldivmod.o)
                              ../../../../../../../PLAT/prebuild/PLAT/lib/gcc/libosa.a(osasys.o) (__aeabi_uldivmod)
e:/work/meig/ec618/ec618_sdk_rel_sdk/plat/tools/gcc/bin/../lib/gcc/arm-none-eabi/10.2.1/thumb/v7-m/nofp\libgcc.a(_udivmoddi4.o)
                              e:/work/meig/ec618/ec618_sdk_rel_sdk/plat/tools/gcc/bin/../lib/gcc/arm-none-eabi/10.2.1/thumb/v7-m/nofp\libgcc.a(_aeabi_ldivmod.o) (__udivmoddi4)
e:/work/meig/ec618/ec618_sdk_rel_sdk/plat/tools/gcc/bin/../lib/gcc/arm-none-eabi/10.2.1/thumb/v7-m/nofp\libgcc.a(_dvmd_tls.o)
                              e:/work/meig/ec618/ec618_sdk_rel_sdk/plat/tools/gcc/bin/../lib/gcc/arm-none-eabi/10.2.1/thumb/v7-m/nofp\libgcc.a(_aeabi_ldivmod.o) (__aeabi_ldiv0)
e:/work/meig/ec618/ec618_sdk_rel_sdk/plat/tools/gcc/bin/../lib/gcc/arm-none-eabi/10.2.1/../../../../arm-none-eabi/lib/thumb/v7-m/nofp\libc_nano.a(lib_a-assert.o)
                              ../../../../../../../PLAT/gccout/ec618_0h00/ap/bootloader/lib/libdriver.a(gpio.o) (__assert_func)
e:/work/meig/ec618/ec618_sdk_rel_sdk/plat/tools/gcc/bin/../lib/gcc/arm-none-eabi/10.2.1/../../../../arm-none-eabi/lib/thumb/v7-m/nofp\libc_nano.a(lib_a-fclose.o)
                              ../../../../../../../PLAT/prebuild/PLAT/lib/gcc/libdeltapatch.a(bzlib.o) (fclose)
e:/work/meig/ec618/ec618_sdk_rel_sdk/plat/tools/gcc/bin/../lib/gcc/arm-none-eabi/10.2.1/../../../../arm-none-eabi/lib/thumb/v7-m/nofp\libc_nano.a(lib_a-fflush.o)
                              e:/work/meig/ec618/ec618_sdk_rel_sdk/plat/tools/gcc/bin/../lib/gcc/arm-none-eabi/10.2.1/../../../../arm-none-eabi/lib/thumb/v7-m/nofp\libc_nano.a(lib_a-fclose.o) (__sflush_r)
e:/work/meig/ec618/ec618_sdk_rel_sdk/plat/tools/gcc/bin/../lib/gcc/arm-none-eabi/10.2.1/../../../../arm-none-eabi/lib/thumb/v7-m/nofp\libc_nano.a(lib_a-findfp.o)
                              e:/work/meig/ec618/ec618_sdk_rel_sdk/plat/tools/gcc/bin/../lib/gcc/arm-none-eabi/10.2.1/../../../../arm-none-eabi/lib/thumb/v7-m/nofp\libc_nano.a(lib_a-fclose.o) (__sfp_lock_acquire)
e:/work/meig/ec618/ec618_sdk_rel_sdk/plat/tools/gcc/bin/../lib/gcc/arm-none-eabi/10.2.1/../../../../arm-none-eabi/lib/thumb/v7-m/nofp\libc_nano.a(lib_a-fprintf.o)
                              ../../../../../../../PLAT/prebuild/PLAT/lib/gcc/libdeltapatch.a(bzlib.o) (fprintf)
e:/work/meig/ec618/ec618_sdk_rel_sdk/plat/tools/gcc/bin/../lib/gcc/arm-none-eabi/10.2.1/../../../../arm-none-eabi/lib/thumb/v7-m/nofp\libc_nano.a(lib_a-fputc.o)
                              ../../../../../../../PLAT/prebuild/PLAT/lib/gcc/libdeltapatch.a(bzlib.o) (fputc)
e:/work/meig/ec618/ec618_sdk_rel_sdk/plat/tools/gcc/bin/../lib/gcc/arm-none-eabi/10.2.1/../../../../arm-none-eabi/lib/thumb/v7-m/nofp\libc_nano.a(lib_a-fputs.o)
                              ../../../../../../../PLAT/prebuild/PLAT/lib/gcc/libdeltapatch.a(bzlib.o) (fputs)
e:/work/meig/ec618/ec618_sdk_rel_sdk/plat/tools/gcc/bin/../lib/gcc/arm-none-eabi/10.2.1/../../../../arm-none-eabi/lib/thumb/v7-m/nofp\libc_nano.a(lib_a-fwalk.o)
                              e:/work/meig/ec618/ec618_sdk_rel_sdk/plat/tools/gcc/bin/../lib/gcc/arm-none-eabi/10.2.1/../../../../arm-none-eabi/lib/thumb/v7-m/nofp\libc_nano.a(lib_a-findfp.o) (_fwalk)
e:/work/meig/ec618/ec618_sdk_rel_sdk/plat/tools/gcc/bin/../lib/gcc/arm-none-eabi/10.2.1/../../../../arm-none-eabi/lib/thumb/v7-m/nofp\libc_nano.a(lib_a-lock.o)
                              e:/work/meig/ec618/ec618_sdk_rel_sdk/plat/tools/gcc/bin/../lib/gcc/arm-none-eabi/10.2.1/../../../../arm-none-eabi/lib/thumb/v7-m/nofp\libc_nano.a(lib_a-findfp.o) (__retarget_lock_init_recursive)
e:/work/meig/ec618/ec618_sdk_rel_sdk/plat/tools/gcc/bin/../lib/gcc/arm-none-eabi/10.2.1/../../../../arm-none-eabi/lib/thumb/v7-m/nofp\libc_nano.a(lib_a-malloc.o)
                              ../../../../../../../PLAT/gccout/ec618_0h00/ap/bootloader/PLAT/middleware/developed/fota/custom/src/fota_mem.o (malloc)
e:/work/meig/ec618/ec618_sdk_rel_sdk/plat/tools/gcc/bin/../lib/gcc/arm-none-eabi/10.2.1/../../../../arm-none-eabi/lib/thumb/v7-m/nofp\libc_nano.a(lib_a-memcmp.o)
                              ../../../../../../../PLAT/gccout/ec618_0h00/ap/bootloader/PLAT/middleware/developed/fota/custom/src/fota_nvm.o (memcmp)
e:/work/meig/ec618/ec618_sdk_rel_sdk/plat/tools/gcc/bin/../lib/gcc/arm-none-eabi/10.2.1/../../../../arm-none-eabi/lib/thumb/v7-m/nofp\libc_nano.a(lib_a-memmove.o)
                              ../../../../../../../PLAT/prebuild/PLAT/lib/gcc/libbootloader.a(uECC.o) (memmove)
e:/work/meig/ec618/ec618_sdk_rel_sdk/plat/tools/gcc/bin/../lib/gcc/arm-none-eabi/10.2.1/../../../../arm-none-eabi/lib/thumb/v7-m/nofp\libc_nano.a(lib_a-mktime.o)
                              ../../../../../../../PLAT/prebuild/PLAT/lib/gcc/libosa.a(osasys.o) (mktime)
e:/work/meig/ec618/ec618_sdk_rel_sdk/plat/tools/gcc/bin/../lib/gcc/arm-none-eabi/10.2.1/../../../../arm-none-eabi/lib/thumb/v7-m/nofp\libc_nano.a(lib_a-nano-freer.o)
                              e:/work/meig/ec618/ec618_sdk_rel_sdk/plat/tools/gcc/bin/../lib/gcc/arm-none-eabi/10.2.1/../../../../arm-none-eabi/lib/thumb/v7-m/nofp\libc_nano.a(lib_a-fclose.o) (_free_r)
e:/work/meig/ec618/ec618_sdk_rel_sdk/plat/tools/gcc/bin/../lib/gcc/arm-none-eabi/10.2.1/../../../../arm-none-eabi/lib/thumb/v7-m/nofp\libc_nano.a(lib_a-nano-mallocr.o)
                              e:/work/meig/ec618/ec618_sdk_rel_sdk/plat/tools/gcc/bin/../lib/gcc/arm-none-eabi/10.2.1/../../../../arm-none-eabi/lib/thumb/v7-m/nofp\libc_nano.a(lib_a-findfp.o) (_malloc_r)
e:/work/meig/ec618/ec618_sdk_rel_sdk/plat/tools/gcc/bin/../lib/gcc/arm-none-eabi/10.2.1/../../../../arm-none-eabi/lib/thumb/v7-m/nofp\libc_nano.a(lib_a-nano-vfprintf.o)
                              e:/work/meig/ec618/ec618_sdk_rel_sdk/plat/tools/gcc/bin/../lib/gcc/arm-none-eabi/10.2.1/../../../../arm-none-eabi/lib/thumb/v7-m/nofp\libc_nano.a(lib_a-fprintf.o) (_vfprintf_r)
e:/work/meig/ec618/ec618_sdk_rel_sdk/plat/tools/gcc/bin/../lib/gcc/arm-none-eabi/10.2.1/../../../../arm-none-eabi/lib/thumb/v7-m/nofp\libc_nano.a(lib_a-nano-vfprintf_i.o)
                              e:/work/meig/ec618/ec618_sdk_rel_sdk/plat/tools/gcc/bin/../lib/gcc/arm-none-eabi/10.2.1/../../../../arm-none-eabi/lib/thumb/v7-m/nofp\libc_nano.a(lib_a-nano-vfprintf.o) (_printf_i)
e:/work/meig/ec618/ec618_sdk_rel_sdk/plat/tools/gcc/bin/../lib/gcc/arm-none-eabi/10.2.1/../../../../arm-none-eabi/lib/thumb/v7-m/nofp\libc_nano.a(lib_a-printf.o)
                              ../../../../../../../PLAT/gccout/ec618_0h00/ap/bootloader/PLAT/middleware/developed/fota/custom/src/fota_entry.o (printf)
e:/work/meig/ec618/ec618_sdk_rel_sdk/plat/tools/gcc/bin/../lib/gcc/arm-none-eabi/10.2.1/../../../../arm-none-eabi/lib/thumb/v7-m/nofp\libc_nano.a(lib_a-putc.o)
                              e:/work/meig/ec618/ec618_sdk_rel_sdk/plat/tools/gcc/bin/../lib/gcc/arm-none-eabi/10.2.1/../../../../arm-none-eabi/lib/thumb/v7-m/nofp\libc_nano.a(lib_a-fputc.o) (_putc_r)
e:/work/meig/ec618/ec618_sdk_rel_sdk/plat/tools/gcc/bin/../lib/gcc/arm-none-eabi/10.2.1/../../../../arm-none-eabi/lib/thumb/v7-m/nofp\libc_nano.a(lib_a-puts.o)
                              ../../../../../../../PLAT/gccout/ec618_0h00/ap/bootloader/PLAT/project/ec618_0h00/ap/apps/bootloader/code/main/ec_main.o (puts)
e:/work/meig/ec618/ec618_sdk_rel_sdk/plat/tools/gcc/bin/../lib/gcc/arm-none-eabi/10.2.1/../../../../arm-none-eabi/lib/thumb/v7-m/nofp\libc_nano.a(lib_a-rand.o)
                              ../../../../../../../PLAT/prebuild/PLAT/lib/gcc/libosa.a(osasys.o) (srand)
e:/work/meig/ec618/ec618_sdk_rel_sdk/plat/tools/gcc/bin/../lib/gcc/arm-none-eabi/10.2.1/../../../../arm-none-eabi/lib/thumb/v7-m/nofp\libc_nano.a(lib_a-sbrkr.o)
                              e:/work/meig/ec618/ec618_sdk_rel_sdk/plat/tools/gcc/bin/../lib/gcc/arm-none-eabi/10.2.1/../../../../arm-none-eabi/lib/thumb/v7-m/nofp\libc_nano.a(lib_a-nano-mallocr.o) (_sbrk_r)
e:/work/meig/ec618/ec618_sdk_rel_sdk/plat/tools/gcc/bin/../lib/gcc/arm-none-eabi/10.2.1/../../../../arm-none-eabi/lib/thumb/v7-m/nofp\libc_nano.a(lib_a-setvbuf.o)
                              ../../../../../../../PLAT/prebuild/PLAT/lib/gcc/libbootloader.a(bl_bsp.o) (setvbuf)
e:/work/meig/ec618/ec618_sdk_rel_sdk/plat/tools/gcc/bin/../lib/gcc/arm-none-eabi/10.2.1/../../../../arm-none-eabi/lib/thumb/v7-m/nofp\libc_nano.a(lib_a-sprintf.o)
                              ../../../../../../../PLAT/gccout/ec618_0h00/ap/bootloader/PLAT/middleware/developed/fota/custom/src/fota_utils.o (sprintf)
e:/work/meig/ec618/ec618_sdk_rel_sdk/plat/tools/gcc/bin/../lib/gcc/arm-none-eabi/10.2.1/../../../../arm-none-eabi/lib/thumb/v7-m/nofp\libc_nano.a(lib_a-stdio.o)
                              e:/work/meig/ec618/ec618_sdk_rel_sdk/plat/tools/gcc/bin/../lib/gcc/arm-none-eabi/10.2.1/../../../../arm-none-eabi/lib/thumb/v7-m/nofp\libc_nano.a(lib_a-findfp.o) (__sread)
e:/work/meig/ec618/ec618_sdk_rel_sdk/plat/tools/gcc/bin/../lib/gcc/arm-none-eabi/10.2.1/../../../../arm-none-eabi/lib/thumb/v7-m/nofp\libc_nano.a(lib_a-strcasecmp.o)
                              ../../../../../../../PLAT/prebuild/PLAT/lib/gcc/libosa.a(osasys.o) (strcasecmp)
e:/work/meig/ec618/ec618_sdk_rel_sdk/plat/tools/gcc/bin/../lib/gcc/arm-none-eabi/10.2.1/../../../../arm-none-eabi/lib/thumb/v7-m/nofp\libc_nano.a(lib_a-strcat.o)
                              ../../../../../../../PLAT/prebuild/PLAT/lib/gcc/libdeltapatch.a(bzlib.o) (strcat)
e:/work/meig/ec618/ec618_sdk_rel_sdk/plat/tools/gcc/bin/../lib/gcc/arm-none-eabi/10.2.1/../../../../arm-none-eabi/lib/thumb/v7-m/nofp\libc_nano.a(lib_a-strcmp.o)
                              ../../../../../../../PLAT/gccout/ec618_0h00/ap/bootloader/lib/libdriver.a(es8388.o) (strcmp)
e:/work/meig/ec618/ec618_sdk_rel_sdk/plat/tools/gcc/bin/../lib/gcc/arm-none-eabi/10.2.1/../../../../arm-none-eabi/lib/thumb/v7-m/nofp\libc_nano.a(lib_a-strcpy.o)
                              ../../../../../../../PLAT/gccout/ec618_0h00/ap/bootloader/PLAT/middleware/developed/fota/custom/src/fota_nvm.o (strcpy)
e:/work/meig/ec618/ec618_sdk_rel_sdk/plat/tools/gcc/bin/../lib/gcc/arm-none-eabi/10.2.1/../../../../arm-none-eabi/lib/thumb/v7-m/nofp\libc_nano.a(lib_a-strlen.o)
                              ../../../../../../../PLAT/gccout/ec618_0h00/ap/bootloader/lib/libdriver.a(ec_string.o) (strlen)
e:/work/meig/ec618/ec618_sdk_rel_sdk/plat/tools/gcc/bin/../lib/gcc/arm-none-eabi/10.2.1/../../../../arm-none-eabi/lib/thumb/v7-m/nofp\libc_nano.a(lib_a-strncasecmp.o)
                              ../../../../../../../PLAT/prebuild/PLAT/lib/gcc/libosa.a(ostask.o) (strncasecmp)
e:/work/meig/ec618/ec618_sdk_rel_sdk/plat/tools/gcc/bin/../lib/gcc/arm-none-eabi/10.2.1/../../../../arm-none-eabi/lib/thumb/v7-m/nofp\libc_nano.a(lib_a-strncmp.o)
                              ../../../../../../../PLAT/gccout/ec618_0h00/ap/bootloader/PLAT/middleware/developed/fota/custom/src/fota_nvm.o (strncmp)
e:/work/meig/ec618/ec618_sdk_rel_sdk/plat/tools/gcc/bin/../lib/gcc/arm-none-eabi/10.2.1/../../../../arm-none-eabi/lib/thumb/v7-m/nofp\libc_nano.a(lib_a-strncpy.o)
                              ../../../../../../../PLAT/prebuild/PLAT/lib/gcc/libosa.a(osanvm.o) (strncpy)
e:/work/meig/ec618/ec618_sdk_rel_sdk/plat/tools/gcc/bin/../lib/gcc/arm-none-eabi/10.2.1/../../../../arm-none-eabi/lib/thumb/v7-m/nofp\libc_nano.a(lib_a-tzcalc_limits.o)
                              e:/work/meig/ec618/ec618_sdk_rel_sdk/plat/tools/gcc/bin/../lib/gcc/arm-none-eabi/10.2.1/../../../../arm-none-eabi/lib/thumb/v7-m/nofp\libc_nano.a(lib_a-mktime.o) (__tzcalc_limits)
e:/work/meig/ec618/ec618_sdk_rel_sdk/plat/tools/gcc/bin/../lib/gcc/arm-none-eabi/10.2.1/../../../../arm-none-eabi/lib/thumb/v7-m/nofp\libc_nano.a(lib_a-tzlock.o)
                              e:/work/meig/ec618/ec618_sdk_rel_sdk/plat/tools/gcc/bin/../lib/gcc/arm-none-eabi/10.2.1/../../../../arm-none-eabi/lib/thumb/v7-m/nofp\libc_nano.a(lib_a-mktime.o) (__tz_lock)
e:/work/meig/ec618/ec618_sdk_rel_sdk/plat/tools/gcc/bin/../lib/gcc/arm-none-eabi/10.2.1/../../../../arm-none-eabi/lib/thumb/v7-m/nofp\libc_nano.a(lib_a-tzset.o)
                              e:/work/meig/ec618/ec618_sdk_rel_sdk/plat/tools/gcc/bin/../lib/gcc/arm-none-eabi/10.2.1/../../../../arm-none-eabi/lib/thumb/v7-m/nofp\libc_nano.a(lib_a-mktime.o) (_tzset_unlocked)
e:/work/meig/ec618/ec618_sdk_rel_sdk/plat/tools/gcc/bin/../lib/gcc/arm-none-eabi/10.2.1/../../../../arm-none-eabi/lib/thumb/v7-m/nofp\libc_nano.a(lib_a-tzset_r.o)
                              e:/work/meig/ec618/ec618_sdk_rel_sdk/plat/tools/gcc/bin/../lib/gcc/arm-none-eabi/10.2.1/../../../../arm-none-eabi/lib/thumb/v7-m/nofp\libc_nano.a(lib_a-tzset.o) (_tzset_unlocked_r)
e:/work/meig/ec618/ec618_sdk_rel_sdk/plat/tools/gcc/bin/../lib/gcc/arm-none-eabi/10.2.1/../../../../arm-none-eabi/lib/thumb/v7-m/nofp\libc_nano.a(lib_a-tzvars.o)
                              e:/work/meig/ec618/ec618_sdk_rel_sdk/plat/tools/gcc/bin/../lib/gcc/arm-none-eabi/10.2.1/../../../../arm-none-eabi/lib/thumb/v7-m/nofp\libc_nano.a(lib_a-tzset_r.o) (_timezone)
e:/work/meig/ec618/ec618_sdk_rel_sdk/plat/tools/gcc/bin/../lib/gcc/arm-none-eabi/10.2.1/../../../../arm-none-eabi/lib/thumb/v7-m/nofp\libc_nano.a(lib_a-vsnprintf.o)
                              ../../../../../../../PLAT/prebuild/PLAT/lib/gcc/libdriver_private_bl.a(uart.o) (vsnprintf)
e:/work/meig/ec618/ec618_sdk_rel_sdk/plat/tools/gcc/bin/../lib/gcc/arm-none-eabi/10.2.1/../../../../arm-none-eabi/lib/thumb/v7-m/nofp\libc_nano.a(lib_a-wbuf.o)
                              e:/work/meig/ec618/ec618_sdk_rel_sdk/plat/tools/gcc/bin/../lib/gcc/arm-none-eabi/10.2.1/../../../../arm-none-eabi/lib/thumb/v7-m/nofp\libc_nano.a(lib_a-fputs.o) (__swbuf_r)
e:/work/meig/ec618/ec618_sdk_rel_sdk/plat/tools/gcc/bin/../lib/gcc/arm-none-eabi/10.2.1/../../../../arm-none-eabi/lib/thumb/v7-m/nofp\libc_nano.a(lib_a-writer.o)
                              e:/work/meig/ec618/ec618_sdk_rel_sdk/plat/tools/gcc/bin/../lib/gcc/arm-none-eabi/10.2.1/../../../../arm-none-eabi/lib/thumb/v7-m/nofp\libc_nano.a(lib_a-stdio.o) (_write_r)
e:/work/meig/ec618/ec618_sdk_rel_sdk/plat/tools/gcc/bin/../lib/gcc/arm-none-eabi/10.2.1/../../../../arm-none-eabi/lib/thumb/v7-m/nofp\libc_nano.a(lib_a-wsetup.o)
                              e:/work/meig/ec618/ec618_sdk_rel_sdk/plat/tools/gcc/bin/../lib/gcc/arm-none-eabi/10.2.1/../../../../arm-none-eabi/lib/thumb/v7-m/nofp\libc_nano.a(lib_a-fputs.o) (__swsetup_r)
e:/work/meig/ec618/ec618_sdk_rel_sdk/plat/tools/gcc/bin/../lib/gcc/arm-none-eabi/10.2.1/../../../../arm-none-eabi/lib/thumb/v7-m/nofp\libc_nano.a(lib_a-abort.o)
                              e:/work/meig/ec618/ec618_sdk_rel_sdk/plat/tools/gcc/bin/../lib/gcc/arm-none-eabi/10.2.1/../../../../arm-none-eabi/lib/thumb/v7-m/nofp\libc_nano.a(lib_a-assert.o) (abort)
e:/work/meig/ec618/ec618_sdk_rel_sdk/plat/tools/gcc/bin/../lib/gcc/arm-none-eabi/10.2.1/../../../../arm-none-eabi/lib/thumb/v7-m/nofp\libc_nano.a(lib_a-closer.o)
                              e:/work/meig/ec618/ec618_sdk_rel_sdk/plat/tools/gcc/bin/../lib/gcc/arm-none-eabi/10.2.1/../../../../arm-none-eabi/lib/thumb/v7-m/nofp\libc_nano.a(lib_a-stdio.o) (_close_r)
e:/work/meig/ec618/ec618_sdk_rel_sdk/plat/tools/gcc/bin/../lib/gcc/arm-none-eabi/10.2.1/../../../../arm-none-eabi/lib/thumb/v7-m/nofp\libc_nano.a(lib_a-ctype_.o)
                              e:/work/meig/ec618/ec618_sdk_rel_sdk/plat/tools/gcc/bin/../lib/gcc/arm-none-eabi/10.2.1/../../../../arm-none-eabi/lib/thumb/v7-m/nofp\libc_nano.a(lib_a-strcasecmp.o) (_ctype_)
e:/work/meig/ec618/ec618_sdk_rel_sdk/plat/tools/gcc/bin/../lib/gcc/arm-none-eabi/10.2.1/../../../../arm-none-eabi/lib/thumb/v7-m/nofp\libc_nano.a(lib_a-div.o)
                              e:/work/meig/ec618/ec618_sdk_rel_sdk/plat/tools/gcc/bin/../lib/gcc/arm-none-eabi/10.2.1/../../../../arm-none-eabi/lib/thumb/v7-m/nofp\libc_nano.a(lib_a-mktime.o) (div)
e:/work/meig/ec618/ec618_sdk_rel_sdk/plat/tools/gcc/bin/../lib/gcc/arm-none-eabi/10.2.1/../../../../arm-none-eabi/lib/thumb/v7-m/nofp\libc_nano.a(lib_a-fvwrite.o)
                              e:/work/meig/ec618/ec618_sdk_rel_sdk/plat/tools/gcc/bin/../lib/gcc/arm-none-eabi/10.2.1/../../../../arm-none-eabi/lib/thumb/v7-m/nofp\libc_nano.a(lib_a-nano-vfprintf.o) (__sfvwrite_r)
e:/work/meig/ec618/ec618_sdk_rel_sdk/plat/tools/gcc/bin/../lib/gcc/arm-none-eabi/10.2.1/../../../../arm-none-eabi/lib/thumb/v7-m/nofp\libc_nano.a(lib_a-getenv_r.o)
                              e:/work/meig/ec618/ec618_sdk_rel_sdk/plat/tools/gcc/bin/../lib/gcc/arm-none-eabi/10.2.1/../../../../arm-none-eabi/lib/thumb/v7-m/nofp\libc_nano.a(lib_a-tzset_r.o) (_getenv_r)
e:/work/meig/ec618/ec618_sdk_rel_sdk/plat/tools/gcc/bin/../lib/gcc/arm-none-eabi/10.2.1/../../../../arm-none-eabi/lib/thumb/v7-m/nofp\libc_nano.a(lib_a-gettzinfo.o)
                              e:/work/meig/ec618/ec618_sdk_rel_sdk/plat/tools/gcc/bin/../lib/gcc/arm-none-eabi/10.2.1/../../../../arm-none-eabi/lib/thumb/v7-m/nofp\libc_nano.a(lib_a-mktime.o) (__gettzinfo)
e:/work/meig/ec618/ec618_sdk_rel_sdk/plat/tools/gcc/bin/../lib/gcc/arm-none-eabi/10.2.1/../../../../arm-none-eabi/lib/thumb/v7-m/nofp\libc_nano.a(lib_a-lseekr.o)
                              e:/work/meig/ec618/ec618_sdk_rel_sdk/plat/tools/gcc/bin/../lib/gcc/arm-none-eabi/10.2.1/../../../../arm-none-eabi/lib/thumb/v7-m/nofp\libc_nano.a(lib_a-stdio.o) (_lseek_r)
e:/work/meig/ec618/ec618_sdk_rel_sdk/plat/tools/gcc/bin/../lib/gcc/arm-none-eabi/10.2.1/../../../../arm-none-eabi/lib/thumb/v7-m/nofp\libc_nano.a(lib_a-makebuf.o)
                              e:/work/meig/ec618/ec618_sdk_rel_sdk/plat/tools/gcc/bin/../lib/gcc/arm-none-eabi/10.2.1/../../../../arm-none-eabi/lib/thumb/v7-m/nofp\libc_nano.a(lib_a-setvbuf.o) (__swhatbuf_r)
e:/work/meig/ec618/ec618_sdk_rel_sdk/plat/tools/gcc/bin/../lib/gcc/arm-none-eabi/10.2.1/../../../../arm-none-eabi/lib/thumb/v7-m/nofp\libc_nano.a(lib_a-memchr-stub.o)
                              e:/work/meig/ec618/ec618_sdk_rel_sdk/plat/tools/gcc/bin/../lib/gcc/arm-none-eabi/10.2.1/../../../../arm-none-eabi/lib/thumb/v7-m/nofp\libc_nano.a(lib_a-nano-vfprintf.o) (memchr)
e:/work/meig/ec618/ec618_sdk_rel_sdk/plat/tools/gcc/bin/../lib/gcc/arm-none-eabi/10.2.1/../../../../arm-none-eabi/lib/thumb/v7-m/nofp\libc_nano.a(lib_a-mlock.o)
                              e:/work/meig/ec618/ec618_sdk_rel_sdk/plat/tools/gcc/bin/../lib/gcc/arm-none-eabi/10.2.1/../../../../arm-none-eabi/lib/thumb/v7-m/nofp\libc_nano.a(lib_a-nano-freer.o) (__malloc_lock)
e:/work/meig/ec618/ec618_sdk_rel_sdk/plat/tools/gcc/bin/../lib/gcc/arm-none-eabi/10.2.1/../../../../arm-none-eabi/lib/thumb/v7-m/nofp\libc_nano.a(lib_a-month_lengths.o)
                              e:/work/meig/ec618/ec618_sdk_rel_sdk/plat/tools/gcc/bin/../lib/gcc/arm-none-eabi/10.2.1/../../../../arm-none-eabi/lib/thumb/v7-m/nofp\libc_nano.a(lib_a-tzcalc_limits.o) (__month_lengths)
e:/work/meig/ec618/ec618_sdk_rel_sdk/plat/tools/gcc/bin/../lib/gcc/arm-none-eabi/10.2.1/../../../../arm-none-eabi/lib/thumb/v7-m/nofp\libc_nano.a(lib_a-nano-reallocr.o)
                              e:/work/meig/ec618/ec618_sdk_rel_sdk/plat/tools/gcc/bin/../lib/gcc/arm-none-eabi/10.2.1/../../../../arm-none-eabi/lib/thumb/v7-m/nofp\libc_nano.a(lib_a-fvwrite.o) (_realloc_r)
e:/work/meig/ec618/ec618_sdk_rel_sdk/plat/tools/gcc/bin/../lib/gcc/arm-none-eabi/10.2.1/../../../../arm-none-eabi/lib/thumb/v7-m/nofp\libc_nano.a(lib_a-nano-svfprintf.o)
                              e:/work/meig/ec618/ec618_sdk_rel_sdk/plat/tools/gcc/bin/../lib/gcc/arm-none-eabi/10.2.1/../../../../arm-none-eabi/lib/thumb/v7-m/nofp\libc_nano.a(lib_a-sprintf.o) (_svfprintf_r)
e:/work/meig/ec618/ec618_sdk_rel_sdk/plat/tools/gcc/bin/../lib/gcc/arm-none-eabi/10.2.1/../../../../arm-none-eabi/lib/thumb/v7-m/nofp\libc_nano.a(lib_a-readr.o)
                              e:/work/meig/ec618/ec618_sdk_rel_sdk/plat/tools/gcc/bin/../lib/gcc/arm-none-eabi/10.2.1/../../../../arm-none-eabi/lib/thumb/v7-m/nofp\libc_nano.a(lib_a-stdio.o) (_read_r)
e:/work/meig/ec618/ec618_sdk_rel_sdk/plat/tools/gcc/bin/../lib/gcc/arm-none-eabi/10.2.1/../../../../arm-none-eabi/lib/thumb/v7-m/nofp\libc_nano.a(lib_a-reent.o)
                              e:/work/meig/ec618/ec618_sdk_rel_sdk/plat/tools/gcc/bin/../lib/gcc/arm-none-eabi/10.2.1/../../../../arm-none-eabi/lib/thumb/v7-m/nofp\libc_nano.a(lib_a-sbrkr.o) (errno)
e:/work/meig/ec618/ec618_sdk_rel_sdk/plat/tools/gcc/bin/../lib/gcc/arm-none-eabi/10.2.1/../../../../arm-none-eabi/lib/thumb/v7-m/nofp\libc_nano.a(lib_a-signal.o)
                              e:/work/meig/ec618/ec618_sdk_rel_sdk/plat/tools/gcc/bin/../lib/gcc/arm-none-eabi/10.2.1/../../../../arm-none-eabi/lib/thumb/v7-m/nofp\libc_nano.a(lib_a-abort.o) (raise)
e:/work/meig/ec618/ec618_sdk_rel_sdk/plat/tools/gcc/bin/../lib/gcc/arm-none-eabi/10.2.1/../../../../arm-none-eabi/lib/thumb/v7-m/nofp\libc_nano.a(lib_a-signalr.o)
                              e:/work/meig/ec618/ec618_sdk_rel_sdk/plat/tools/gcc/bin/../lib/gcc/arm-none-eabi/10.2.1/../../../../arm-none-eabi/lib/thumb/v7-m/nofp\libc_nano.a(lib_a-signal.o) (_kill_r)
e:/work/meig/ec618/ec618_sdk_rel_sdk/plat/tools/gcc/bin/../lib/gcc/arm-none-eabi/10.2.1/../../../../arm-none-eabi/lib/thumb/v7-m/nofp\libc_nano.a(lib_a-sscanf.o)
                              e:/work/meig/ec618/ec618_sdk_rel_sdk/plat/tools/gcc/bin/../lib/gcc/arm-none-eabi/10.2.1/../../../../arm-none-eabi/lib/thumb/v7-m/nofp\libc_nano.a(lib_a-tzset_r.o) (siscanf)
e:/work/meig/ec618/ec618_sdk_rel_sdk/plat/tools/gcc/bin/../lib/gcc/arm-none-eabi/10.2.1/../../../../arm-none-eabi/lib/thumb/v7-m/nofp\libc_nano.a(lib_a-strtoul.o)
                              e:/work/meig/ec618/ec618_sdk_rel_sdk/plat/tools/gcc/bin/../lib/gcc/arm-none-eabi/10.2.1/../../../../arm-none-eabi/lib/thumb/v7-m/nofp\libc_nano.a(lib_a-tzset_r.o) (strtoul)
e:/work/meig/ec618/ec618_sdk_rel_sdk/plat/tools/gcc/bin/../lib/gcc/arm-none-eabi/10.2.1/../../../../arm-none-eabi/lib/thumb/v7-m/nofp\libc_nano.a(lib_a-environ.o)
                              e:/work/meig/ec618/ec618_sdk_rel_sdk/plat/tools/gcc/bin/../lib/gcc/arm-none-eabi/10.2.1/../../../../arm-none-eabi/lib/thumb/v7-m/nofp\libc_nano.a(lib_a-getenv_r.o) (environ)
e:/work/meig/ec618/ec618_sdk_rel_sdk/plat/tools/gcc/bin/../lib/gcc/arm-none-eabi/10.2.1/../../../../arm-none-eabi/lib/thumb/v7-m/nofp\libc_nano.a(lib_a-envlock.o)
                              e:/work/meig/ec618/ec618_sdk_rel_sdk/plat/tools/gcc/bin/../lib/gcc/arm-none-eabi/10.2.1/../../../../arm-none-eabi/lib/thumb/v7-m/nofp\libc_nano.a(lib_a-getenv_r.o) (__env_lock)
e:/work/meig/ec618/ec618_sdk_rel_sdk/plat/tools/gcc/bin/../lib/gcc/arm-none-eabi/10.2.1/../../../../arm-none-eabi/lib/thumb/v7-m/nofp\libc_nano.a(lib_a-fstatr.o)
                              e:/work/meig/ec618/ec618_sdk_rel_sdk/plat/tools/gcc/bin/../lib/gcc/arm-none-eabi/10.2.1/../../../../arm-none-eabi/lib/thumb/v7-m/nofp\libc_nano.a(lib_a-makebuf.o) (_fstat_r)
e:/work/meig/ec618/ec618_sdk_rel_sdk/plat/tools/gcc/bin/../lib/gcc/arm-none-eabi/10.2.1/../../../../arm-none-eabi/lib/thumb/v7-m/nofp\libc_nano.a(lib_a-isattyr.o)
                              e:/work/meig/ec618/ec618_sdk_rel_sdk/plat/tools/gcc/bin/../lib/gcc/arm-none-eabi/10.2.1/../../../../arm-none-eabi/lib/thumb/v7-m/nofp\libc_nano.a(lib_a-makebuf.o) (_isatty_r)
e:/work/meig/ec618/ec618_sdk_rel_sdk/plat/tools/gcc/bin/../lib/gcc/arm-none-eabi/10.2.1/../../../../arm-none-eabi/lib/thumb/v7-m/nofp\libc_nano.a(lib_a-nano-msizer.o)
                              e:/work/meig/ec618/ec618_sdk_rel_sdk/plat/tools/gcc/bin/../lib/gcc/arm-none-eabi/10.2.1/../../../../arm-none-eabi/lib/thumb/v7-m/nofp\libc_nano.a(lib_a-nano-reallocr.o) (_malloc_usable_size_r)
e:/work/meig/ec618/ec618_sdk_rel_sdk/plat/tools/gcc/bin/../lib/gcc/arm-none-eabi/10.2.1/../../../../arm-none-eabi/lib/thumb/v7-m/nofp\libc_nano.a(lib_a-nano-svfscanf.o)
                              e:/work/meig/ec618/ec618_sdk_rel_sdk/plat/tools/gcc/bin/../lib/gcc/arm-none-eabi/10.2.1/../../../../arm-none-eabi/lib/thumb/v7-m/nofp\libc_nano.a(lib_a-sscanf.o) (__ssvfscanf_r)
e:/work/meig/ec618/ec618_sdk_rel_sdk/plat/tools/gcc/bin/../lib/gcc/arm-none-eabi/10.2.1/../../../../arm-none-eabi/lib/thumb/v7-m/nofp\libc_nano.a(lib_a-nano-vfscanf_i.o)
                              e:/work/meig/ec618/ec618_sdk_rel_sdk/plat/tools/gcc/bin/../lib/gcc/arm-none-eabi/10.2.1/../../../../arm-none-eabi/lib/thumb/v7-m/nofp\libc_nano.a(lib_a-nano-svfscanf.o) (_scanf_chars)
e:/work/meig/ec618/ec618_sdk_rel_sdk/plat/tools/gcc/bin/../lib/gcc/arm-none-eabi/10.2.1/../../../../arm-none-eabi/lib/thumb/v7-m/nofp\libc_nano.a(lib_a-sccl.o)
                              e:/work/meig/ec618/ec618_sdk_rel_sdk/plat/tools/gcc/bin/../lib/gcc/arm-none-eabi/10.2.1/../../../../arm-none-eabi/lib/thumb/v7-m/nofp\libc_nano.a(lib_a-nano-svfscanf.o) (__sccl)
e:/work/meig/ec618/ec618_sdk_rel_sdk/plat/tools/gcc/bin/../lib/gcc/arm-none-eabi/10.2.1/../../../../arm-none-eabi/lib/thumb/v7-m/nofp\libc_nano.a(lib_a-strtol.o)
                              e:/work/meig/ec618/ec618_sdk_rel_sdk/plat/tools/gcc/bin/../lib/gcc/arm-none-eabi/10.2.1/../../../../arm-none-eabi/lib/thumb/v7-m/nofp\libc_nano.a(lib_a-nano-vfscanf_i.o) (_strtol_r)
e:/work/meig/ec618/ec618_sdk_rel_sdk/plat/tools/gcc/bin/../lib/gcc/arm-none-eabi/10.2.1/../../../../arm-none-eabi/lib/thumb/v7-m/nofp\libc_nano.a(lib_a-ungetc.o)
                              e:/work/meig/ec618/ec618_sdk_rel_sdk/plat/tools/gcc/bin/../lib/gcc/arm-none-eabi/10.2.1/../../../../arm-none-eabi/lib/thumb/v7-m/nofp\libc_nano.a(lib_a-nano-svfscanf.o) (__submore)
e:/work/meig/ec618/ec618_sdk_rel_sdk/plat/tools/gcc/bin/../lib/gcc/arm-none-eabi/10.2.1/../../../../arm-none-eabi/lib/thumb/v7-m/nofp\libc_nano.a(lib_a-errno.o)
                              e:/work/meig/ec618/ec618_sdk_rel_sdk/plat/tools/gcc/bin/../lib/gcc/arm-none-eabi/10.2.1/../../../../arm-none-eabi/lib/thumb/v7-m/nofp\libc_nano.a(lib_a-strtol.o) (__errno)

Memory Configuration

Name             Origin             Length             Attributes
ASMB_AREA_REMAP  0x00000000         0x00010000         xrw
ASMB_AREA_UNREMAP 0x00100000         0x00010000         xrw
MSMB_AREA        0x00400000         0x00140000         xrw
FLASH_AREA       0x00804000         0x00280000         xr
*default*        0x00000000         0xffffffff

Linker script and memory map

LOAD e:/work/meig/ec618/ec618_sdk_rel_sdk/plat/tools/gcc/bin/../lib/gcc/arm-none-eabi/10.2.1/thumb/v7-m/nofp/crti.o
LOAD e:/work/meig/ec618/ec618_sdk_rel_sdk/plat/tools/gcc/bin/../lib/gcc/arm-none-eabi/10.2.1/thumb/v7-m/nofp/crtbegin.o
LOAD e:/work/meig/ec618/ec618_sdk_rel_sdk/plat/tools/gcc/bin/../lib/gcc/arm-none-eabi/10.2.1/../../../../arm-none-eabi/lib/thumb/v7-m/nofp/crt0.o
LOAD e:/work/meig/ec618/ec618_sdk_rel_sdk/plat/tools/gcc/bin/../lib/gcc/arm-none-eabi/10.2.1/../../../../arm-none-eabi/lib/thumb/v7-m/nofp\libc_nano.a
LOAD e:/work/meig/ec618/ec618_sdk_rel_sdk/plat/tools/gcc/bin/../lib/gcc/arm-none-eabi/10.2.1/../../../../arm-none-eabi/lib/thumb/v7-m/nofp\libm.a
LOAD ../../../../../../../PLAT/gccout/ec618_0h00/ap/bootloader/PLAT/project/ec618_0h00/ap/apps/bootloader/code/main/ec_main.o
LOAD ../../../../../../../PLAT/gccout/ec618_0h00/ap/bootloader/PLAT/project/ec618_0h00/ap/apps/bootloader/code/except/exception_handler.o
LOAD ../../../../../../../PLAT/gccout/ec618_0h00/ap/bootloader/PLAT/project/ec618_0h00/ap/apps/bootloader/code/main/stub_os.o
LOAD ../../../../../../../PLAT/gccout/ec618_0h00/ap/bootloader/PLAT/middleware/developed/fota/custom/src/fota_entry.o
LOAD ../../../../../../../PLAT/gccout/ec618_0h00/ap/bootloader/PLAT/middleware/developed/fota/custom/src/fota_utils.o
LOAD ../../../../../../../PLAT/gccout/ec618_0h00/ap/bootloader/PLAT/middleware/developed/fota/custom/src/fota_nvm.o
LOAD ../../../../../../../PLAT/gccout/ec618_0h00/ap/bootloader/PLAT/middleware/developed/fota/custom/src/fota_mem.o
LOAD ../../../../../../../PLAT/gccout/ec618_0h00/ap/bootloader/PLAT/middleware/developed/fota/custom/src/fota_chksum.o
LOAD ../../../../../../../PLAT/gccout/ec618_0h00/ap/bootloader/PLAT/middleware/developed/fota/custom/src/fota_custom.o
START GROUP
LOAD ../../../../../../../PLAT/gccout/ec618_0h00/ap/bootloader/lib/libstartup.a
LOAD ../../../../../../../PLAT/gccout/ec618_0h00/ap/bootloader/lib/libdriver.a
LOAD ../../../../../../../PLAT/gccout/ec618_0h00/ap/bootloader/lib/libmiddleware_ec.a
LOAD ../../../../../../../PLAT/prebuild/PLAT/lib/gcc/libbootloader.a
LOAD ../../../../../../../PLAT/prebuild/PLAT/lib/gcc/libosa.a
LOAD ../../../../../../../PLAT/prebuild/PLAT/lib/gcc/libmiddleware_ec_private.a
LOAD ../../../../../../../PLAT/prebuild/PLAT/lib/gcc/libccio.a
LOAD ../../../../../../../PLAT/prebuild/PLAT/lib/gcc/libdeltapatch.a
LOAD ../../../../../../../PLAT/prebuild/PLAT/lib/gcc/libfota.a
LOAD ../../../../../../../PLAT/prebuild/PLAT/lib/gcc/libdriver_private_bl.a
LOAD ../../../../../../../PLAT/prebuild/PLAT/lib/gcc/libusbbl_priv.a
END GROUP
START GROUP
LOAD e:/work/meig/ec618/ec618_sdk_rel_sdk/plat/tools/gcc/bin/../lib/gcc/arm-none-eabi/10.2.1/thumb/v7-m/nofp\libgcc.a
LOAD e:/work/meig/ec618/ec618_sdk_rel_sdk/plat/tools/gcc/bin/../lib/gcc/arm-none-eabi/10.2.1/../../../../arm-none-eabi/lib/thumb/v7-m/nofp\libc_nano.a
END GROUP
START GROUP
LOAD e:/work/meig/ec618/ec618_sdk_rel_sdk/plat/tools/gcc/bin/../lib/gcc/arm-none-eabi/10.2.1/thumb/v7-m/nofp\libgcc.a
LOAD e:/work/meig/ec618/ec618_sdk_rel_sdk/plat/tools/gcc/bin/../lib/gcc/arm-none-eabi/10.2.1/../../../../arm-none-eabi/lib/thumb/v7-m/nofp\libc_nano.a
END GROUP
LOAD e:/work/meig/ec618/ec618_sdk_rel_sdk/plat/tools/gcc/bin/../lib/gcc/arm-none-eabi/10.2.1/thumb/v7-m/nofp/crtend.o
LOAD e:/work/meig/ec618/ec618_sdk_rel_sdk/plat/tools/gcc/bin/../lib/gcc/arm-none-eabi/10.2.1/thumb/v7-m/nofp/crtn.o

.vector         0x00804000       0x7c
 *(.isr_vector)
 .isr_vector    0x00804000       0x7c ../../../../../../../PLAT/gccout/ec618_0h00/ap/bootloader/lib/libstartup.a(startup_ec618_gcc.o)
                0x00804000                __isr_vector

.ap_iram_xip_start
                0x00101000       0x38 load address 0x0080407c
                0x00101000                . = ALIGN (0x4)
                0x0080407c                Load$$AP_IRAM_XIP_START$$Base = LOADADDR (.ap_iram_xip_start)
                0x00101000                Image$$AP_IRAM_XIP_START$$Base = .
 *(.XIPStartRamCode)
 .XIPStartRamCode
                0x00101000       0x38 ../../../../../../../PLAT/gccout/ec618_0h00/ap/bootloader/lib/libstartup.a(system_ec618.o)
                0x00101000                QSPI_FLASH_Init_FastInApRam
                0x00101038                . = ALIGN (0x4)
                0x00000038                Image$$AP_IRAM_XIP_START$$Length = SIZEOF (.ap_iram_xip_start)

.load_iram_pre1
                0x00002000       0x34 load address 0x008040b4
                0x00002000                . = ALIGN (0x4)
                0x008040b4                Load$$LOAD_IRAM_PRE1$$Base = LOADADDR (.load_iram_pre1)
                0x00002000                Image$$LOAD_IRAM_PRE1$$Base = .
 *(.platBootRamcodeFCLK)
 .platBootRamcodeFCLK
                0x00002000       0x32 ../../../../../../../PLAT/gccout/ec618_0h00/ap/bootloader/lib/libstartup.a(system_ec618.o)
                0x00002000                HAL_QSPI_Set_Clk_68M_BOOTQUICK
                0x00002034                . = ALIGN (0x4)
 *fill*         0x00002032        0x2 
                0x00000034                Image$$LOAD_IRAM_PRE1$$Length = SIZEOF (.load_iram_pre1)

.load_iram_pre2
                0x00003000      0xd8c load address 0x008040e8
                0x00003000                . = ALIGN (0x4)
                0x008040e8                Load$$LOAD_IRAM_PRE2$$Base = LOADADDR (.load_iram_pre2)
                0x00003000                Image$$LOAD_IRAM_PRE2$$Base = .
 *(.pre2RamCode)
 .pre2RamCode   0x00003000       0x34 ../../../../../../../PLAT/prebuild/PLAT/lib/gcc/libbootloader.a(bl_bsp.o)
                0x00003000                SystemNormalBootInit
                0x00003016                SystemWakeUpBootInit
 *(.platPARamcode)
 .platPARamcode
                0x00003034       0x28 ../../../../../../../PLAT/gccout/ec618_0h00/ap/bootloader/lib/libdriver.a(hal_misc.o)
                0x0000303c                delay_us
 .platPARamcode
                0x0000305c      0x348 ../../../../../../../PLAT/gccout/ec618_0h00/ap/bootloader/lib/libdriver.a(bsp_usart.o)
                0x0000309c                USART_Receive
                0x000031f0                USART_GetRxCount
                0x00003218                USART_IRQHandler
                0x0000338c                USART0_IRQHandler
                0x00003398                USART1_IRQHandler
 .platPARamcode
                0x000033a4      0x18a ../../../../../../../PLAT/gccout/ec618_0h00/ap/bootloader/lib/libdriver.a(clock.o)
                0x000033a4                CLOCK_Trace
                0x000033a6                CLOCK_clockEnable
                0x0000345e                CLOCK_clockDisable
                0x000034ea                CLOCK_clockReset
 .platPARamcode
                0x0000352e       0x70 ../../../../../../../PLAT/prebuild/PLAT/lib/gcc/libdriver_private_bl.a(flash.o)
                0x0000352e                QSPI_CheckQEnFlag
                0x00003568                BSP_QSPI_XIP_Mode_Enable
                0x00003594                BSP_QSPI_XIP_Mode_Disable
 .platPARamcode
                0x0000359e       0xaa ../../../../../../../PLAT/prebuild/PLAT/lib/gcc/libdriver_private_bl.a(ic.o)
                0x0000359e                XIC_IntLogOut
                0x000035a0                XIC_IntHandler
 .platPARamcode
                0x00003648      0x1fe ../../../../../../../PLAT/prebuild/PLAT/lib/gcc/libdriver_private_bl.a(gpr.o)
                0x00003648                GPR_clockEnable
                0x00003682                GPR_clockEnableCheck
                0x000036ca                GPR_clockDisable
                0x00003706                GPR_setFlashClockSrc
                0x00003734                GPR_setFlashClockDiv
                0x00003764                GPR_flashClockEnable
                0x0000378e                GPR_flashClockDisable
                0x000037b8                GPR_flashSWReset
                0x000037e4                GPR_unilogSWReset
 .platPARamcode
                0x00003846      0x1e8 ../../../../../../../PLAT/prebuild/PLAT/lib/gcc/libdriver_private_bl.a(dma.o)
                0x00003984                DMA_loadChannelDescriptorAndRun
                0x000039d0                DMA_setDescriptorTransferLen
                0x000039dc                DMA_stopChannelNoWait
 *qspi.o(.text*)
 .text.QSPI_Frame_Config
                0x00003a2e       0x38 ../../../../../../../PLAT/prebuild/PLAT/lib/gcc/libdriver_private_bl.a(qspi.o)
 .text.QSPI_WaitSpecFlagUntilTimeout
                0x00003a66       0x66 ../../../../../../../PLAT/prebuild/PLAT/lib/gcc/libdriver_private_bl.a(qspi.o)
 .text.HAL_QSPI_Init
                0x00003acc       0x46 ../../../../../../../PLAT/prebuild/PLAT/lib/gcc/libdriver_private_bl.a(qspi.o)
                0x00003acc                HAL_QSPI_Init
 .text.HAL_QSPI_Command
                0x00003b12       0x6e ../../../../../../../PLAT/prebuild/PLAT/lib/gcc/libdriver_private_bl.a(qspi.o)
                0x00003b12                HAL_QSPI_Command
 .text.HAL_QSPI_Transmit
                0x00003b80       0xee ../../../../../../../PLAT/prebuild/PLAT/lib/gcc/libdriver_private_bl.a(qspi.o)
                0x00003b80                HAL_QSPI_Transmit
 .text.HAL_QSPI_Receive
                0x00003c6e       0xb8 ../../../../../../../PLAT/prebuild/PLAT/lib/gcc/libdriver_private_bl.a(qspi.o)
                0x00003c6e                HAL_QSPI_Receive
 .text.HAL_QSPI_XIP_Enable
                0x00003d26       0x38 ../../../../../../../PLAT/prebuild/PLAT/lib/gcc/libdriver_private_bl.a(qspi.o)
                0x00003d26                HAL_QSPI_XIP_Enable
 .text.HAL_QSPI_Config
                0x00003d5e       0x2e ../../../../../../../PLAT/prebuild/PLAT/lib/gcc/libdriver_private_bl.a(qspi.o)
                0x00003d5e                HAL_QSPI_Config
                0x00003d8c                . = ALIGN (0x4)
                0x00000d8c                Image$$LOAD_IRAM_PRE2$$Length = SIZEOF (.load_iram_pre2)

.load_iram_usb  0x00400000     0x5dd0 load address 0x00804e74
                0x00400000                . = ALIGN (0x4)
                0x00804e74                Load$$LOAD_IRAM_USB$$Base = LOADADDR (.load_iram_usb)
                0x00400000                Image$$LOAD_IRAM_USB$$Base = .
 *usb*.o(.text* .rodata*)
 .rodata.usbcustom_product_str_desc.str1.1
                0x00400000       0x10 ../../../../../../../PLAT/gccout/ec618_0h00/ap/bootloader/lib/libdriver.a(usbd_proc_cb_custom.o)
 .text.usbcustom_product_str_desc
                0x00400010        0xa ../../../../../../../PLAT/gccout/ec618_0h00/ap/bootloader/lib/libdriver.a(usbd_proc_cb_custom.o)
                0x00400010                usbcustom_product_str_desc
 .rodata.usbcustom_manufacture_str_desc.str1.1
                0x0040001a        0xa ../../../../../../../PLAT/gccout/ec618_0h00/ap/bootloader/lib/libdriver.a(usbd_proc_cb_custom.o)
 .text.usbcustom_manufacture_str_desc
                0x00400024        0xa ../../../../../../../PLAT/gccout/ec618_0h00/ap/bootloader/lib/libdriver.a(usbd_proc_cb_custom.o)
                0x00400024                usbcustom_manufacture_str_desc
 .rodata.usbcustom_ser_str_desc.str1.1
                0x0040002e        0xd ../../../../../../../PLAT/gccout/ec618_0h00/ap/bootloader/lib/libdriver.a(usbd_proc_cb_custom.o)
 *fill*         0x0040003b        0x1 
 .text.usbcustom_ser_str_desc
                0x0040003c        0xa ../../../../../../../PLAT/gccout/ec618_0h00/ap/bootloader/lib/libdriver.a(usbd_proc_cb_custom.o)
                0x0040003c                usbcustom_ser_str_desc
 .rodata.usbcustom_cfg_str_desc.str1.1
                0x00400046        0xd ../../../../../../../PLAT/gccout/ec618_0h00/ap/bootloader/lib/libdriver.a(usbd_proc_cb_custom.o)
 *fill*         0x00400053        0x1 
 .text.usbcustom_cfg_str_desc
                0x00400054        0xa ../../../../../../../PLAT/gccout/ec618_0h00/ap/bootloader/lib/libdriver.a(usbd_proc_cb_custom.o)
                0x00400054                usbcustom_cfg_str_desc
 .rodata.usbcustom_intf_str_desc.str1.1
                0x0040005e       0x10 ../../../../../../../PLAT/gccout/ec618_0h00/ap/bootloader/lib/libdriver.a(usbd_proc_cb_custom.o)
 .text.usbcustom_intf_str_desc
                0x0040006e        0xa ../../../../../../../PLAT/gccout/ec618_0h00/ap/bootloader/lib/libdriver.a(usbd_proc_cb_custom.o)
                0x0040006e                usbcustom_intf_str_desc
 .text.usbcustom_cfg_remote_wkup_bit
                0x00400078        0x4 ../../../../../../../PLAT/gccout/ec618_0h00/ap/bootloader/lib/libdriver.a(usbd_proc_cb_custom.o)
                0x00400078                usbcustom_cfg_remote_wkup_bit
 .text.usbcustom_cfg_self_powered_bit
                0x0040007c        0x4 ../../../../../../../PLAT/gccout/ec618_0h00/ap/bootloader/lib/libdriver.a(usbd_proc_cb_custom.o)
                0x0040007c                usbcustom_cfg_self_powered_bit
 .text.usbcustom_cfg_max_power
                0x00400080        0x4 ../../../../../../../PLAT/gccout/ec618_0h00/ap/bootloader/lib/libdriver.a(usbd_proc_cb_custom.o)
                0x00400080                usbcustom_cfg_max_power
 .text.udev_notify_init
                0x00400084        0x2 ../../../../../../../PLAT/gccout/ec618_0h00/ap/bootloader/lib/libdriver.a(usbd_proc_cb_custom.o)
                0x00400084                udev_notify_init
 .text.udev_notify_device_reset
                0x00400086        0x2 ../../../../../../../PLAT/gccout/ec618_0h00/ap/bootloader/lib/libdriver.a(usbd_proc_cb_custom.o)
                0x00400086                udev_notify_device_reset
 .text.udev_notify_device_config
                0x00400088        0x2 ../../../../../../../PLAT/gccout/ec618_0h00/ap/bootloader/lib/libdriver.a(usbd_proc_cb_custom.o)
                0x00400088                udev_notify_device_config
 .text.udev_notify_device_suspend
                0x0040008a        0x2 ../../../../../../../PLAT/gccout/ec618_0h00/ap/bootloader/lib/libdriver.a(usbd_proc_cb_custom.o)
                0x0040008a                udev_notify_device_suspend
 .text.udev_notify_device_resume
                0x0040008c        0x2 ../../../../../../../PLAT/gccout/ec618_0h00/ap/bootloader/lib/libdriver.a(usbd_proc_cb_custom.o)
                0x0040008c                udev_notify_device_resume
 .text.udev_notify_device_connect
                0x0040008e        0x2 ../../../../../../../PLAT/gccout/ec618_0h00/ap/bootloader/lib/libdriver.a(usbd_proc_cb_custom.o)
                0x0040008e                udev_notify_device_connect
 .text.udev_notify_device_disconnect
                0x00400090        0x2 ../../../../../../../PLAT/gccout/ec618_0h00/ap/bootloader/lib/libdriver.a(usbd_proc_cb_custom.o)
                0x00400090                udev_notify_device_disconnect
 .text.udev_set_last_err
                0x00400092        0xc ../../../../../../../PLAT/gccout/ec618_0h00/ap/bootloader/lib/libdriver.a(usbd_proc_cb_custom.o)
                0x00400092                udev_set_last_err
 .text.udev_get_last_err
                0x0040009e        0xc ../../../../../../../PLAT/gccout/ec618_0h00/ap/bootloader/lib/libdriver.a(usbd_proc_cb_custom.o)
                0x0040009e                udev_get_last_err
 .text.usbcustom_epin_id_map
                0x004000aa       0x12 ../../../../../../../PLAT/gccout/ec618_0h00/ap/bootloader/lib/libdriver.a(usbd_multi_usrcfg_custom.o)
                0x004000aa                usbcustom_epin_id_map
 .text.usbcustom_epout_id_map
                0x004000bc        0x4 ../../../../../../../PLAT/gccout/ec618_0h00/ap/bootloader/lib/libdriver.a(usbd_multi_usrcfg_custom.o)
                0x004000bc                usbcustom_epout_id_map
 .text.usbcustom_multidev_ccinfo_maprst
                0x004000c0       0x94 ../../../../../../../PLAT/gccout/ec618_0h00/ap/bootloader/lib/libdriver.a(usbd_multi_usrcfg_custom.o)
                0x004000c0                usbcustom_multidev_ccinfo_maprst
 .text.usbcustom_multidev_ccinfo_map
                0x00400154       0xd6 ../../../../../../../PLAT/gccout/ec618_0h00/ap/bootloader/lib/libdriver.a(usbd_multi_usrcfg_custom.o)
                0x00400154                usbcustom_multidev_ccinfo_map
 .text.usbcustom_multidev_cfg_reset
                0x0040022a       0x38 ../../../../../../../PLAT/gccout/ec618_0h00/ap/bootloader/lib/libdriver.a(usbd_multi_usrcfg_custom.o)
                0x0040022a                usbcustom_multidev_cfg_reset
 .text.usbcustom_multidev_cfg_update
                0x00400262        0xa ../../../../../../../PLAT/gccout/ec618_0h00/ap/bootloader/lib/libdriver.a(usbd_multi_usrcfg_custom.o)
                0x00400262                usbcustom_multidev_cfg_update
 .text.usbcustom_multidev_cfg_end
                0x0040026c       0x22 ../../../../../../../PLAT/gccout/ec618_0h00/ap/bootloader/lib/libdriver.a(usbd_multi_usrcfg_custom.o)
                0x0040026c                usbcustom_multidev_cfg_end
 .rodata.usbcustom_multidev_strdesc.str1.1
                0x0040028e        0x8 ../../../../../../../PLAT/gccout/ec618_0h00/ap/bootloader/lib/libdriver.a(usbd_multi_usrcfg_custom.o)
 .text.usbcustom_multidev_strdesc
                0x00400296       0x22 ../../../../../../../PLAT/gccout/ec618_0h00/ap/bootloader/lib/libdriver.a(usbd_multi_usrcfg_custom.o)
                0x00400296                usbcustom_multidev_strdesc
 .text.usbcustom_multidev_cmndesc
                0x004002b8       0x3c ../../../../../../../PLAT/gccout/ec618_0h00/ap/bootloader/lib/libdriver.a(usbd_multi_usrcfg_custom.o)
                0x004002b8                usbcustom_multidev_cmndesc
 .text.usbcustom_multidev_ctrl_proc
                0x004002f4        0xc ../../../../../../../PLAT/gccout/ec618_0h00/ap/bootloader/lib/libdriver.a(usbd_multi_usrcfg_custom.o)
                0x004002f4                usbcustom_multidev_ctrl_proc
 .rodata.str1.1
                0x00400300       0x31 ../../../../../../../PLAT/gccout/ec618_0h00/ap/bootloader/lib/libdriver.a(usbd_multi_usrcfg_custom.o)
 *fill*         0x00400331        0x3 
 .rodata.CSWTCH.16
                0x00400334       0x18 ../../../../../../../PLAT/gccout/ec618_0h00/ap/bootloader/lib/libdriver.a(usbd_multi_usrcfg_custom.o)
 .rodata.epin_remap_custom_tbl
                0x0040034c        0xd ../../../../../../../PLAT/gccout/ec618_0h00/ap/bootloader/lib/libdriver.a(usbd_multi_usrcfg_custom.o)
                0x0040034c                epin_remap_custom_tbl
 .rodata.epout_remap_custom_tbl
                0x00400359        0xd ../../../../../../../PLAT/gccout/ec618_0h00/ap/bootloader/lib/libdriver.a(usbd_multi_usrcfg_custom.o)
                0x00400359                epout_remap_custom_tbl
 .text.vcomdbg_hex
                0x00400366       0x26 ../../../../../../../PLAT/gccout/ec618_0h00/ap/bootloader/lib/libdriver.a(usb_bl_api.o)
                0x00400366                vcomdbg_hex
 .text.vcomdbg_str
                0x0040038c       0x12 ../../../../../../../PLAT/gccout/ec618_0h00/ap/bootloader/lib/libdriver.a(usb_bl_api.o)
                0x0040038c                vcomdbg_str
 .rodata.vcomdbg_str_and_hex.str1.1
                0x0040039e       0x31 ../../../../../../../PLAT/gccout/ec618_0h00/ap/bootloader/lib/libdriver.a(usb_bl_api.o)
                                  0x3 (size before relaxing)
 .text.vcomdbg_str_and_hex
                0x0040039e       0x1e ../../../../../../../PLAT/gccout/ec618_0h00/ap/bootloader/lib/libdriver.a(usb_bl_api.o)
                0x0040039e                vcomdbg_str_and_hex
 .text.vcom_app_delay
                0x004003bc       0x2c ../../../../../../../PLAT/gccout/ec618_0h00/ap/bootloader/lib/libdriver.a(usb_bl_api.o)
                0x004003bc                vcom_app_delay
 .rodata.vcom_app_send_proc.str1.1
                0x004003e8       0x7a ../../../../../../../PLAT/gccout/ec618_0h00/ap/bootloader/lib/libdriver.a(usb_bl_api.o)
 .text.vcom_app_send_proc
                0x00400462       0xb8 ../../../../../../../PLAT/gccout/ec618_0h00/ap/bootloader/lib/libdriver.a(usb_bl_api.o)
                0x00400462                vcom_app_send_proc
 .text.usbd_clsdev_bind_func
                0x0040051a       0x2e ../../../../../../../PLAT/prebuild/PLAT/lib/gcc/libusbbl_priv.a(usbd_clsdev.o)
                0x0040051a                usbd_clsdev_bind_func
 .text.usbd_clsdev_unbind_func
                0x00400548       0x2c ../../../../../../../PLAT/prebuild/PLAT/lib/gcc/libusbbl_priv.a(usbd_clsdev.o)
                0x00400548                usbd_clsdev_unbind_func
 .text.usbd_clsdev_earlyinit
                0x00400574       0x9e ../../../../../../../PLAT/prebuild/PLAT/lib/gcc/libusbbl_priv.a(usbd_clsdev.o)
                0x00400574                usbd_clsdev_earlyinit
 .text.usbd_clsdev_terminate
                0x00400612       0x7a ../../../../../../../PLAT/prebuild/PLAT/lib/gcc/libusbbl_priv.a(usbd_clsdev.o)
                0x00400612                usbd_clsdev_terminate
 .text.usbd_func_retwkup_restore
                0x0040068c       0x24 ../../../../../../../PLAT/prebuild/PLAT/lib/gcc/libusbbl_priv.a(usbd_clsdev.o)
                0x0040068c                usbd_func_retwkup_restore
 .text.usbd_clsdev_retwkup_restore
                0x004006b0       0x2a ../../../../../../../PLAT/prebuild/PLAT/lib/gcc/libusbbl_priv.a(usbd_clsdev.o)
                0x004006b0                usbd_clsdev_retwkup_restore
 .text.usbd_multi_get_string_byid
                0x004006da       0x22 ../../../../../../../PLAT/prebuild/PLAT/lib/gcc/libusbbl_priv.a(usbd_funclib.o)
                0x004006da                usbd_multi_get_string_byid
 .text.list_insert_before.constprop.0
                0x004006fc       0x1a ../../../../../../../PLAT/prebuild/PLAT/lib/gcc/libusbbl_priv.a(usbd_funclib.o)
 .text.list_init.constprop.0
                0x00400716       0x12 ../../../../../../../PLAT/prebuild/PLAT/lib/gcc/libusbbl_priv.a(usbd_funclib.o)
 .text.usbd_glb_info_init
                0x00400728       0x2e ../../../../../../../PLAT/prebuild/PLAT/lib/gcc/libusbbl_priv.a(usbd_funclib.o)
                0x00400728                usbd_glb_info_init
 .text.usbd_early_init_finsih
                0x00400756        0xe ../../../../../../../PLAT/prebuild/PLAT/lib/gcc/libusbbl_priv.a(usbd_funclib.o)
                0x00400756                usbd_early_init_finsih
 .text.usbd_interface_id
                0x00400764       0x16 ../../../../../../../PLAT/prebuild/PLAT/lib/gcc/libusbbl_priv.a(usbd_funclib.o)
                0x00400764                usbd_interface_id
 .text.usbd_string_id
                0x0040077a       0x18 ../../../../../../../PLAT/prebuild/PLAT/lib/gcc/libusbbl_priv.a(usbd_funclib.o)
                0x0040077a                usbd_string_id
 .text.usbd_multi_strings_add_node
                0x00400792        0x4 ../../../../../../../PLAT/prebuild/PLAT/lib/gcc/libusbbl_priv.a(usbd_funclib.o)
                0x00400792                usbd_multi_strings_add_node
 .text.usbd_multi_lib_alloc_ep
                0x00400796       0x48 ../../../../../../../PLAT/prebuild/PLAT/lib/gcc/libusbbl_priv.a(usbd_funclib.o)
                0x00400796                usbd_multi_lib_alloc_ep
 .text.usbd_multi_ep_id_map
                0x004007de       0x10 ../../../../../../../PLAT/prebuild/PLAT/lib/gcc/libusbbl_priv.a(usbd_funclib.o)
                0x004007de                usbd_multi_ep_id_map
 .text.usbd_multi_alloc_ep
                0x004007ee       0x1a ../../../../../../../PLAT/prebuild/PLAT/lib/gcc/libusbbl_priv.a(usbd_funclib.o)
                0x004007ee                usbd_multi_alloc_ep
 .text.match_epinfo_bitmap
                0x00400808        0x8 ../../../../../../../PLAT/prebuild/PLAT/lib/gcc/libusbbl_priv.a(usbd_funclib.o)
                0x00400808                match_epinfo_bitmap
 .text.usbd_multi_loadrec_ep_maxpkt
                0x00400810       0x3c ../../../../../../../PLAT/prebuild/PLAT/lib/gcc/libusbbl_priv.a(usbd_funclib.o)
                0x00400810                usbd_multi_loadrec_ep_maxpkt
 .text.usbd_multi_ep_to_funcidx
                0x0040084c       0x34 ../../../../../../../PLAT/prebuild/PLAT/lib/gcc/libusbbl_priv.a(usbd_funclib.o)
                0x0040084c                usbd_multi_ep_to_funcidx
 .text.usbd_multi_func_get_ep_bitmap
                0x00400880       0x72 ../../../../../../../PLAT/prebuild/PLAT/lib/gcc/libusbbl_priv.a(usbd_funclib.o)
                0x00400880                usbd_multi_func_get_ep_bitmap
 .text.usbd_multi_get_usb_func_tblentry
                0x004008f2       0x14 ../../../../../../../PLAT/prebuild/PLAT/lib/gcc/libusbbl_priv.a(usbd_funclib.o)
                0x004008f2                usbd_multi_get_usb_func_tblentry
 .text.usbd_multi_update_bindinfo
                0x00400906      0x140 ../../../../../../../PLAT/prebuild/PLAT/lib/gcc/libusbbl_priv.a(usbd_funclib.o)
                0x00400906                usbd_multi_update_bindinfo
 .text.usbd_multi_get_intf_num
                0x00400a46       0x2c ../../../../../../../PLAT/prebuild/PLAT/lib/gcc/libusbbl_priv.a(usbd_funclib.o)
                0x00400a46                usbd_multi_get_intf_num
 .text.usbd_multi_usb_func_from_intf
                0x00400a72       0x32 ../../../../../../../PLAT/prebuild/PLAT/lib/gcc/libusbbl_priv.a(usbd_funclib.o)
                0x00400a72                usbd_multi_usb_func_from_intf
 .text.usbd_multi_usb_func_from_ep
                0x00400aa4       0x6e ../../../../../../../PLAT/prebuild/PLAT/lib/gcc/libusbbl_priv.a(usbd_funclib.o)
                0x00400aa4                usbd_multi_usb_func_from_ep
 .text.usbd_multi_usb_func_find_nm_id
                0x00400b12       0x2c ../../../../../../../PLAT/prebuild/PLAT/lib/gcc/libusbbl_priv.a(usbd_funclib.o)
                0x00400b12                usbd_multi_usb_func_find_nm_id
 .text.usbd_multi_func_idx_init
                0x00400b3e       0x1a ../../../../../../../PLAT/prebuild/PLAT/lib/gcc/libusbbl_priv.a(usbd_funclib.o)
                0x00400b3e                usbd_multi_func_idx_init
 .text.usbc_register_ep_type
                0x00400b58       0x40 ../../../../../../../PLAT/prebuild/PLAT/lib/gcc/libusbbl_priv.a(usbd_funclib.o)
                0x00400b58                usbc_register_ep_type
 .text.usbc_get_ep_type
                0x00400b98       0x2e ../../../../../../../PLAT/prebuild/PLAT/lib/gcc/libusbbl_priv.a(usbd_funclib.o)
                0x00400b98                usbc_get_ep_type
 .text.rndis_iso_in_incomplete
                0x00400bc6        0x4 ../../../../../../../PLAT/prebuild/PLAT/lib/gcc/libusbbl_priv.a(usbd_multi.o)
 .text.rndis_iso_out_incomplete
                0x00400bca        0x4 ../../../../../../../PLAT/prebuild/PLAT/lib/gcc/libusbbl_priv.a(usbd_multi.o)
 .text.usbd_multi_sof
                0x00400bce       0x26 ../../../../../../../PLAT/prebuild/PLAT/lib/gcc/libusbbl_priv.a(usbd_multi.o)
 .text.usbd_multi_deinit
                0x00400bf4       0x2e ../../../../../../../PLAT/prebuild/PLAT/lib/gcc/libusbbl_priv.a(usbd_multi.o)
 .text.usbd_multi_init
                0x00400c22       0x2e ../../../../../../../PLAT/prebuild/PLAT/lib/gcc/libusbbl_priv.a(usbd_multi.o)
 .text.usbd_multi_reset
                0x00400c50       0x2c ../../../../../../../PLAT/prebuild/PLAT/lib/gcc/libusbbl_priv.a(usbd_multi.o)
 .text.usbd_multi_data_out
                0x00400c7c       0x2a ../../../../../../../PLAT/prebuild/PLAT/lib/gcc/libusbbl_priv.a(usbd_multi.o)
 .text.usbd_multi_data_in
                0x00400ca6       0x2a ../../../../../../../PLAT/prebuild/PLAT/lib/gcc/libusbbl_priv.a(usbd_multi.o)
 .text.usbd_multi_setup
                0x00400cd0       0x36 ../../../../../../../PLAT/prebuild/PLAT/lib/gcc/libusbbl_priv.a(usbd_multi.o)
 .text.usbd_multi_static_retwkup_restore
                0x00400d06        0x4 ../../../../../../../PLAT/prebuild/PLAT/lib/gcc/libusbbl_priv.a(usbd_multi.o)
 .text.usbd_multi_static_terminate
                0x00400d0a        0x4 ../../../../../../../PLAT/prebuild/PLAT/lib/gcc/libusbbl_priv.a(usbd_multi.o)
 .text.usbd_multi_static_earlyinit
                0x00400d0e        0x4 ../../../../../../../PLAT/prebuild/PLAT/lib/gcc/libusbbl_priv.a(usbd_multi.o)
 .text.usbd_multi_fill_configdesc.constprop.0.isra.0
                0x00400d12       0xa6 ../../../../../../../PLAT/prebuild/PLAT/lib/gcc/libusbbl_priv.a(usbd_multi.o)
 .text.usbd_multi_get_cfg
                0x00400db8       0x1c ../../../../../../../PLAT/prebuild/PLAT/lib/gcc/libusbbl_priv.a(usbd_multi.o)
 .text.usbd_multi_fill_otherconfigdesc.constprop.0.isra.0
                0x00400dd4       0xa6 ../../../../../../../PLAT/prebuild/PLAT/lib/gcc/libusbbl_priv.a(usbd_multi.o)
 .text.usbd_multi_get_othercfg
                0x00400e7a       0x1c ../../../../../../../PLAT/prebuild/PLAT/lib/gcc/libusbbl_priv.a(usbd_multi.o)
 .text.GetSetupReqPtr
                0x00400e96        0xa ../../../../../../../PLAT/prebuild/PLAT/lib/gcc/libusbbl_priv.a(usbd_multi.o)
                0x00400e96                GetSetupReqPtr
 .text.usbd_multi_ep0_dataout_stage_comp
                0x00400ea0       0x24 ../../../../../../../PLAT/prebuild/PLAT/lib/gcc/libusbbl_priv.a(usbd_multi.o)
 .text.usbd_multi_ep0_datain_stage_comp
                0x00400ec4       0x4a ../../../../../../../PLAT/prebuild/PLAT/lib/gcc/libusbbl_priv.a(usbd_multi.o)
 .text.usbd_multi_get_ulog_cls
                0x00400f0e       0x1c ../../../../../../../PLAT/prebuild/PLAT/lib/gcc/libusbbl_priv.a(usbd_multi_usrcfg_lib.o)
                0x00400f0e                usbd_multi_get_ulog_cls
 .text.usbd_multi_set_ulog_cls
                0x00400f2a       0x22 ../../../../../../../PLAT/prebuild/PLAT/lib/gcc/libusbbl_priv.a(usbd_multi_usrcfg_lib.o)
                0x00400f2a                usbd_multi_set_ulog_cls
 .text.CheckUSBNetEnumDis
                0x00400f4c        0x6 ../../../../../../../PLAT/prebuild/PLAT/lib/gcc/libusbbl_priv.a(usbd_multi_usrcfg_lib.o)
                0x00400f4c                CheckUSBNetEnumDis
 .text.CheckUSBNetEnumMux
                0x00400f52        0x6 ../../../../../../../PLAT/prebuild/PLAT/lib/gcc/libusbbl_priv.a(usbd_multi_usrcfg_lib.o)
                0x00400f52                CheckUSBNetEnumMux
 .text.usbd_mdev_load_reset
                0x00400f58       0x4e ../../../../../../../PLAT/prebuild/PLAT/lib/gcc/libusbbl_priv.a(usbd_multi_usrcfg_lib.o)
                0x00400f58                usbd_mdev_load_reset
 .text.usbd_mdev_loadelem_swap
                0x00400fa6       0x18 ../../../../../../../PLAT/prebuild/PLAT/lib/gcc/libusbbl_priv.a(usbd_multi_usrcfg_lib.o)
                0x00400fa6                usbd_mdev_loadelem_swap
 .text.usbd_mdev_func_fill
                0x00400fbe       0x84 ../../../../../../../PLAT/prebuild/PLAT/lib/gcc/libusbbl_priv.a(usbd_multi_usrcfg_lib.o)
                0x00400fbe                usbd_mdev_func_fill
 .text.usbd_mdev_ccinst_fill
                0x00401042       0xb6 ../../../../../../../PLAT/prebuild/PLAT/lib/gcc/libusbbl_priv.a(usbd_multi_usrcfg_lib.o)
                0x00401042                usbd_mdev_ccinst_fill
 .rodata.usbd_mdev_custom_filter_fill.str1.1
                0x004010f8        0xa ../../../../../../../PLAT/prebuild/PLAT/lib/gcc/libusbbl_priv.a(usbd_multi_usrcfg_lib.o)
 .text.usbd_mdev_custom_filter_fill
                0x004010f8       0xf2 ../../../../../../../PLAT/prebuild/PLAT/lib/gcc/libusbbl_priv.a(usbd_multi_usrcfg_lib.o)
                0x004010f8                usbd_mdev_custom_filter_fill
 .text.usbd_mdev_load_update
                0x004011ea      0x104 ../../../../../../../PLAT/prebuild/PLAT/lib/gcc/libusbbl_priv.a(usbd_multi_usrcfg_lib.o)
                0x004011ea                usbd_mdev_load_update
 .text.usbd_mdev_load_end
                0x004012ee       0x30 ../../../../../../../PLAT/prebuild/PLAT/lib/gcc/libusbbl_priv.a(usbd_multi_usrcfg_lib.o)
                0x004012ee                usbd_mdev_load_end
 .text.usbd_mdev_clstype_fill
                0x0040131e       0x74 ../../../../../../../PLAT/prebuild/PLAT/lib/gcc/libusbbl_priv.a(usbd_multi_usrcfg_lib.o)
                0x0040131e                usbd_mdev_clstype_fill
 .text.usbd_mdev_bind_update
                0x00401392       0x26 ../../../../../../../PLAT/prebuild/PLAT/lib/gcc/libusbbl_priv.a(usbd_multi_usrcfg_lib.o)
                0x00401392                usbd_mdev_bind_update
 .text.usbd_multi_lib_usrcfg_global_init
                0x004013b8       0x54 ../../../../../../../PLAT/prebuild/PLAT/lib/gcc/libusbbl_priv.a(usbd_multi_usrcfg_lib.o)
                0x004013b8                usbd_multi_lib_usrcfg_global_init
 .text.usbd_multi_lib_usrcfg_clstype_bind
                0x0040140c       0x16 ../../../../../../../PLAT/prebuild/PLAT/lib/gcc/libusbbl_priv.a(usbd_multi_usrcfg_lib.o)
                0x0040140c                usbd_multi_lib_usrcfg_clstype_bind
 .text.usbd_multi_lib_strdesc_cb
                0x00401422        0xc ../../../../../../../PLAT/prebuild/PLAT/lib/gcc/libusbbl_priv.a(usbd_multi_usrcfg_lib.o)
                0x00401422                usbd_multi_lib_strdesc_cb
 .text.usbd_multi_lib_cmndesc_cb
                0x0040142e        0xc ../../../../../../../PLAT/prebuild/PLAT/lib/gcc/libusbbl_priv.a(usbd_multi_usrcfg_lib.o)
                0x0040142e                usbd_multi_lib_cmndesc_cb
 .text.usbd_multi_lib_clsdev_cb
                0x0040143a        0xc ../../../../../../../PLAT/prebuild/PLAT/lib/gcc/libusbbl_priv.a(usbd_multi_usrcfg_lib.o)
                0x0040143a                usbd_multi_lib_clsdev_cb
 .text.usbd_multi_lib_get_func_clstype
                0x00401446       0x30 ../../../../../../../PLAT/prebuild/PLAT/lib/gcc/libusbbl_priv.a(usbd_multi_usrcfg_lib.o)
                0x00401446                usbd_multi_lib_get_func_clstype
 .text.usbd_multi_lib_set_strdesc_para
                0x00401476       0x1c ../../../../../../../PLAT/prebuild/PLAT/lib/gcc/libusbbl_priv.a(usbd_multi_usrcfg_lib.o)
                0x00401476                usbd_multi_lib_set_strdesc_para
 .text.usbd_multi_lib_set_cmndesc_para
                0x00401492       0x1a ../../../../../../../PLAT/prebuild/PLAT/lib/gcc/libusbbl_priv.a(usbd_multi_usrcfg_lib.o)
                0x00401492                usbd_multi_lib_set_cmndesc_para
 .text.usbd_multi_libcall_strdesc
                0x004014ac        0x4 ../../../../../../../PLAT/prebuild/PLAT/lib/gcc/libusbbl_priv.a(usbd_multi_usrcfg_lib.o)
                0x004014ac                usbd_multi_libcall_strdesc
 .text.usbd_multi_libcall_cmndesc
                0x004014b0       0x10 ../../../../../../../PLAT/prebuild/PLAT/lib/gcc/libusbbl_priv.a(usbd_multi_usrcfg_lib.o)
                0x004014b0                usbd_multi_libcall_cmndesc
 .text.usbd_multi_libcall_clsdev_ctrl
                0x004014c0       0x38 ../../../../../../../PLAT/prebuild/PLAT/lib/gcc/libusbbl_priv.a(usbd_multi_usrcfg_lib.o)
                0x004014c0                usbd_multi_libcall_clsdev_ctrl
 .rodata.str1.1
                0x004014f8       0x18 ../../../../../../../PLAT/prebuild/PLAT/lib/gcc/libusbbl_priv.a(usbd_multi_usrcfg_lib.o)
 .rodata.t_multidev_map_res_info
                0x004014f8       0x54 ../../../../../../../PLAT/prebuild/PLAT/lib/gcc/libusbbl_priv.a(usbd_multi_usrcfg_lib.o)
                0x004014f8                t_multidev_map_res_info
 .text.get_dev_descriptor
                0x0040154c        0xe ../../../../../../../PLAT/prebuild/PLAT/lib/gcc/libusbbl_priv.a(usbd_proc_cb_lib.o)
                0x0040154c                get_dev_descriptor
 .text.get_lang_id_desc
                0x0040155a        0xe ../../../../../../../PLAT/prebuild/PLAT/lib/gcc/libusbbl_priv.a(usbd_proc_cb_lib.o)
                0x0040155a                get_lang_id_desc
 .text.get_qulifier_desc
                0x00401568        0xe ../../../../../../../PLAT/prebuild/PLAT/lib/gcc/libusbbl_priv.a(usbd_proc_cb_lib.o)
                0x00401568                get_qulifier_desc
 .rodata.get_product_str_desc.str1.1
                0x00401576       0x10 ../../../../../../../PLAT/prebuild/PLAT/lib/gcc/libusbbl_priv.a(usbd_proc_cb_lib.o)
 .text.get_product_str_desc
                0x00401576       0x36 ../../../../../../../PLAT/prebuild/PLAT/lib/gcc/libusbbl_priv.a(usbd_proc_cb_lib.o)
                0x00401576                get_product_str_desc
 .text.get_misc_str_desc
                0x004015ac       0x34 ../../../../../../../PLAT/prebuild/PLAT/lib/gcc/libusbbl_priv.a(usbd_proc_cb_lib.o)
                0x004015ac                get_misc_str_desc
 .text.get_manufacture_str_desc
                0x004015e0       0x1c ../../../../../../../PLAT/prebuild/PLAT/lib/gcc/libusbbl_priv.a(usbd_proc_cb_lib.o)
                0x004015e0                get_manufacture_str_desc
 .rodata.get_ser_str_desc.str1.1
                0x004015fc        0xd ../../../../../../../PLAT/prebuild/PLAT/lib/gcc/libusbbl_priv.a(usbd_proc_cb_lib.o)
 .text.get_ser_str_desc
                0x004015fc       0x36 ../../../../../../../PLAT/prebuild/PLAT/lib/gcc/libusbbl_priv.a(usbd_proc_cb_lib.o)
                0x004015fc                get_ser_str_desc
 .rodata.get_cfg_str_desc.str1.1
                0x00401632        0xd ../../../../../../../PLAT/prebuild/PLAT/lib/gcc/libusbbl_priv.a(usbd_proc_cb_lib.o)
 .text.get_cfg_str_desc
                0x00401632       0x36 ../../../../../../../PLAT/prebuild/PLAT/lib/gcc/libusbbl_priv.a(usbd_proc_cb_lib.o)
                0x00401632                get_cfg_str_desc
 .rodata.get_intf_str_desc.str1.1
                0x00401668       0x10 ../../../../../../../PLAT/prebuild/PLAT/lib/gcc/libusbbl_priv.a(usbd_proc_cb_lib.o)
 .text.get_intf_str_desc
                0x00401668       0x36 ../../../../../../../PLAT/prebuild/PLAT/lib/gcc/libusbbl_priv.a(usbd_proc_cb_lib.o)
                0x00401668                get_intf_str_desc
 .text.get_udev_desc_cb_ops
                0x0040169e        0xa ../../../../../../../PLAT/prebuild/PLAT/lib/gcc/libusbbl_priv.a(usbd_proc_cb_lib.o)
                0x0040169e                get_udev_desc_cb_ops
 .text.get_udev_notify_cb_ops
                0x004016a8        0xa ../../../../../../../PLAT/prebuild/PLAT/lib/gcc/libusbbl_priv.a(usbd_proc_cb_lib.o)
                0x004016a8                get_udev_notify_cb_ops
 .text.usbd_register_misc_str_func
                0x004016b2        0xc ../../../../../../../PLAT/prebuild/PLAT/lib/gcc/libusbbl_priv.a(usbd_proc_cb_lib.o)
                0x004016b2                usbd_register_misc_str_func
 .text.get_cfg_remote_wkup_bit
                0x004016be        0x4 ../../../../../../../PLAT/prebuild/PLAT/lib/gcc/libusbbl_priv.a(usbd_proc_cb_lib.o)
                0x004016be                get_cfg_remote_wkup_bit
 .text.get_cfg_self_powered_bit
                0x004016c2        0x4 ../../../../../../../PLAT/prebuild/PLAT/lib/gcc/libusbbl_priv.a(usbd_proc_cb_lib.o)
                0x004016c2                get_cfg_self_powered_bit
 .text.get_cfg_max_power
                0x004016c6        0x4 ../../../../../../../PLAT/prebuild/PLAT/lib/gcc/libusbbl_priv.a(usbd_proc_cb_lib.o)
                0x004016c6                get_cfg_max_power
 .text.SW32K_Tick_Get_CurrentVal
                0x004016ca        0xa ../../../../../../../PLAT/prebuild/PLAT/lib/gcc/libusbbl_priv.a(usb_bl_cmsis_support.o)
 .text.check_common_timeout
                0x004016d4       0x26 ../../../../../../../PLAT/prebuild/PLAT/lib/gcc/libusbbl_priv.a(usb_bl_cmsis_support.o)
                0x004016d4                check_common_timeout
 .text.raw_event_flags_iserror
                0x004016fa        0xc ../../../../../../../PLAT/prebuild/PLAT/lib/gcc/libusbbl_priv.a(usb_bl_cmsis_support.o)
                0x004016fa                raw_event_flags_iserror
 .text.raw_set_event_flags
                0x00401706       0x18 ../../../../../../../PLAT/prebuild/PLAT/lib/gcc/libusbbl_priv.a(usb_bl_cmsis_support.o)
                0x00401706                raw_set_event_flags
 .text.raw_clear_event_flags
                0x0040171e       0x1a ../../../../../../../PLAT/prebuild/PLAT/lib/gcc/libusbbl_priv.a(usb_bl_cmsis_support.o)
                0x0040171e                raw_clear_event_flags
 .text.raw_get_event_flags
                0x00401738        0xe ../../../../../../../PLAT/prebuild/PLAT/lib/gcc/libusbbl_priv.a(usb_bl_cmsis_support.o)
                0x00401738                raw_get_event_flags
 .text.raw_wait_event_flags
                0x00401746       0x98 ../../../../../../../PLAT/prebuild/PLAT/lib/gcc/libusbbl_priv.a(usb_bl_cmsis_support.o)
                0x00401746                raw_wait_event_flags
 .text.usbc_ctrl_clr_ep0stg_notcmpl
                0x004017de       0x12 ../../../../../../../PLAT/prebuild/PLAT/lib/gcc/libusbbl_priv.a(usbc_ctrl.o)
 .text.usbc_ctrl_get_ep0stg_notcmpl
                0x004017f0       0x10 ../../../../../../../PLAT/prebuild/PLAT/lib/gcc/libusbbl_priv.a(usbc_ctrl.o)
 .text.usbc_ctrl_enable_common_intr
                0x00401800       0x1c ../../../../../../../PLAT/prebuild/PLAT/lib/gcc/libusbbl_priv.a(usbc_ctrl.o)
 .text.usbc_ctrl_soft_reset.isra.0
                0x0040181c       0x68 ../../../../../../../PLAT/prebuild/PLAT/lib/gcc/libusbbl_priv.a(usbc_ctrl.o)
 .text.usbc_ctrl_soft_disconnect
                0x00401884       0x14 ../../../../../../../PLAT/prebuild/PLAT/lib/gcc/libusbbl_priv.a(usbc_ctrl.o)
                0x00401884                usbc_ctrl_soft_disconnect
 .text.usbc_ctrl_ep_wr_pkt
                0x00401898       0x2e ../../../../../../../PLAT/prebuild/PLAT/lib/gcc/libusbbl_priv.a(usbc_ctrl.o)
                0x00401898                usbc_ctrl_ep_wr_pkt
 .text.usbc_ctrl_rd_pkt
                0x004018c6       0x24 ../../../../../../../PLAT/prebuild/PLAT/lib/gcc/libusbbl_priv.a(usbc_ctrl.o)
                0x004018c6                usbc_ctrl_rd_pkt
 .text.usbc_ctrl_initpara_by_opts
                0x004018ea       0x4e ../../../../../../../PLAT/prebuild/PLAT/lib/gcc/libusbbl_priv.a(usbc_ctrl.o)
                0x004018ea                usbc_ctrl_initpara_by_opts
 .text.usbc_ctrl_core_init
                0x00401938       0x80 ../../../../../../../PLAT/prebuild/PLAT/lib/gcc/libusbbl_priv.a(usbc_ctrl.o)
                0x00401938                usbc_ctrl_core_init
 .text.usbc_ctrl_flush_txfifo
                0x004019b8       0x42 ../../../../../../../PLAT/prebuild/PLAT/lib/gcc/libusbbl_priv.a(usbc_ctrl.o)
                0x004019b8                usbc_ctrl_flush_txfifo
 .text.usbc_ctrl_flush_rxfifo
                0x004019fa       0x3a ../../../../../../../PLAT/prebuild/PLAT/lib/gcc/libusbbl_priv.a(usbc_ctrl.o)
                0x004019fa                usbc_ctrl_flush_rxfifo
 .text.usbc_ctrl_get_mode
                0x00401a34        0xc ../../../../../../../PLAT/prebuild/PLAT/lib/gcc/libusbbl_priv.a(usbc_ctrl.o)
                0x00401a34                usbc_ctrl_get_mode
 .text.usbc_ctrl_is_dev_mode
                0x00401a40        0xe ../../../../../../../PLAT/prebuild/PLAT/lib/gcc/libusbbl_priv.a(usbc_ctrl.o)
                0x00401a40                usbc_ctrl_is_dev_mode
 .text.usbc_ctrl_set_devspeed
                0x00401a4e       0x12 ../../../../../../../PLAT/prebuild/PLAT/lib/gcc/libusbbl_priv.a(usbc_ctrl.o)
                0x00401a4e                usbc_ctrl_set_devspeed
 .text.usbc_ctrl_cfg_fifo_hs_auto
                0x00401a60       0x7e ../../../../../../../PLAT/prebuild/PLAT/lib/gcc/libusbbl_priv.a(usbc_ctrl.o)
                0x00401a60                usbc_ctrl_cfg_fifo_hs_auto
 .text.usbc_ctrl_enable_dev_interrupts
                0x00401ade       0x42 ../../../../../../../PLAT/prebuild/PLAT/lib/gcc/libusbbl_priv.a(usbc_ctrl.o)
                0x00401ade                usbc_ctrl_enable_dev_interrupts
 .text.usbc_ctrl_core_dev_init
                0x00401b20       0xf8 ../../../../../../../PLAT/prebuild/PLAT/lib/gcc/libusbbl_priv.a(usbc_ctrl.o)
                0x00401b20                usbc_ctrl_core_dev_init
 .text.usbc_ctrl_get_dev_speed
                0x00401c18       0x1e ../../../../../../../PLAT/prebuild/PLAT/lib/gcc/libusbbl_priv.a(usbc_ctrl.o)
                0x00401c18                usbc_ctrl_get_dev_speed
 .text.usbc_ctrl_ep0_activate
                0x00401c36       0x30 ../../../../../../../PLAT/prebuild/PLAT/lib/gcc/libusbbl_priv.a(usbc_ctrl.o)
                0x00401c36                usbc_ctrl_ep0_activate
 .text.usbc_ctrl_ep_activate
                0x00401c66       0x86 ../../../../../../../PLAT/prebuild/PLAT/lib/gcc/libusbbl_priv.a(usbc_ctrl.o)
                0x00401c66                usbc_ctrl_ep_activate
 .text.usbc_ctrl_ep_deactivate
                0x00401cec       0x3e ../../../../../../../PLAT/prebuild/PLAT/lib/gcc/libusbbl_priv.a(usbc_ctrl.o)
                0x00401cec                usbc_ctrl_ep_deactivate
 .text.usbc_ctrl_ep_start_transfer
                0x00401d2a      0x128 ../../../../../../../PLAT/prebuild/PLAT/lib/gcc/libusbbl_priv.a(usbc_ctrl.o)
                0x00401d2a                usbc_ctrl_ep_start_transfer
 .text.usbc_ctrl_ep0_start_transfer
                0x00401e52       0xd2 ../../../../../../../PLAT/prebuild/PLAT/lib/gcc/libusbbl_priv.a(usbc_ctrl.o)
                0x00401e52                usbc_ctrl_ep0_start_transfer
 .text.usbc_ctrl_ep_set_stall
                0x00401f24       0x44 ../../../../../../../PLAT/prebuild/PLAT/lib/gcc/libusbbl_priv.a(usbc_ctrl.o)
                0x00401f24                usbc_ctrl_ep_set_stall
 .text.usbc_ctrl_ep_clear_stall
                0x00401f68       0x44 ../../../../../../../PLAT/prebuild/PLAT/lib/gcc/libusbbl_priv.a(usbc_ctrl.o)
                0x00401f68                usbc_ctrl_ep_clear_stall
 .text.usbc_ctrl_ep0_lowlvl_outstart
                0x00401fac       0x36 ../../../../../../../PLAT/prebuild/PLAT/lib/gcc/libusbbl_priv.a(usbc_ctrl.o)
                0x00401fac                usbc_ctrl_ep0_lowlvl_outstart
 .text.usbc_ctrl_ep0_norm_outstart
                0x00401fe2       0x18 ../../../../../../../PLAT/prebuild/PLAT/lib/gcc/libusbbl_priv.a(usbc_ctrl.o)
                0x00401fe2                usbc_ctrl_ep0_norm_outstart
 .text.usbc_ctrl_ep0_stagstat_outstart
                0x00401ffa        0x4 ../../../../../../../PLAT/prebuild/PLAT/lib/gcc/libusbbl_priv.a(usbc_ctrl.o)
                0x00401ffa                usbc_ctrl_ep0_stagstat_outstart
 .text.usbc_ctrl_clr_ep0stg_notcmpl
                0x00401ffe       0x12 ../../../../../../../PLAT/prebuild/PLAT/lib/gcc/libusbbl_priv.a(usbc_dev_if.o)
 .text.usbc_ctrl_set_devstat
                0x00402010        0xc ../../../../../../../PLAT/prebuild/PLAT/lib/gcc/libusbbl_priv.a(usbc_dev_if.o)
                0x00402010                usbc_ctrl_set_devstat
 .text.usbc_ctrl_get_devstat
                0x0040201c        0xc ../../../../../../../PLAT/prebuild/PLAT/lib/gcc/libusbbl_priv.a(usbc_dev_if.o)
                0x0040201c                usbc_ctrl_get_devstat
 .text.usbc_ctrl_dev_init
                0x00402028       0xb4 ../../../../../../../PLAT/prebuild/PLAT/lib/gcc/libusbbl_priv.a(usbc_dev_if.o)
                0x00402028                usbc_ctrl_dev_init
 .text.usbc_devif_ep_on
                0x004020dc       0x48 ../../../../../../../PLAT/prebuild/PLAT/lib/gcc/libusbbl_priv.a(usbc_dev_if.o)
                0x004020dc                usbc_devif_ep_on
 .text.usbc_devif_ep_off
                0x00402124       0x32 ../../../../../../../PLAT/prebuild/PLAT/lib/gcc/libusbbl_priv.a(usbc_dev_if.o)
                0x00402124                usbc_devif_ep_off
 .text.usbc_devif_prepare_ep_rxtran
                0x00402156       0x4a ../../../../../../../PLAT/prebuild/PLAT/lib/gcc/libusbbl_priv.a(usbc_dev_if.o)
                0x00402156                usbc_devif_prepare_ep_rxtran
 .text.usbc_devif_ep_tx
                0x004021a0       0x4e ../../../../../../../PLAT/prebuild/PLAT/lib/gcc/libusbbl_priv.a(usbc_dev_if.o)
                0x004021a0                usbc_devif_ep_tx
 .text.usbc_devif_get_oep_xfercnt
                0x004021ee       0x14 ../../../../../../../PLAT/prebuild/PLAT/lib/gcc/libusbbl_priv.a(usbc_dev_if.o)
                0x004021ee                usbc_devif_get_oep_xfercnt
 .text.usbc_devif_get_iep_maxpkt
                0x00402202       0x14 ../../../../../../../PLAT/prebuild/PLAT/lib/gcc/libusbbl_priv.a(usbc_dev_if.o)
                0x00402202                usbc_devif_get_iep_maxpkt
 .text.usbc_devif_ep_stall
                0x00402216       0x3a ../../../../../../../PLAT/prebuild/PLAT/lib/gcc/libusbbl_priv.a(usbc_dev_if.o)
                0x00402216                usbc_devif_ep_stall
 .text.usbc_devif_ep_clear_stall
                0x00402250       0x3a ../../../../../../../PLAT/prebuild/PLAT/lib/gcc/libusbbl_priv.a(usbc_dev_if.o)
                0x00402250                usbc_devif_ep_clear_stall
 .text.usbc_ctrl_dev_set_addr
                0x0040228a       0x16 ../../../../../../../PLAT/prebuild/PLAT/lib/gcc/libusbbl_priv.a(usbc_dev_if.o)
                0x0040228a                usbc_ctrl_dev_set_addr
 .text.usbc_ctrl_is_ep0stg_statin
                0x004022a0       0x14 ../../../../../../../PLAT/prebuild/PLAT/lib/gcc/libusbbl_priv.a(usbc_int.o)
 .text.usbc_ctrl_is_ep0stg_statout
                0x004022b4       0x14 ../../../../../../../PLAT/prebuild/PLAT/lib/gcc/libusbbl_priv.a(usbc_int.o)
 .text.usbc_ctrl_clr_ep0stg_notcmpl
                0x004022c8       0x12 ../../../../../../../PLAT/prebuild/PLAT/lib/gcc/libusbbl_priv.a(usbc_int.o)
 .text.usbc_proc_save_gintsts
                0x004022da        0xe ../../../../../../../PLAT/prebuild/PLAT/lib/gcc/libusbbl_priv.a(usbc_int.o)
 .text.usbc_proc_sof_intr
                0x004022e8       0x1c ../../../../../../../PLAT/prebuild/PLAT/lib/gcc/libusbbl_priv.a(usbc_int.o)
 .text.usbc_proc_isoin_incompl_intr
                0x00402304       0x1e ../../../../../../../PLAT/prebuild/PLAT/lib/gcc/libusbbl_priv.a(usbc_int.o)
 .text.usbc_proc_isoout_incompl_intr
                0x00402322       0x1e ../../../../../../../PLAT/prebuild/PLAT/lib/gcc/libusbbl_priv.a(usbc_int.o)
 .text.usbc_proc_outep_intr
                0x00402340      0x15e ../../../../../../../PLAT/prebuild/PLAT/lib/gcc/libusbbl_priv.a(usbc_int.o)
 .text.usbc_proc_resume_intr
                0x0040249e       0x54 ../../../../../../../PLAT/prebuild/PLAT/lib/gcc/libusbbl_priv.a(usbc_int.o)
 .text.usbc_proc_suspend_intr
                0x004024f2       0x70 ../../../../../../../PLAT/prebuild/PLAT/lib/gcc/libusbbl_priv.a(usbc_int.o)
 .text.usbc_proc_rxstat_queue_level_intr
                0x00402562       0x94 ../../../../../../../PLAT/prebuild/PLAT/lib/gcc/libusbbl_priv.a(usbc_int.o)
 .text.usbc_proc_enum_done_intr
                0x004025f6       0x4e ../../../../../../../PLAT/prebuild/PLAT/lib/gcc/libusbbl_priv.a(usbc_int.o)
 .text.usbc_write_empty_txfifo_org.isra.0
                0x00402644       0xc2 ../../../../../../../PLAT/prebuild/PLAT/lib/gcc/libusbbl_priv.a(usbc_int.o)
 .text.usbc_write_empty_txfifo.isra.0
                0x00402706        0x4 ../../../../../../../PLAT/prebuild/PLAT/lib/gcc/libusbbl_priv.a(usbc_int.o)
 .text.usbc_proc_inep_intr
                0x0040270a      0x114 ../../../../../../../PLAT/prebuild/PLAT/lib/gcc/libusbbl_priv.a(usbc_int.o)
 .text.usbc_prepare_reset_flush_all_inep
                0x0040281e       0xde ../../../../../../../PLAT/prebuild/PLAT/lib/gcc/libusbbl_priv.a(usbc_int.o)
                0x0040281e                usbc_prepare_reset_flush_all_inep
 .text.usbc_proc_reset_intr
                0x004028fc       0xfe ../../../../../../../PLAT/prebuild/PLAT/lib/gcc/libusbbl_priv.a(usbc_int.o)
 .text.usbc_dev_int_handler
                0x004029fa       0xaa ../../../../../../../PLAT/prebuild/PLAT/lib/gcc/libusbbl_priv.a(usbc_int.o)
                0x004029fa                usbc_dev_int_handler
 .text.SysTick_Get_CurrentVal
                0x00402aa4        0x8 ../../../../../../../PLAT/prebuild/PLAT/lib/gcc/libusbbl_priv.a(usbc_trace.o)
 .text.usbc_enum_trace_record
                0x00402aac       0x5e ../../../../../../../PLAT/prebuild/PLAT/lib/gcc/libusbbl_priv.a(usbc_trace.o)
                0x00402aac                usbc_enum_trace_record
 .text.usbc_iepoep_trace_record
                0x00402b0a        0x2 ../../../../../../../PLAT/prebuild/PLAT/lib/gcc/libusbbl_priv.a(usbc_trace.o)
                0x00402b0a                usbc_iepoep_trace_record
 .text.usbd_iep_trace_wrtxfifo
                0x00402b0c        0x2 ../../../../../../../PLAT/prebuild/PLAT/lib/gcc/libusbbl_priv.a(usbc_trace.o)
                0x00402b0c                usbd_iep_trace_wrtxfifo
 .text.usbc_trace_setup
                0x00402b0e       0x64 ../../../../../../../PLAT/prebuild/PLAT/lib/gcc/libusbbl_priv.a(usbc_trace.o)
                0x00402b0e                usbc_trace_setup
 .text.usbc_trace_iep_xfer
                0x00402b72        0x2 ../../../../../../../PLAT/prebuild/PLAT/lib/gcc/libusbbl_priv.a(usbc_trace.o)
                0x00402b72                usbc_trace_iep_xfer
 .text.usbd_enum_tick_arr_record
                0x00402b74        0x2 ../../../../../../../PLAT/prebuild/PLAT/lib/gcc/libusbbl_priv.a(usbc_trace.o)
                0x00402b74                usbd_enum_tick_arr_record
 .text.usbd_trace_ep0_setup_breakstage
                0x00402b76        0x2 ../../../../../../../PLAT/prebuild/PLAT/lib/gcc/libusbbl_priv.a(usbc_trace.o)
                0x00402b76                usbd_trace_ep0_setup_breakstage
 .text.usbd_set_mod_last_err
                0x00402b78        0x8 ../../../../../../../PLAT/prebuild/PLAT/lib/gcc/libusbbl_priv.a(usbc_trace.o)
                0x00402b78                usbd_set_mod_last_err
 .text.usbd_get_mod_last_err
                0x00402b80        0x4 ../../../../../../../PLAT/prebuild/PLAT/lib/gcc/libusbbl_priv.a(usbc_trace.o)
                0x00402b80                usbd_get_mod_last_err
 .text.usbc_ctrl_is_ep0stg_din
                0x00402b84       0x14 ../../../../../../../PLAT/prebuild/PLAT/lib/gcc/libusbbl_priv.a(usbpcd_proc.o)
 .text.usbc_ctrl_is_ep0stg_dout
                0x00402b98       0x14 ../../../../../../../PLAT/prebuild/PLAT/lib/gcc/libusbbl_priv.a(usbpcd_proc.o)
 .text.usbpcd_proc_resume_handler
                0x00402bac       0x1e ../../../../../../../PLAT/prebuild/PLAT/lib/gcc/libusbbl_priv.a(usbpcd_proc.o)
 .text.usbpcd_proc_suspend_handler
                0x00402bca       0x28 ../../../../../../../PLAT/prebuild/PLAT/lib/gcc/libusbbl_priv.a(usbpcd_proc.o)
 .text.usbpcd_proc_sof_handler
                0x00402bf2       0x18 ../../../../../../../PLAT/prebuild/PLAT/lib/gcc/libusbbl_priv.a(usbpcd_proc.o)
 .text.usbpcd_proc_isoin_incomplete_handler
                0x00402c0a       0x16 ../../../../../../../PLAT/prebuild/PLAT/lib/gcc/libusbbl_priv.a(usbpcd_proc.o)
 .text.usbpcd_proc_isoout_incomplete_handler
                0x00402c20       0x16 ../../../../../../../PLAT/prebuild/PLAT/lib/gcc/libusbbl_priv.a(usbpcd_proc.o)
 .text.usbpcd_proc_reset_handler
                0x00402c36       0x3c ../../../../../../../PLAT/prebuild/PLAT/lib/gcc/libusbbl_priv.a(usbpcd_proc.o)
 .text.usbpcd_proc_setup_handler
                0x00402c72       0x58 ../../../../../../../PLAT/prebuild/PLAT/lib/gcc/libusbbl_priv.a(usbpcd_proc.o)
 .text.usbpcd_proc_dataout_handler
                0x00402cca       0x82 ../../../../../../../PLAT/prebuild/PLAT/lib/gcc/libusbbl_priv.a(usbpcd_proc.o)
 .text.__NVIC_ClearPendingIRQ.constprop.0
                0x00402d4c       0x12 ../../../../../../../PLAT/prebuild/PLAT/lib/gcc/libusbbl_priv.a(usbpcd_proc.o)
 .text.usbpcd_proc_testmode.isra.0
                0x00402d5e       0x14 ../../../../../../../PLAT/prebuild/PLAT/lib/gcc/libusbbl_priv.a(usbpcd_proc.o)
 .text.usbpcd_proc_datain_handler
                0x00402d72       0xb0 ../../../../../../../PLAT/prebuild/PLAT/lib/gcc/libusbbl_priv.a(usbpcd_proc.o)
 .text.usbpcd_init
                0x00402e22       0x8e ../../../../../../../PLAT/prebuild/PLAT/lib/gcc/libusbbl_priv.a(usbpcd_proc.o)
                0x00402e22                usbpcd_init
 .text.usbpcd_deinit
                0x00402eb0       0x8e ../../../../../../../PLAT/prebuild/PLAT/lib/gcc/libusbbl_priv.a(usbpcd_proc.o)
                0x00402eb0                usbpcd_deinit
 .text.usbc_ctrl_set_ep0stg_setup
                0x00402f3e       0x18 ../../../../../../../PLAT/prebuild/PLAT/lib/gcc/libusbbl_priv.a(usbpcd_proc_api.o)
 .text.usbpcd_proc_getlen
                0x00402f56       0x10 ../../../../../../../PLAT/prebuild/PLAT/lib/gcc/libusbbl_priv.a(usbpcd_proc_api.o)
 .text.usbpcd_proc_set_feature
                0x00402f66       0x80 ../../../../../../../PLAT/prebuild/PLAT/lib/gcc/libusbbl_priv.a(usbpcd_proc_api.o)
 .text.usbpcd_proc_ctl_error.constprop.0
                0x00402fe6       0x16 ../../../../../../../PLAT/prebuild/PLAT/lib/gcc/libusbbl_priv.a(usbpcd_proc_api.o)
 .text.usbpcd_proc_clear_feature
                0x00402ffc       0x42 ../../../../../../../PLAT/prebuild/PLAT/lib/gcc/libusbbl_priv.a(usbpcd_proc_api.o)
 .text.usbpcd_proc_get_cfg
                0x0040303e       0x48 ../../../../../../../PLAT/prebuild/PLAT/lib/gcc/libusbbl_priv.a(usbpcd_proc_api.o)
 .text.usbpcd_proc_set_addr
                0x00403086       0x60 ../../../../../../../PLAT/prebuild/PLAT/lib/gcc/libusbbl_priv.a(usbpcd_proc_api.o)
 .text.usbpcd_proc_get_desc
                0x004030e6      0x15e ../../../../../../../PLAT/prebuild/PLAT/lib/gcc/libusbbl_priv.a(usbpcd_proc_api.o)
 .text.usbpcd_proc_get_dev_stat.isra.0
                0x00403244       0x5a ../../../../../../../PLAT/prebuild/PLAT/lib/gcc/libusbbl_priv.a(usbpcd_proc_api.o)
 .text.usbpcd_proc_standard_itfreq
                0x0040329e       0x36 ../../../../../../../PLAT/prebuild/PLAT/lib/gcc/libusbbl_priv.a(usbpcd_proc_api.o)
                0x0040329e                usbpcd_proc_standard_itfreq
 .text.usbpcd_proc_standard_epreq
                0x004032d4       0xd6 ../../../../../../../PLAT/prebuild/PLAT/lib/gcc/libusbbl_priv.a(usbpcd_proc_api.o)
                0x004032d4                usbpcd_proc_standard_epreq
 .text.usbpcd_proc_set_cfg_uplayer
                0x004033aa       0x1e ../../../../../../../PLAT/prebuild/PLAT/lib/gcc/libusbbl_priv.a(usbpcd_proc_api.o)
                0x004033aa                usbpcd_proc_set_cfg_uplayer
 .text.usbpcd_proc_clear_cfg_uplayer
                0x004033c8       0x16 ../../../../../../../PLAT/prebuild/PLAT/lib/gcc/libusbbl_priv.a(usbpcd_proc_api.o)
                0x004033c8                usbpcd_proc_clear_cfg_uplayer
 .text.usbpcd_proc_set_cfg.isra.0
                0x004033de       0x82 ../../../../../../../PLAT/prebuild/PLAT/lib/gcc/libusbbl_priv.a(usbpcd_proc_api.o)
 .text.usbpcd_proc_standard_devreq
                0x00403460       0x50 ../../../../../../../PLAT/prebuild/PLAT/lib/gcc/libusbbl_priv.a(usbpcd_proc_api.o)
                0x00403460                usbpcd_proc_standard_devreq
 .text.usbpcd_proc_parse_setupreq
                0x004034b0       0x3e ../../../../../../../PLAT/prebuild/PLAT/lib/gcc/libusbbl_priv.a(usbpcd_proc_api.o)
                0x004034b0                usbpcd_proc_parse_setupreq
 .text.usbpcd_proc_ctl_error
                0x004034ee       0x16 ../../../../../../../PLAT/prebuild/PLAT/lib/gcc/libusbbl_priv.a(usbpcd_proc_api.o)
                0x004034ee                usbpcd_proc_ctl_error
 .text.usbpcd_proc_get_string
                0x00403504       0x44 ../../../../../../../PLAT/prebuild/PLAT/lib/gcc/libusbbl_priv.a(usbpcd_proc_api.o)
                0x00403504                usbpcd_proc_get_string
 .text.usbc_ctrl_set_ep0stg_din
                0x00403548       0x18 ../../../../../../../PLAT/prebuild/PLAT/lib/gcc/libusbbl_priv.a(usbpcd_proc_req.o)
 .text.usbc_ctrl_set_ep0stg_dout
                0x00403560       0x18 ../../../../../../../PLAT/prebuild/PLAT/lib/gcc/libusbbl_priv.a(usbpcd_proc_req.o)
 .text.usbc_ctrl_set_ep0stg_statin
                0x00403578       0x18 ../../../../../../../PLAT/prebuild/PLAT/lib/gcc/libusbbl_priv.a(usbpcd_proc_req.o)
 .text.usbc_ctrl_set_ep0stg_statout
                0x00403590       0x18 ../../../../../../../PLAT/prebuild/PLAT/lib/gcc/libusbbl_priv.a(usbpcd_proc_req.o)
 .text.usbpcd_proc_clsctrl_send_data
                0x004035a8       0x2c ../../../../../../../PLAT/prebuild/PLAT/lib/gcc/libusbbl_priv.a(usbpcd_proc_req.o)
                0x004035a8                usbpcd_proc_clsctrl_send_data
 .text.usbpcd_proc_stdctrl_send_data
                0x004035d4       0x24 ../../../../../../../PLAT/prebuild/PLAT/lib/gcc/libusbbl_priv.a(usbpcd_proc_req.o)
                0x004035d4                usbpcd_proc_stdctrl_send_data
 .text.usbpcd_proc_ctrl_continuous_send
                0x004035f8       0x18 ../../../../../../../PLAT/prebuild/PLAT/lib/gcc/libusbbl_priv.a(usbpcd_proc_req.o)
                0x004035f8                usbpcd_proc_ctrl_continuous_send
 .text.usbpcd_proc_ctrl_prepare_rxtransfer
                0x00403610       0x20 ../../../../../../../PLAT/prebuild/PLAT/lib/gcc/libusbbl_priv.a(usbpcd_proc_req.o)
                0x00403610                usbpcd_proc_ctrl_prepare_rxtransfer
 .text.usbpcd_proc_ctrl_continuous_rx
                0x00403630       0x10 ../../../../../../../PLAT/prebuild/PLAT/lib/gcc/libusbbl_priv.a(usbpcd_proc_req.o)
                0x00403630                usbpcd_proc_ctrl_continuous_rx
 .text.usbpcd_proc_ctrl_send_stat
                0x00403640       0x20 ../../../../../../../PLAT/prebuild/PLAT/lib/gcc/libusbbl_priv.a(usbpcd_proc_req.o)
                0x00403640                usbpcd_proc_ctrl_send_stat
 .text.usbpcd_proc_ctrl_recv_stat
                0x00403660       0x18 ../../../../../../../PLAT/prebuild/PLAT/lib/gcc/libusbbl_priv.a(usbpcd_proc_req.o)
                0x00403660                usbpcd_proc_ctrl_recv_stat
 .text.__NVIC_DisableIRQ.constprop.0
                0x00403678       0x1a ../../../../../../../PLAT/prebuild/PLAT/lib/gcc/libusbbl_priv.a(usbc_bsp.o)
 .text.__NVIC_EnableIRQ.constprop.0
                0x00403692       0x10 ../../../../../../../PLAT/prebuild/PLAT/lib/gcc/libusbbl_priv.a(usbc_bsp.o)
 .text.GPR_USBCHRST_ResetReq_SetVal
                0x004036a2       0x16 ../../../../../../../PLAT/prebuild/PLAT/lib/gcc/libusbbl_priv.a(usbc_bsp.o)
                0x004036a2                GPR_USBCHRST_ResetReq_SetVal
 .text.GPR_USBCPhy_ResetReq_SetVal
                0x004036b8       0x16 ../../../../../../../PLAT/prebuild/PLAT/lib/gcc/libusbbl_priv.a(usbc_bsp.o)
                0x004036b8                GPR_USBCPhy_ResetReq_SetVal
 .text.GPR_USBPPor_ResetReq_SetVal
                0x004036ce       0x16 ../../../../../../../PLAT/prebuild/PLAT/lib/gcc/libusbbl_priv.a(usbc_bsp.o)
                0x004036ce                GPR_USBPPor_ResetReq_SetVal
 .text.GPR_USBPUtmi_ResetReq_SetVal
                0x004036e4       0x16 ../../../../../../../PLAT/prebuild/PLAT/lib/gcc/libusbbl_priv.a(usbc_bsp.o)
                0x004036e4                GPR_USBPUtmi_ResetReq_SetVal
 .text.GPR_USBPAPB_ResetReq_SetVal
                0x004036fa       0x16 ../../../../../../../PLAT/prebuild/PLAT/lib/gcc/libusbbl_priv.a(usbc_bsp.o)
                0x004036fa                GPR_USBPAPB_ResetReq_SetVal
 .text.RFDIG_SPLL_Clkout_Usb_En_Set
                0x00403710       0x1a ../../../../../../../PLAT/prebuild/PLAT/lib/gcc/libusbbl_priv.a(usbc_bsp.o)
                0x00403710                RFDIG_SPLL_Clkout_Usb_En_Set
 .text.UPMU_USB_PowerUp
                0x0040372a        0xe ../../../../../../../PLAT/prebuild/PLAT/lib/gcc/libusbbl_priv.a(usbc_bsp.o)
                0x0040372a                UPMU_USB_PowerUp
 .text.UPMU_USB_PowerUpClr
                0x00403738        0xe ../../../../../../../PLAT/prebuild/PLAT/lib/gcc/libusbbl_priv.a(usbc_bsp.o)
                0x00403738                UPMU_USB_PowerUpClr
 .text.UPMU_USB_PowerDownClr
                0x00403746        0xe ../../../../../../../PLAT/prebuild/PLAT/lib/gcc/libusbbl_priv.a(usbc_bsp.o)
                0x00403746                UPMU_USB_PowerDownClr
 .text.UPMU_USB_PowerDown
                0x00403754        0xe ../../../../../../../PLAT/prebuild/PLAT/lib/gcc/libusbbl_priv.a(usbc_bsp.o)
                0x00403754                UPMU_USB_PowerDown
 .text.UPMU_UC2UP_SuspdEn_Cfg
                0x00403762        0xc ../../../../../../../PLAT/prebuild/PLAT/lib/gcc/libusbbl_priv.a(usbc_bsp.o)
                0x00403762                UPMU_UC2UP_SuspdEn_Cfg
 .text.UPMU_SuspdSwVal_Cfg
                0x0040376e        0xc ../../../../../../../PLAT/prebuild/PLAT/lib/gcc/libusbbl_priv.a(usbc_bsp.o)
                0x0040376e                UPMU_SuspdSwVal_Cfg
 .text.CheckUsbPowerOn
                0x0040377a       0x12 ../../../../../../../PLAT/prebuild/PLAT/lib/gcc/libusbbl_priv.a(usbc_bsp.o)
                0x0040377a                CheckUsbPowerOn
 .text.CheckUsbPowerDown
                0x0040378c       0x14 ../../../../../../../PLAT/prebuild/PLAT/lib/gcc/libusbbl_priv.a(usbc_bsp.o)
                0x0040378c                CheckUsbPowerDown
 .text.usb_udelay_cycle_div6
                0x004037a0        0xc ../../../../../../../PLAT/prebuild/PLAT/lib/gcc/libusbbl_priv.a(usbc_bsp.o)
                0x004037a0                usb_udelay_cycle_div6
 .text.usbc_ctrl_bsp_udelay
                0x004037ac       0x12 ../../../../../../../PLAT/prebuild/PLAT/lib/gcc/libusbbl_priv.a(usbc_bsp.o)
                0x004037ac                usbc_ctrl_bsp_udelay
 .text.usb_module_powron_seq
                0x004037be       0xea ../../../../../../../PLAT/prebuild/PLAT/lib/gcc/libusbbl_priv.a(usbc_bsp.o)
                0x004037be                usb_module_powron_seq
 .text.usb_module_powrdown_seq
                0x004038a8       0x84 ../../../../../../../PLAT/prebuild/PLAT/lib/gcc/libusbbl_priv.a(usbc_bsp.o)
                0x004038a8                usb_module_powrdown_seq
 .text.usbc_ctrl_bsp_mdelay_unit
                0x0040392c        0x8 ../../../../../../../PLAT/prebuild/PLAT/lib/gcc/libusbbl_priv.a(usbc_bsp.o)
                0x0040392c                usbc_ctrl_bsp_mdelay_unit
 .text.usbc_ctrl_bsp_mdelay
                0x00403934       0x14 ../../../../../../../PLAT/prebuild/PLAT/lib/gcc/libusbbl_priv.a(usbc_bsp.o)
                0x00403934                usbc_ctrl_bsp_mdelay
 .text.usbc_ctrl_bsp_init
                0x00403948        0x4 ../../../../../../../PLAT/prebuild/PLAT/lib/gcc/libusbbl_priv.a(usbc_bsp.o)
                0x00403948                usbc_ctrl_bsp_init
 .text.usbc_ctrl_bsp_deinit
                0x0040394c        0x4 ../../../../../../../PLAT/prebuild/PLAT/lib/gcc/libusbbl_priv.a(usbc_bsp.o)
                0x0040394c                usbc_ctrl_bsp_deinit
 .text.usbc_ctrl_bsp_enable_intr
                0x00403950        0x4 ../../../../../../../PLAT/prebuild/PLAT/lib/gcc/libusbbl_priv.a(usbc_bsp.o)
                0x00403950                usbc_ctrl_bsp_enable_intr
 .text.usbc_ctrl_bsp_disable_intr
                0x00403954        0x4 ../../../../../../../PLAT/prebuild/PLAT/lib/gcc/libusbbl_priv.a(usbc_bsp.o)
                0x00403954                usbc_ctrl_bsp_disable_intr
 .text.USB_IRQ_Handler
                0x00403958        0x4 ../../../../../../../PLAT/prebuild/PLAT/lib/gcc/libusbbl_priv.a(usbc_bsp.o)
                0x00403958                USB_IRQ_Handler
 .text.usbstack_clear_ctx_stat
                0x0040395c       0x26 ../../../../../../../PLAT/prebuild/PLAT/lib/gcc/libusbbl_priv.a(usbc_bsp.o)
                0x0040395c                usbstack_clear_ctx_stat
 .text.usbstack_set_ctx_stat
                0x00403982       0x26 ../../../../../../../PLAT/prebuild/PLAT/lib/gcc/libusbbl_priv.a(usbc_bsp.o)
                0x00403982                usbstack_set_ctx_stat
 .text.usbstack_get_ctx_stat
                0x004039a8       0x22 ../../../../../../../PLAT/prebuild/PLAT/lib/gcc/libusbbl_priv.a(usbc_bsp.o)
                0x004039a8                usbstack_get_ctx_stat
 .text.usbstack_set_ctx_vbus_mode
                0x004039ca       0x26 ../../../../../../../PLAT/prebuild/PLAT/lib/gcc/libusbbl_priv.a(usbc_bsp.o)
                0x004039ca                usbstack_set_ctx_vbus_mode
 .text.usbstack_chk_and_set_ctx
                0x004039f0       0x70 ../../../../../../../PLAT/prebuild/PLAT/lib/gcc/libusbbl_priv.a(usbc_bsp.o)
                0x004039f0                usbstack_chk_and_set_ctx
 .text.usbstack_disconn_chkset_ctx
                0x00403a60       0x2a ../../../../../../../PLAT/prebuild/PLAT/lib/gcc/libusbbl_priv.a(usbc_bsp.o)
                0x00403a60                usbstack_disconn_chkset_ctx
 .text.usbstack_deinit
                0x00403a8a       0x20 ../../../../../../../PLAT/prebuild/PLAT/lib/gcc/libusbbl_priv.a(usbc_bsp.o)
                0x00403a8a                usbstack_deinit
 .text.usbstack_init
                0x00403aaa       0x40 ../../../../../../../PLAT/prebuild/PLAT/lib/gcc/libusbbl_priv.a(usbc_bsp.o)
                0x00403aaa                usbstack_init
 *rndis_protocol.o(.text* .rodata*)
 .text.RndisGetEncBufSize
                0x00403aea        0x4 ../../../../../../../PLAT/gccout/ec618_0h00/ap/bootloader/lib/libdriver.a(rndis_protocol.o)
                0x00403aea                RndisGetEncBufSize
 .text.FuncRndisInitNotify
                0x00403aee        0x2 ../../../../../../../PLAT/gccout/ec618_0h00/ap/bootloader/lib/libdriver.a(rndis_protocol.o)
                0x00403aee                FuncRndisInitNotify
 .text.FuncRndisHaltNotify
                0x00403af0        0x2 ../../../../../../../PLAT/gccout/ec618_0h00/ap/bootloader/lib/libdriver.a(rndis_protocol.o)
                0x00403af0                FuncRndisHaltNotify
 .text.FuncRndisResetNotify
                0x00403af2        0x2 ../../../../../../../PLAT/gccout/ec618_0h00/ap/bootloader/lib/libdriver.a(rndis_protocol.o)
                0x00403af2                FuncRndisResetNotify
 .text.RdsProInitalMsgHdl
                0x00403af4       0x2c ../../../../../../../PLAT/gccout/ec618_0h00/ap/bootloader/lib/libdriver.a(rndis_protocol.o)
                0x00403af4                RdsProInitalMsgHdl
 .text.RdsProQueryCmplt
                0x00403b20       0x26 ../../../../../../../PLAT/gccout/ec618_0h00/ap/bootloader/lib/libdriver.a(rndis_protocol.o)
                0x00403b20                RdsProQueryCmplt
 .text.RdsProQueryCmplt32
                0x00403b46       0x1c ../../../../../../../PLAT/gccout/ec618_0h00/ap/bootloader/lib/libdriver.a(rndis_protocol.o)
                0x00403b46                RdsProQueryCmplt32
 .rodata.RdsProQueryHdl.str1.1
                0x00403b62        0xa ../../../../../../../PLAT/gccout/ec618_0h00/ap/bootloader/lib/libdriver.a(rndis_protocol.o)
 .text.RdsProQueryHdl
                0x00403b6c      0x142 ../../../../../../../PLAT/gccout/ec618_0h00/ap/bootloader/lib/libdriver.a(rndis_protocol.o)
                0x00403b6c                RdsProQueryHdl
 .text.RdsProSetMsgHdl
                0x00403cae       0x72 ../../../../../../../PLAT/gccout/ec618_0h00/ap/bootloader/lib/libdriver.a(rndis_protocol.o)
                0x00403cae                RdsProSetMsgHdl
 .text.RdsProResetMsgHdl
                0x00403d20       0x18 ../../../../../../../PLAT/gccout/ec618_0h00/ap/bootloader/lib/libdriver.a(rndis_protocol.o)
                0x00403d20                RdsProResetMsgHdl
 .text.RdsProKeepAliveMsgHdl
                0x00403d38       0x14 ../../../../../../../PLAT/gccout/ec618_0h00/ap/bootloader/lib/libdriver.a(rndis_protocol.o)
                0x00403d38                RdsProKeepAliveMsgHdl
 .rodata.OIDSupportedList
                0x00403d4c       0x58 ../../../../../../../PLAT/gccout/ec618_0h00/ap/bootloader/lib/libdriver.a(rndis_protocol.o)
                0x00403d4c                OIDSupportedList
 .rodata.permanent_hwaddr
                0x00403da4        0x6 ../../../../../../../PLAT/gccout/ec618_0h00/ap/bootloader/lib/libdriver.a(rndis_protocol.o)
 .rodata.station_hwaddr
                0x00403daa        0x6 ../../../../../../../PLAT/gccout/ec618_0h00/ap/bootloader/lib/libdriver.a(rndis_protocol.o)
 *device_vcom.o(.text* .rodata*)
 .text.usbdev_vcom0_static_clsdev_base
                0x00403db0        0xa ../../../../../../../PLAT/prebuild/PLAT/lib/gcc/libusbbl_priv.a(device_vcom.o)
 .text.usbdev_vcom1_static_clsdev_base
                0x00403dba        0xa ../../../../../../../PLAT/prebuild/PLAT/lib/gcc/libusbbl_priv.a(device_vcom.o)
 .text.usbdev_vcom2_static_clsdev_base
                0x00403dc4        0xa ../../../../../../../PLAT/prebuild/PLAT/lib/gcc/libusbbl_priv.a(device_vcom.o)
 .text.usbdev_vcom3_static_clsdev_base
                0x00403dce        0xa ../../../../../../../PLAT/prebuild/PLAT/lib/gcc/libusbbl_priv.a(device_vcom.o)
 .text.clsdev_ctrl
                0x00403dd8       0x98 ../../../../../../../PLAT/prebuild/PLAT/lib/gcc/libusbbl_priv.a(device_vcom.o)
 .text.dev_serial_vcom_isinit
                0x00403e70       0x14 ../../../../../../../PLAT/prebuild/PLAT/lib/gcc/libusbbl_priv.a(device_vcom.o)
 .text.dev_serial_vcom_init
                0x00403e84       0x7a ../../../../../../../PLAT/prebuild/PLAT/lib/gcc/libusbbl_priv.a(device_vcom.o)
                0x00403e84                dev_serial_vcom_init
 .text.dev_serial_vcom_terminate
                0x00403efe       0x9e ../../../../../../../PLAT/prebuild/PLAT/lib/gcc/libusbbl_priv.a(device_vcom.o)
                0x00403efe                dev_serial_vcom_terminate
 .text.usbdev_vcom0_static_terminate_finish
                0x00403f9c       0x16 ../../../../../../../PLAT/prebuild/PLAT/lib/gcc/libusbbl_priv.a(device_vcom.o)
 .rodata.usbdev_vcom0_static_earlyinit_start.str1.1
                0x00403fb2        0xc ../../../../../../../PLAT/prebuild/PLAT/lib/gcc/libusbbl_priv.a(device_vcom.o)
 .text.usbdev_vcom0_static_earlyinit_start
                0x00403fbe       0x4e ../../../../../../../PLAT/prebuild/PLAT/lib/gcc/libusbbl_priv.a(device_vcom.o)
 .text.usbdev_vcom1_static_terminate_finish
                0x0040400c       0x16 ../../../../../../../PLAT/prebuild/PLAT/lib/gcc/libusbbl_priv.a(device_vcom.o)
 .rodata.usbdev_vcom1_static_earlyinit_start.str1.1
                0x00404022        0xc ../../../../../../../PLAT/prebuild/PLAT/lib/gcc/libusbbl_priv.a(device_vcom.o)
 .text.usbdev_vcom1_static_earlyinit_start
                0x0040402e       0x52 ../../../../../../../PLAT/prebuild/PLAT/lib/gcc/libusbbl_priv.a(device_vcom.o)
 .text.usbdev_vcom2_static_terminate_finish
                0x00404080       0x16 ../../../../../../../PLAT/prebuild/PLAT/lib/gcc/libusbbl_priv.a(device_vcom.o)
 .rodata.usbdev_vcom2_static_earlyinit_start.str1.1
                0x00404096        0xc ../../../../../../../PLAT/prebuild/PLAT/lib/gcc/libusbbl_priv.a(device_vcom.o)
 .text.usbdev_vcom2_static_earlyinit_start
                0x004040a2       0x52 ../../../../../../../PLAT/prebuild/PLAT/lib/gcc/libusbbl_priv.a(device_vcom.o)
 .text.usbdev_vcom3_static_terminate_finish
                0x004040f4       0x16 ../../../../../../../PLAT/prebuild/PLAT/lib/gcc/libusbbl_priv.a(device_vcom.o)
 .rodata.usbdev_vcom3_static_earlyinit_start.str1.1
                0x0040410a        0xc ../../../../../../../PLAT/prebuild/PLAT/lib/gcc/libusbbl_priv.a(device_vcom.o)
 .text.usbdev_vcom3_static_earlyinit_start
                0x00404116       0x5a ../../../../../../../PLAT/prebuild/PLAT/lib/gcc/libusbbl_priv.a(device_vcom.o)
 .text.dev_serial_vcom_autotrig_rx_handler
                0x00404170       0x54 ../../../../../../../PLAT/prebuild/PLAT/lib/gcc/libusbbl_priv.a(device_vcom.o)
 .text.usbdev_vcom0_static_terminate_start
                0x004041c4       0x36 ../../../../../../../PLAT/prebuild/PLAT/lib/gcc/libusbbl_priv.a(device_vcom.o)
 .text.usbdev_vcom1_static_terminate_start
                0x004041fa       0x36 ../../../../../../../PLAT/prebuild/PLAT/lib/gcc/libusbbl_priv.a(device_vcom.o)
 .text.usbdev_vcom2_static_terminate_start
                0x00404230       0x36 ../../../../../../../PLAT/prebuild/PLAT/lib/gcc/libusbbl_priv.a(device_vcom.o)
 .text.usbdev_vcom3_static_terminate_start
                0x00404266       0x36 ../../../../../../../PLAT/prebuild/PLAT/lib/gcc/libusbbl_priv.a(device_vcom.o)
 .text.dev_serial_vcom_connect.isra.0
                0x0040429c       0x42 ../../../../../../../PLAT/prebuild/PLAT/lib/gcc/libusbbl_priv.a(device_vcom.o)
 .text.dev_serial_vcom_clearnotify.isra.0
                0x004042de       0x60 ../../../../../../../PLAT/prebuild/PLAT/lib/gcc/libusbbl_priv.a(device_vcom.o)
 .text.dev_serial_vcom_reset.isra.0
                0x0040433e       0x22 ../../../../../../../PLAT/prebuild/PLAT/lib/gcc/libusbbl_priv.a(device_vcom.o)
 .text.clsdev_reset
                0x00404360        0xc ../../../../../../../PLAT/prebuild/PLAT/lib/gcc/libusbbl_priv.a(device_vcom.o)
 .text.dev_serial_vcom_disconnect.isra.0
                0x0040436c       0x1e ../../../../../../../PLAT/prebuild/PLAT/lib/gcc/libusbbl_priv.a(device_vcom.o)
 .text.clsdev_disconnect
                0x0040438a        0xc ../../../../../../../PLAT/prebuild/PLAT/lib/gcc/libusbbl_priv.a(device_vcom.o)
 .text.clsdev_txbuf_query_or_dlyalloc
                0x00404396       0x1c ../../../../../../../PLAT/prebuild/PLAT/lib/gcc/libusbbl_priv.a(device_vcom.o)
                0x00404396                clsdev_txbuf_query_or_dlyalloc
 .text.clsdev_txbuf_check
                0x004043b2       0x2a ../../../../../../../PLAT/prebuild/PLAT/lib/gcc/libusbbl_priv.a(device_vcom.o)
                0x004043b2                clsdev_txbuf_check
 .text.clsdev_txbuf_query_dlyalloc
                0x004043dc       0x36 ../../../../../../../PLAT/prebuild/PLAT/lib/gcc/libusbbl_priv.a(device_vcom.o)
                0x004043dc                clsdev_txbuf_query_dlyalloc
 .text.clsdev_rxbuf_query_or_dlyalloc
                0x00404412       0x1c ../../../../../../../PLAT/prebuild/PLAT/lib/gcc/libusbbl_priv.a(device_vcom.o)
                0x00404412                clsdev_rxbuf_query_or_dlyalloc
 .text.clsdev_rxbuf_check
                0x0040442e       0x30 ../../../../../../../PLAT/prebuild/PLAT/lib/gcc/libusbbl_priv.a(device_vcom.o)
                0x0040442e                clsdev_rxbuf_check
 .text.clsdev_rxbuf_query_dlyalloc
                0x0040445e       0x36 ../../../../../../../PLAT/prebuild/PLAT/lib/gcc/libusbbl_priv.a(device_vcom.o)
                0x0040445e                clsdev_rxbuf_query_dlyalloc
 .text.dev_serial_vcom_isconnect
                0x00404494       0x14 ../../../../../../../PLAT/prebuild/PLAT/lib/gcc/libusbbl_priv.a(device_vcom.o)
                0x00404494                dev_serial_vcom_isconnect
 .text.dev_serial_txbuf_query_or_dlyalloc
                0x004044a8       0x64 ../../../../../../../PLAT/prebuild/PLAT/lib/gcc/libusbbl_priv.a(device_vcom.o)
                0x004044a8                dev_serial_txbuf_query_or_dlyalloc
 .text.dev_serial_txbuf_check
                0x0040450c       0x2c ../../../../../../../PLAT/prebuild/PLAT/lib/gcc/libusbbl_priv.a(device_vcom.o)
                0x0040450c                dev_serial_txbuf_check
 .text.dev_serial_txbuf_query_dlyalloc
                0x00404538       0x36 ../../../../../../../PLAT/prebuild/PLAT/lib/gcc/libusbbl_priv.a(device_vcom.o)
                0x00404538                dev_serial_txbuf_query_dlyalloc
 .text.dev_serial_rxbuf_query_or_dlyalloc
                0x0040456e       0x64 ../../../../../../../PLAT/prebuild/PLAT/lib/gcc/libusbbl_priv.a(device_vcom.o)
                0x0040456e                dev_serial_rxbuf_query_or_dlyalloc
 .text.dev_serial_rxbuf_check
                0x004045d2       0x2c ../../../../../../../PLAT/prebuild/PLAT/lib/gcc/libusbbl_priv.a(device_vcom.o)
                0x004045d2                dev_serial_rxbuf_check
 .text.dev_serial_rxbuf_query_dlyalloc
                0x004045fe       0x36 ../../../../../../../PLAT/prebuild/PLAT/lib/gcc/libusbbl_priv.a(device_vcom.o)
                0x004045fe                dev_serial_rxbuf_query_dlyalloc
 .text.dev_serial_vcom_dnotify_lnkmd_get_epnum
                0x00404634       0x2a ../../../../../../../PLAT/prebuild/PLAT/lib/gcc/libusbbl_priv.a(device_vcom.o)
                0x00404634                dev_serial_vcom_dnotify_lnkmd_get_epnum
 .text.usbdev_txbuf_check
                0x0040465e       0x5a ../../../../../../../PLAT/prebuild/PLAT/lib/gcc/libusbbl_priv.a(device_vcom.o)
                0x0040465e                usbdev_txbuf_check
 .text.dev_serial_vcom_start_tx_trans
                0x004046b8       0xb2 ../../../../../../../PLAT/prebuild/PLAT/lib/gcc/libusbbl_priv.a(device_vcom.o)
                0x004046b8                dev_serial_vcom_start_tx_trans
 .text.clsdev_iep_tx_handler
                0x0040476a       0x1e ../../../../../../../PLAT/prebuild/PLAT/lib/gcc/libusbbl_priv.a(device_vcom.o)
 .text.usbdev_txbuf_try_dlyalloc
                0x00404788       0x20 ../../../../../../../PLAT/prebuild/PLAT/lib/gcc/libusbbl_priv.a(device_vcom.o)
                0x00404788                usbdev_txbuf_try_dlyalloc
 .text.dev_serial_vcom_get_out_waiting
                0x004047a8       0x32 ../../../../../../../PLAT/prebuild/PLAT/lib/gcc/libusbbl_priv.a(device_vcom.o)
 .text.dev_serial_vcom_poll_tx
                0x004047da       0xd4 ../../../../../../../PLAT/prebuild/PLAT/lib/gcc/libusbbl_priv.a(device_vcom.o)
 .text.dev_serial_vcom_get_out_avail
                0x004048ae       0x38 ../../../../../../../PLAT/prebuild/PLAT/lib/gcc/libusbbl_priv.a(device_vcom.o)
 .text.dev_serial_vcom_send
                0x004048e6       0x56 ../../../../../../../PLAT/prebuild/PLAT/lib/gcc/libusbbl_priv.a(device_vcom.o)
 .text.usbdev_rxbuf_check
                0x0040493c       0x5a ../../../../../../../PLAT/prebuild/PLAT/lib/gcc/libusbbl_priv.a(device_vcom.o)
                0x0040493c                usbdev_rxbuf_check
 .text.clsdev_oep_rx_handler
                0x00404996       0x5e ../../../../../../../PLAT/prebuild/PLAT/lib/gcc/libusbbl_priv.a(device_vcom.o)
 .text.clsdev_connect
                0x004049f4       0x32 ../../../../../../../PLAT/prebuild/PLAT/lib/gcc/libusbbl_priv.a(device_vcom.o)
 .text.usbdev_rxbuf_try_dlyalloc
                0x00404a26       0x20 ../../../../../../../PLAT/prebuild/PLAT/lib/gcc/libusbbl_priv.a(device_vcom.o)
                0x00404a26                usbdev_rxbuf_try_dlyalloc
 .text.dev_serial_vcom_poll_rx
                0x00404a46       0xbe ../../../../../../../PLAT/prebuild/PLAT/lib/gcc/libusbbl_priv.a(device_vcom.o)
 .text.dev_serial_vcom_get_inwaiting
                0x00404b04       0x38 ../../../../../../../PLAT/prebuild/PLAT/lib/gcc/libusbbl_priv.a(device_vcom.o)
 .text.dev_serial_vcom_recv
                0x00404b3c       0x94 ../../../../../../../PLAT/prebuild/PLAT/lib/gcc/libusbbl_priv.a(device_vcom.o)
 .text.serial_vcom0_uplink_get_epnum
                0x00404bd0        0xc ../../../../../../../PLAT/prebuild/PLAT/lib/gcc/libusbbl_priv.a(device_vcom.o)
                0x00404bd0                serial_vcom0_uplink_get_epnum
 .text.serial_vcom0_get_handler
                0x00404bdc        0xa ../../../../../../../PLAT/prebuild/PLAT/lib/gcc/libusbbl_priv.a(device_vcom.o)
                0x00404bdc                serial_vcom0_get_handler
 .text.serial_vcom1_dnotify_lnkmd_get_epnum
                0x00404be6        0xc ../../../../../../../PLAT/prebuild/PLAT/lib/gcc/libusbbl_priv.a(device_vcom.o)
                0x00404be6                serial_vcom1_dnotify_lnkmd_get_epnum
 .text.serial_vcom1_get_handler
                0x00404bf2        0xa ../../../../../../../PLAT/prebuild/PLAT/lib/gcc/libusbbl_priv.a(device_vcom.o)
                0x00404bf2                serial_vcom1_get_handler
 .text.serial_vcom2_dnotify_lnkmd_get_epnum
                0x00404bfc        0xc ../../../../../../../PLAT/prebuild/PLAT/lib/gcc/libusbbl_priv.a(device_vcom.o)
                0x00404bfc                serial_vcom2_dnotify_lnkmd_get_epnum
 .text.serial_vcom2_get_handler
                0x00404c08        0xa ../../../../../../../PLAT/prebuild/PLAT/lib/gcc/libusbbl_priv.a(device_vcom.o)
                0x00404c08                serial_vcom2_get_handler
 .text.vcomx_ptr_from_idx
                0x00404c12       0x1a ../../../../../../../PLAT/prebuild/PLAT/lib/gcc/libusbbl_priv.a(device_vcom.o)
                0x00404c12                vcomx_ptr_from_idx
 .text.vcomx_isconnect
                0x00404c2c       0x12 ../../../../../../../PLAT/prebuild/PLAT/lib/gcc/libusbbl_priv.a(device_vcom.o)
                0x00404c2c                vcomx_isconnect
 .text.vcomx_get_out_avail
                0x00404c3e       0x18 ../../../../../../../PLAT/prebuild/PLAT/lib/gcc/libusbbl_priv.a(device_vcom.o)
                0x00404c3e                vcomx_get_out_avail
 .text.vcomx_poll_tx
                0x00404c56       0x18 ../../../../../../../PLAT/prebuild/PLAT/lib/gcc/libusbbl_priv.a(device_vcom.o)
                0x00404c56                vcomx_poll_tx
 .text.vcomx_send
                0x00404c6e       0x18 ../../../../../../../PLAT/prebuild/PLAT/lib/gcc/libusbbl_priv.a(device_vcom.o)
                0x00404c6e                vcomx_send
 .text.serial_vcom3_dnotify_lnkmd_get_epnum
                0x00404c86        0xc ../../../../../../../PLAT/prebuild/PLAT/lib/gcc/libusbbl_priv.a(device_vcom.o)
                0x00404c86                serial_vcom3_dnotify_lnkmd_get_epnum
 .text.serial_vcom_cmn_chk_match_ulog
                0x00404c92       0x12 ../../../../../../../PLAT/prebuild/PLAT/lib/gcc/libusbbl_priv.a(device_vcom.o)
                0x00404c92                serial_vcom_cmn_chk_match_ulog
 .text.serial_vcom0_chk_match_ulog
                0x00404ca4        0xc ../../../../../../../PLAT/prebuild/PLAT/lib/gcc/libusbbl_priv.a(device_vcom.o)
                0x00404ca4                serial_vcom0_chk_match_ulog
 .text.serial_vcom1_chk_match_ulog
                0x00404cb0        0xc ../../../../../../../PLAT/prebuild/PLAT/lib/gcc/libusbbl_priv.a(device_vcom.o)
                0x00404cb0                serial_vcom1_chk_match_ulog
 .text.serial_vcom2_chk_match_ulog
                0x00404cbc        0xc ../../../../../../../PLAT/prebuild/PLAT/lib/gcc/libusbbl_priv.a(device_vcom.o)
                0x00404cbc                serial_vcom2_chk_match_ulog
 .text.serial_vcom3_chk_match_ulog
                0x00404cc8        0xc ../../../../../../../PLAT/prebuild/PLAT/lib/gcc/libusbbl_priv.a(device_vcom.o)
                0x00404cc8                serial_vcom3_chk_match_ulog
 .text.serial_vcom_cmn_try_tx_dlyalloc
                0x00404cd4       0x28 ../../../../../../../PLAT/prebuild/PLAT/lib/gcc/libusbbl_priv.a(device_vcom.o)
                0x00404cd4                serial_vcom_cmn_try_tx_dlyalloc
 .text.usbdev_vcom0_static_earlyinit_finish
                0x00404cfc       0x42 ../../../../../../../PLAT/prebuild/PLAT/lib/gcc/libusbbl_priv.a(device_vcom.o)
 .text.usbdev_vcom1_static_earlyinit_finish
                0x00404d3e       0x42 ../../../../../../../PLAT/prebuild/PLAT/lib/gcc/libusbbl_priv.a(device_vcom.o)
 .text.usbdev_vcom2_static_earlyinit_finish
                0x00404d80       0x42 ../../../../../../../PLAT/prebuild/PLAT/lib/gcc/libusbbl_priv.a(device_vcom.o)
 .text.usbdev_vcom3_static_earlyinit_finish
                0x00404dc2       0x42 ../../../../../../../PLAT/prebuild/PLAT/lib/gcc/libusbbl_priv.a(device_vcom.o)
 *device_rndis.o(.text* .rodata*)
 .text.clsdev_oep_rx_handler
                0x00404e04        0x4 ../../../../../../../PLAT/prebuild/PLAT/lib/gcc/libusbbl_priv.a(device_rndis.o)
 .text.dev_eth_rndis_init
                0x00404e08        0x8 ../../../../../../../PLAT/prebuild/PLAT/lib/gcc/libusbbl_priv.a(device_rndis.o)
                0x00404e08                dev_eth_rndis_init
 .text.dev_eth_rndis_terminate
                0x00404e10       0x10 ../../../../../../../PLAT/prebuild/PLAT/lib/gcc/libusbbl_priv.a(device_rndis.o)
                0x00404e10                dev_eth_rndis_terminate
 .text.dev_eth_rndis_send
                0x00404e20        0x6 ../../../../../../../PLAT/prebuild/PLAT/lib/gcc/libusbbl_priv.a(device_rndis.o)
 .text.dev_eth_rndis_recv
                0x00404e26        0x4 ../../../../../../../PLAT/prebuild/PLAT/lib/gcc/libusbbl_priv.a(device_rndis.o)
 .text.dev_eth_rndis_rx_submit
                0x00404e2a        0x4 ../../../../../../../PLAT/prebuild/PLAT/lib/gcc/libusbbl_priv.a(device_rndis.o)
 .text.dev_eth_rndis_get_in_waiting
                0x00404e2e        0x4 ../../../../../../../PLAT/prebuild/PLAT/lib/gcc/libusbbl_priv.a(device_rndis.o)
 .text.dev_eth_rndis_get_out_avail
                0x00404e32        0x4 ../../../../../../../PLAT/prebuild/PLAT/lib/gcc/libusbbl_priv.a(device_rndis.o)
 .text.dev_eth_rndis_poll_rx
                0x00404e36        0x4 ../../../../../../../PLAT/prebuild/PLAT/lib/gcc/libusbbl_priv.a(device_rndis.o)
 .text.dev_eth_rndis_poll_tx
                0x00404e3a        0x4 ../../../../../../../PLAT/prebuild/PLAT/lib/gcc/libusbbl_priv.a(device_rndis.o)
 .text.usbdev_rndis0_static_clsdev_base
                0x00404e3e        0xa ../../../../../../../PLAT/prebuild/PLAT/lib/gcc/libusbbl_priv.a(device_rndis.o)
 .text.clsdev_ctrl
                0x00404e48        0xc ../../../../../../../PLAT/prebuild/PLAT/lib/gcc/libusbbl_priv.a(device_rndis.o)
 .text.usbdev_rndis0_static_terminate_finish
                0x00404e54       0x16 ../../../../../../../PLAT/prebuild/PLAT/lib/gcc/libusbbl_priv.a(device_rndis.o)
 .rodata.usbdev_rndis0_static_earlyinit_start.str1.1
                0x00404e6a        0xd ../../../../../../../PLAT/prebuild/PLAT/lib/gcc/libusbbl_priv.a(device_rndis.o)
 *fill*         0x00404e77        0x1 
 .text.usbdev_rndis0_static_earlyinit_start
                0x00404e78       0x44 ../../../../../../../PLAT/prebuild/PLAT/lib/gcc/libusbbl_priv.a(device_rndis.o)
 .text.dev_eth_rndis_isinit.constprop.0
                0x00404ebc       0x1a ../../../../../../../PLAT/prebuild/PLAT/lib/gcc/libusbbl_priv.a(device_rndis.o)
 .text.usbdev_rndis0_static_terminate_start
                0x00404ed6       0x2a ../../../../../../../PLAT/prebuild/PLAT/lib/gcc/libusbbl_priv.a(device_rndis.o)
 .text.clsdev_oep_rx_handler.constprop.0
                0x00404f00        0x4 ../../../../../../../PLAT/prebuild/PLAT/lib/gcc/libusbbl_priv.a(device_rndis.o)
 .text.clsdev_iep_tx_handler
                0x00404f04        0x4 ../../../../../../../PLAT/prebuild/PLAT/lib/gcc/libusbbl_priv.a(device_rndis.o)
 .text.dev_eth_rndis_connect.isra.0
                0x00404f08       0x42 ../../../../../../../PLAT/prebuild/PLAT/lib/gcc/libusbbl_priv.a(device_rndis.o)
 .text.clsdev_connect
                0x00404f4a        0xc ../../../../../../../PLAT/prebuild/PLAT/lib/gcc/libusbbl_priv.a(device_rndis.o)
 .text.dev_eth_rndis_clearnotify.isra.0
                0x00404f56       0x60 ../../../../../../../PLAT/prebuild/PLAT/lib/gcc/libusbbl_priv.a(device_rndis.o)
 .text.dev_eth_rndis_reset.isra.0
                0x00404fb6       0x14 ../../../../../../../PLAT/prebuild/PLAT/lib/gcc/libusbbl_priv.a(device_rndis.o)
 .text.clsdev_reset
                0x00404fca        0xc ../../../../../../../PLAT/prebuild/PLAT/lib/gcc/libusbbl_priv.a(device_rndis.o)
 .text.dev_eth_rndis_disconnect.isra.0
                0x00404fd6       0x1a ../../../../../../../PLAT/prebuild/PLAT/lib/gcc/libusbbl_priv.a(device_rndis.o)
 .text.clsdev_disconnect
                0x00404ff0        0xc ../../../../../../../PLAT/prebuild/PLAT/lib/gcc/libusbbl_priv.a(device_rndis.o)
 .text.dev_eth_rndis_dnotify_lnkmd_get_epnum
                0x00404ffc       0x2a ../../../../../../../PLAT/prebuild/PLAT/lib/gcc/libusbbl_priv.a(device_rndis.o)
                0x00404ffc                dev_eth_rndis_dnotify_lnkmd_get_epnum
 .text.get_eth_rndis0_handler
                0x00405026        0xa ../../../../../../../PLAT/prebuild/PLAT/lib/gcc/libusbbl_priv.a(device_rndis.o)
                0x00405026                get_eth_rndis0_handler
 .text.usbdev_rndis0_static_earlyinit_finish
                0x00405030       0x2c ../../../../../../../PLAT/prebuild/PLAT/lib/gcc/libusbbl_priv.a(device_rndis.o)
 *lib_list.o(.text* .rodata*)
 *lib_rbuf.o(.text* .rodata*)
 .text.rbuf_reset
                0x0040505c        0x6 ../../../../../../../PLAT/prebuild/PLAT/lib/gcc/libusbbl_priv.a(lib_rbuf.o)
                0x0040505c                rbuf_reset
 .text.rbuf_is_inited
                0x00405062        0xa ../../../../../../../PLAT/prebuild/PLAT/lib/gcc/libusbbl_priv.a(lib_rbuf.o)
                0x00405062                rbuf_is_inited
 .text.rbuf_init
                0x0040506c       0x1a ../../../../../../../PLAT/prebuild/PLAT/lib/gcc/libusbbl_priv.a(lib_rbuf.o)
                0x0040506c                rbuf_init
 .text.rbuf_uninit
                0x00405086        0xe ../../../../../../../PLAT/prebuild/PLAT/lib/gcc/libusbbl_priv.a(lib_rbuf.o)
                0x00405086                rbuf_uninit
 .text.rbuf_spare_cnt
                0x00405094       0x18 ../../../../../../../PLAT/prebuild/PLAT/lib/gcc/libusbbl_priv.a(lib_rbuf.o)
                0x00405094                rbuf_spare_cnt
 .text.rbuf_used_cnt
                0x004050ac       0x16 ../../../../../../../PLAT/prebuild/PLAT/lib/gcc/libusbbl_priv.a(lib_rbuf.o)
                0x004050ac                rbuf_used_cnt
 .text.rbuf_put_nb
                0x004050c2       0x60 ../../../../../../../PLAT/prebuild/PLAT/lib/gcc/libusbbl_priv.a(lib_rbuf.o)
                0x004050c2                rbuf_put_nb
 .text.rbuf_get_nb
                0x00405122       0x62 ../../../../../../../PLAT/prebuild/PLAT/lib/gcc/libusbbl_priv.a(lib_rbuf.o)
                0x00405122                rbuf_get_nb
 .text.rbuf_get_part_blank
                0x00405184       0x52 ../../../../../../../PLAT/prebuild/PLAT/lib/gcc/libusbbl_priv.a(lib_rbuf.o)
                0x00405184                rbuf_get_part_blank
 *func_dbg.o(.text* .rodata*)
 .text.func_dbg_record_inep_maxpkt
                0x004051d6        0x2 ../../../../../../../PLAT/prebuild/PLAT/lib/gcc/libusbbl_priv.a(func_dbg.o)
                0x004051d6                func_dbg_record_inep_maxpkt
 *function_vcom.o(.text* .rodata*)
 *function_rndis.o(.text* .rodata*)
 .text.list_init
                0x004051d8        0x6 ../../../../../../../PLAT/prebuild/PLAT/lib/gcc/libusbbl_priv.a(function_rndis.o)
 .text.list_is_empty
                0x004051de        0xa ../../../../../../../PLAT/prebuild/PLAT/lib/gcc/libusbbl_priv.a(function_rndis.o)
 .text.list_insert_before
                0x004051e8        0xe ../../../../../../../PLAT/prebuild/PLAT/lib/gcc/libusbbl_priv.a(function_rndis.o)
 .text.list_remove
                0x004051f6        0xe ../../../../../../../PLAT/prebuild/PLAT/lib/gcc/libusbbl_priv.a(function_rndis.o)
 .text.list_pophd
                0x00405204       0x16 ../../../../../../../PLAT/prebuild/PLAT/lib/gcc/libusbbl_priv.a(function_rndis.o)
 .text.rndis_func_reset
                0x0040521a       0x28 ../../../../../../../PLAT/prebuild/PLAT/lib/gcc/libusbbl_priv.a(function_rndis.o)
 .text.rndis_func_datain
                0x00405242       0x28 ../../../../../../../PLAT/prebuild/PLAT/lib/gcc/libusbbl_priv.a(function_rndis.o)
 .text.rndis_add_hdr
                0x0040526a        0x4 ../../../../../../../PLAT/prebuild/PLAT/lib/gcc/libusbbl_priv.a(function_rndis.o)
 .text.rndis_rm_hdr
                0x0040526e        0x4 ../../../../../../../PLAT/prebuild/PLAT/lib/gcc/libusbbl_priv.a(function_rndis.o)
 .text.rndis_func_recv_trigger
                0x00405272        0x4 ../../../../../../../PLAT/prebuild/PLAT/lib/gcc/libusbbl_priv.a(function_rndis.o)
 .text.rndis_func_send_trigger
                0x00405276        0x4 ../../../../../../../PLAT/prebuild/PLAT/lib/gcc/libusbbl_priv.a(function_rndis.o)
                0x00405276                rndis_func_send_trigger
 .text.rndis_func_recv_trigavail
                0x0040527a        0x4 ../../../../../../../PLAT/prebuild/PLAT/lib/gcc/libusbbl_priv.a(function_rndis.o)
                0x0040527a                rndis_func_recv_trigavail
 .text.rndis_func_send_trigavail
                0x0040527e        0x4 ../../../../../../../PLAT/prebuild/PLAT/lib/gcc/libusbbl_priv.a(function_rndis.o)
                0x0040527e                rndis_func_send_trigavail
 .text.rndis_doep_rx_ioreq
                0x00405282        0x4 ../../../../../../../PLAT/prebuild/PLAT/lib/gcc/libusbbl_priv.a(function_rndis.o)
 .text.rndis_func_sof
                0x00405286       0x18 ../../../../../../../PLAT/prebuild/PLAT/lib/gcc/libusbbl_priv.a(function_rndis.o)
 .text.get_rndis_func_desc_size
                0x0040529e        0x4 ../../../../../../../PLAT/prebuild/PLAT/lib/gcc/libusbbl_priv.a(function_rndis.o)
                0x0040529e                get_rndis_func_desc_size
 .text.get_rndis_func_desc_othcfg_size
                0x004052a2        0x4 ../../../../../../../PLAT/prebuild/PLAT/lib/gcc/libusbbl_priv.a(function_rndis.o)
                0x004052a2                get_rndis_func_desc_othcfg_size
 .text.get_rndis_func_intf_num
                0x004052a6        0xa ../../../../../../../PLAT/prebuild/PLAT/lib/gcc/libusbbl_priv.a(function_rndis.o)
                0x004052a6                get_rndis_func_intf_num
 .text.get_rndis_func_clstype
                0x004052b0       0x14 ../../../../../../../PLAT/prebuild/PLAT/lib/gcc/libusbbl_priv.a(function_rndis.o)
                0x004052b0                get_rndis_func_clstype
 .text.get_rndis_func_cfginfo
                0x004052c4       0x64 ../../../../../../../PLAT/prebuild/PLAT/lib/gcc/libusbbl_priv.a(function_rndis.o)
                0x004052c4                get_rndis_func_cfginfo
 .text.rndis_func_retwkup_restore
                0x00405328        0x4 ../../../../../../../PLAT/prebuild/PLAT/lib/gcc/libusbbl_priv.a(function_rndis.o)
                0x00405328                rndis_func_retwkup_restore
 .text.get_rndis_func_inst_trans
                0x0040532c        0xa ../../../../../../../PLAT/prebuild/PLAT/lib/gcc/libusbbl_priv.a(function_rndis.o)
                0x0040532c                get_rndis_func_inst_trans
 .text.rndis_func_txbuf_reset
                0x00405336       0x24 ../../../../../../../PLAT/prebuild/PLAT/lib/gcc/libusbbl_priv.a(function_rndis.o)
                0x00405336                rndis_func_txbuf_reset
 .text.rndis_func_rxbuf_reset
                0x0040535a       0x20 ../../../../../../../PLAT/prebuild/PLAT/lib/gcc/libusbbl_priv.a(function_rndis.o)
                0x0040535a                rndis_func_rxbuf_reset
 .text.rndis_get_ext_diep_xfercond
                0x0040537a       0x22 ../../../../../../../PLAT/prebuild/PLAT/lib/gcc/libusbbl_priv.a(function_rndis.o)
 .text.rndis_func_trans_init
                0x0040539c       0x74 ../../../../../../../PLAT/prebuild/PLAT/lib/gcc/libusbbl_priv.a(function_rndis.o)
                0x0040539c                rndis_func_trans_init
 .text.get_rndis_func_desc_ptr
                0x00405410       0xa0 ../../../../../../../PLAT/prebuild/PLAT/lib/gcc/libusbbl_priv.a(function_rndis.o)
                0x00405410                get_rndis_func_desc_ptr
 .text.get_rndis_func_desc_othcfg_ptr
                0x004054b0       0x92 ../../../../../../../PLAT/prebuild/PLAT/lib/gcc/libusbbl_priv.a(function_rndis.o)
                0x004054b0                get_rndis_func_desc_othcfg_ptr
 .text.rndis_func_unbind
                0x00405542       0x84 ../../../../../../../PLAT/prebuild/PLAT/lib/gcc/libusbbl_priv.a(function_rndis.o)
                0x00405542                rndis_func_unbind
 .text.rndis_func_record_diep_maxpkt
                0x004055c6       0x3c ../../../../../../../PLAT/prebuild/PLAT/lib/gcc/libusbbl_priv.a(function_rndis.o)
 .text.rndis_func_dataout
                0x00405602       0x20 ../../../../../../../PLAT/prebuild/PLAT/lib/gcc/libusbbl_priv.a(function_rndis.o)
 .text.rndis_func_deinit
                0x00405622       0x46 ../../../../../../../PLAT/prebuild/PLAT/lib/gcc/libusbbl_priv.a(function_rndis.o)
 .text.rndis_func_init
                0x00405668       0x5a ../../../../../../../PLAT/prebuild/PLAT/lib/gcc/libusbbl_priv.a(function_rndis.o)
 .text.rndis_doep_rx_ioreq.constprop.0
                0x004056c2        0x4 ../../../../../../../PLAT/prebuild/PLAT/lib/gcc/libusbbl_priv.a(function_rndis.o)
 .text.rndis_diep_tx_ioreq
                0x004056c6        0x4 ../../../../../../../PLAT/prebuild/PLAT/lib/gcc/libusbbl_priv.a(function_rndis.o)
 .text.rndis_func_notify_start_transfer.isra.0
                0x004056ca       0x38 ../../../../../../../PLAT/prebuild/PLAT/lib/gcc/libusbbl_priv.a(function_rndis.o)
 .text.rndis_func_autotry_next_xfer.isra.0
                0x00405702       0x12 ../../../../../../../PLAT/prebuild/PLAT/lib/gcc/libusbbl_priv.a(function_rndis.o)
 .text.rndis_func_gen_xfer_mux_src.isra.0
                0x00405714       0x46 ../../../../../../../PLAT/prebuild/PLAT/lib/gcc/libusbbl_priv.a(function_rndis.o)
 .text.rndis_func_try_external_xfer.constprop.0.isra.0
                0x0040575a       0x1e ../../../../../../../PLAT/prebuild/PLAT/lib/gcc/libusbbl_priv.a(function_rndis.o)
 .text.rndis_notify_halt_msg
                0x00405778       0x3c ../../../../../../../PLAT/prebuild/PLAT/lib/gcc/libusbbl_priv.a(function_rndis.o)
                0x00405778                rndis_notify_halt_msg
 .text.rndis_diep_ext_xfer_req
                0x004057b4       0x7a ../../../../../../../PLAT/prebuild/PLAT/lib/gcc/libusbbl_priv.a(function_rndis.o)
 .text.rndis_func_try_internal_listbuf_xfer.constprop.0.isra.0
                0x0040582e       0x1e ../../../../../../../PLAT/prebuild/PLAT/lib/gcc/libusbbl_priv.a(function_rndis.o)
 .text.rndis_func_try_internal_encbuf_xfer.constprop.0.isra.0
                0x0040584c       0x1e ../../../../../../../PLAT/prebuild/PLAT/lib/gcc/libusbbl_priv.a(function_rndis.o)
 .text.rndis_func_set_diep_xfer_stat.isra.0
                0x0040586a       0x2e ../../../../../../../PLAT/prebuild/PLAT/lib/gcc/libusbbl_priv.a(function_rndis.o)
 .text.rndis_func_set_diep_xfer_src.isra.0
                0x00405898        0xa ../../../../../../../PLAT/prebuild/PLAT/lib/gcc/libusbbl_priv.a(function_rndis.o)
 .text.rndis_func_diep_xfer_finish_update.isra.0
                0x004058a2       0x8e ../../../../../../../PLAT/prebuild/PLAT/lib/gcc/libusbbl_priv.a(function_rndis.o)
 .text.rndis_func_ep0_din_stage_comp
                0x00405930       0x1c ../../../../../../../PLAT/prebuild/PLAT/lib/gcc/libusbbl_priv.a(function_rndis.o)
 .text.rndis_func_internal_listbuf_src_isvalid.isra.0
                0x0040594c       0x28 ../../../../../../../PLAT/prebuild/PLAT/lib/gcc/libusbbl_priv.a(function_rndis.o)
 .text.rndis_func_internal_encbuf_src_isvalid.isra.0
                0x00405974        0x8 ../../../../../../../PLAT/prebuild/PLAT/lib/gcc/libusbbl_priv.a(function_rndis.o)
 .text.rndis_func_external_encbuf_src_isvalid.isra.0
                0x0040597c        0x8 ../../../../../../../PLAT/prebuild/PLAT/lib/gcc/libusbbl_priv.a(function_rndis.o)
 .text.rndis_func_setup
                0x00405984       0xce ../../../../../../../PLAT/prebuild/PLAT/lib/gcc/libusbbl_priv.a(function_rndis.o)
 .text.rndis_func_query
                0x00405a52       0x1c ../../../../../../../PLAT/prebuild/PLAT/lib/gcc/libusbbl_priv.a(function_rndis.o)
                0x00405a52                rndis_func_query
 .text.rndis_func_set_msg
                0x00405a6e       0x1c ../../../../../../../PLAT/prebuild/PLAT/lib/gcc/libusbbl_priv.a(function_rndis.o)
                0x00405a6e                rndis_func_set_msg
 .text.rndis_func_ep0_dout_stage_comp
                0x00405a8a      0x158 ../../../../../../../PLAT/prebuild/PLAT/lib/gcc/libusbbl_priv.a(function_rndis.o)
 .text.rndis_func_doep_notify_lnkmd_get_epnum
                0x00405be2        0xa ../../../../../../../PLAT/prebuild/PLAT/lib/gcc/libusbbl_priv.a(function_rndis.o)
                0x00405be2                rndis_func_doep_notify_lnkmd_get_epnum
 .text.rndis_func_string_bind
                0x00405bec       0x66 ../../../../../../../PLAT/prebuild/PLAT/lib/gcc/libusbbl_priv.a(function_rndis.o)
                0x00405bec                rndis_func_string_bind
 .text.rndis_func_bind
                0x00405c52      0x142 ../../../../../../../PLAT/prebuild/PLAT/lib/gcc/libusbbl_priv.a(function_rndis.o)
                0x00405c52                rndis_func_bind
 .rodata.str1.1
                0x00405d94        0xd ../../../../../../../PLAT/prebuild/PLAT/lib/gcc/libusbbl_priv.a(function_rndis.o)
 .rodata        0x00405d94        0x9 ../../../../../../../PLAT/prebuild/PLAT/lib/gcc/libusbbl_priv.a(function_rndis.o)
 *innophy.o(.text* .rodata*)
 *fill*         0x00405d9d        0x1 
 .text.usblpw_innophy_enter_patch
                0x00405d9e       0x14 ../../../../../../../PLAT/prebuild/PLAT/lib/gcc/libusbbl_priv.a(innophy.o)
                0x00405d9e                usblpw_innophy_enter_patch
 .text.usblpw_innophy_exit_patch
                0x00405db2       0x14 ../../../../../../../PLAT/prebuild/PLAT/lib/gcc/libusbbl_priv.a(innophy.o)
                0x00405db2                usblpw_innophy_exit_patch
 .text.usb_innophy_norm_suspend_enterpatch
                0x00405dc6        0x4 ../../../../../../../PLAT/prebuild/PLAT/lib/gcc/libusbbl_priv.a(innophy.o)
                0x00405dc6                usb_innophy_norm_suspend_enterpatch
 .text.usb_innophy_norm_suspend_exitpatch
                0x00405dca        0x4 ../../../../../../../PLAT/prebuild/PLAT/lib/gcc/libusbbl_priv.a(innophy.o)
                0x00405dca                usb_innophy_norm_suspend_exitpatch
                0x00405dd0                . = ALIGN (0x4)
 *fill*         0x00405dce        0x2 
                0x00005dd0                Image$$LOAD_IRAM_USB$$Length = SIZEOF (.load_iram_usb)

.load_dram_usb_data
                0x00408000      0x47c load address 0x0080ac44
                0x00408000                . = ALIGN (0x4)
                0x0080ac44                Load$$LOAD_DRAM_USB_DATA$$Base = LOADADDR (.load_dram_usb_data)
                0x00408000                Image$$LOAD_DRAM_USB_DATA$$Base = .
 *usb*.o(.data*)
 .data.usbd_dev_desc_arr
                0x00408000       0x12 ../../../../../../../PLAT/gccout/ec618_0h00/ap/bootloader/lib/libdriver.a(usbd_proc_cb_custom.o)
                0x00408000                usbd_dev_desc_arr
 .data.usbd_dev_langid_desc
                0x00408012        0x4 ../../../../../../../PLAT/gccout/ec618_0h00/ap/bootloader/lib/libdriver.a(usbd_proc_cb_custom.o)
                0x00408012                usbd_dev_langid_desc
 .data.usbd_dev_qualifier_desc_arr
                0x00408016        0xa ../../../../../../../PLAT/gccout/ec618_0h00/ap/bootloader/lib/libdriver.a(usbd_proc_cb_custom.o)
                0x00408016                usbd_dev_qualifier_desc_arr
 .data.t_multidev_custom_info
                0x00408020       0x34 ../../../../../../../PLAT/gccout/ec618_0h00/ap/bootloader/lib/libdriver.a(usbd_multi_usrcfg_custom.o)
 .data.t_usbd_multidev_ccinst_res
                0x00408054       0x10 ../../../../../../../PLAT/gccout/ec618_0h00/ap/bootloader/lib/libdriver.a(usbd_multi_usrcfg_custom.o)
                0x00408054                t_usbd_multidev_ccinst_res
 .data.usbd_multi_cb
                0x00408064       0x40 ../../../../../../../PLAT/prebuild/PLAT/lib/gcc/libusbbl_priv.a(usbd_multi.o)
                0x00408064                usbd_multi_cb
 .data.t_usbcustom_multidev_ops
                0x004080a4       0x1c ../../../../../../../PLAT/prebuild/PLAT/lib/gcc/libusbbl_priv.a(usbd_multi_usrcfg_lib.o)
                0x004080a4                t_usbcustom_multidev_ops
 .data.t_udev_desc_cb_ops
                0x004080c0       0x24 ../../../../../../../PLAT/prebuild/PLAT/lib/gcc/libusbbl_priv.a(usbd_proc_cb_lib.o)
                0x004080c0                t_udev_desc_cb_ops
 .data.t_udev_notify_cb_ops
                0x004080e4       0x1c ../../../../../../../PLAT/prebuild/PLAT/lib/gcc/libusbbl_priv.a(usbd_proc_cb_lib.o)
                0x004080e4                t_udev_notify_cb_ops
 .data.p_usbc_dev_int_fops
                0x00408100        0x4 ../../../../../../../PLAT/prebuild/PLAT/lib/gcc/libusbbl_priv.a(usbpcd_proc.o)
                0x00408100                p_usbc_dev_int_fops
 .data.t_usbc_int_cb
                0x00408104       0x24 ../../../../../../../PLAT/prebuild/PLAT/lib/gcc/libusbbl_priv.a(usbpcd_proc.o)
                0x00408104                t_usbc_int_cb
 .data.addr_new
                0x00408128        0x4 ../../../../../../../PLAT/prebuild/PLAT/lib/gcc/libusbbl_priv.a(usbpcd_proc_api.o)
                0x00408128                addr_new
 .data.addr_old
                0x0040812c        0x4 ../../../../../../../PLAT/prebuild/PLAT/lib/gcc/libusbbl_priv.a(usbpcd_proc_api.o)
                0x0040812c                addr_old
 *rndis_protocol.o(.data*)
 *device_vcom.o(.data*)
 .data.clsdev_vcom_ops
                0x00408130       0x18 ../../../../../../../PLAT/prebuild/PLAT/lib/gcc/libusbbl_priv.a(device_vcom.o)
                0x00408130                clsdev_vcom_ops
 .data.dev_serial_vcom_ops
                0x00408148       0x20 ../../../../../../../PLAT/prebuild/PLAT/lib/gcc/libusbbl_priv.a(device_vcom.o)
                0x00408148                dev_serial_vcom_ops
 .data.t_udev_vcom0_cls_entry
                0x00408168       0x18 ../../../../../../../PLAT/prebuild/PLAT/lib/gcc/libusbbl_priv.a(device_vcom.o)
                0x00408168                t_udev_vcom0_cls_entry
 .data.t_udev_vcom1_cls_entry
                0x00408180       0x18 ../../../../../../../PLAT/prebuild/PLAT/lib/gcc/libusbbl_priv.a(device_vcom.o)
                0x00408180                t_udev_vcom1_cls_entry
 .data.t_udev_vcom2_cls_entry
                0x00408198       0x18 ../../../../../../../PLAT/prebuild/PLAT/lib/gcc/libusbbl_priv.a(device_vcom.o)
                0x00408198                t_udev_vcom2_cls_entry
 .data.t_udev_vcom3_cls_entry
                0x004081b0       0x18 ../../../../../../../PLAT/prebuild/PLAT/lib/gcc/libusbbl_priv.a(device_vcom.o)
                0x004081b0                t_udev_vcom3_cls_entry
 *device_rndis.o(.data*)
 .data.clsdev_rndis_ops
                0x004081c8       0x18 ../../../../../../../PLAT/prebuild/PLAT/lib/gcc/libusbbl_priv.a(device_rndis.o)
                0x004081c8                clsdev_rndis_ops
 .data.dev_eth_rndis_ops
                0x004081e0       0x24 ../../../../../../../PLAT/prebuild/PLAT/lib/gcc/libusbbl_priv.a(device_rndis.o)
                0x004081e0                dev_eth_rndis_ops
 .data.t_udev_rndis0_cls_entry
                0x00408204       0x18 ../../../../../../../PLAT/prebuild/PLAT/lib/gcc/libusbbl_priv.a(device_rndis.o)
                0x00408204                t_udev_rndis0_cls_entry
 *lib_list.o(.data*)
 *lib_rbuf.o(.data*)
 *func_dbg.o(.data*)
 *function_vcom.o(.data*)
 *function_rndis.o(.data*)
 .data.connect_status
                0x0040821c        0x4 ../../../../../../../PLAT/prebuild/PLAT/lib/gcc/libusbbl_priv.a(function_rndis.o)
                0x0040821c                connect_status
 .data.rndis_func_mtd
                0x00408220       0x40 ../../../../../../../PLAT/prebuild/PLAT/lib/gcc/libusbbl_priv.a(function_rndis.o)
                0x00408220                rndis_func_mtd
 .data.rndis_trans_api
                0x00408260       0x18 ../../../../../../../PLAT/prebuild/PLAT/lib/gcc/libusbbl_priv.a(function_rndis.o)
                0x00408260                rndis_trans_api
 .data.rndis_trans_inst_ctrl
                0x00408278       0x20 ../../../../../../../PLAT/prebuild/PLAT/lib/gcc/libusbbl_priv.a(function_rndis.o)
                0x00408278                rndis_trans_inst_ctrl
 .data.t_func_rndis_data
                0x00408298      0x114 ../../../../../../../PLAT/prebuild/PLAT/lib/gcc/libusbbl_priv.a(function_rndis.o)
                0x00408298                t_func_rndis_data
 .data.usb_func_rndis
                0x004083ac       0x38 ../../../../../../../PLAT/prebuild/PLAT/lib/gcc/libusbbl_priv.a(function_rndis.o)
                0x004083ac                usb_func_rndis
 .data.usbd_rndis_config_desc
                0x004083e4       0x4b ../../../../../../../PLAT/prebuild/PLAT/lib/gcc/libusbbl_priv.a(function_rndis.o)
                0x004083e4                usbd_rndis_config_desc
 .data.usbd_rndis_other_config_desc
                0x0040842f       0x4b ../../../../../../../PLAT/prebuild/PLAT/lib/gcc/libusbbl_priv.a(function_rndis.o)
                0x0040842f                usbd_rndis_other_config_desc
 *innophy.o(.data*)
                0x0040847c                . = ALIGN (0x4)
 *fill*         0x0040847a        0x2 
                0x0000047c                Image$$LOAD_DRAM_USB_DATA$$Length = SIZEOF (.load_dram_usb_data)

.load_dram_usb_zi
                0x0040847c     0x15d8 load address 0x0080b0c0
                0x0040847c                . = ALIGN (0x4)
                0x0040847c                Image$$LOAD_DRAM_USB_DATA$$ZI$$Base = .
 *usb*.o(.bss*)
 .bss.udev_last_err
                0x0040847c        0x4 ../../../../../../../PLAT/gccout/ec618_0h00/ap/bootloader/lib/libdriver.a(usbd_proc_cb_custom.o)
                0x0040847c                udev_last_err
 .bss.g_usbd_glb_info
                0x00408480       0x58 ../../../../../../../PLAT/prebuild/PLAT/lib/gcc/libusbbl_priv.a(usbd_funclib.o)
                0x00408480                g_usbd_glb_info
 .bss.sw_eptype_reg_bits
                0x004084d8        0x2 ../../../../../../../PLAT/prebuild/PLAT/lib/gcc/libusbbl_priv.a(usbd_funclib.o)
                0x004084d8                sw_eptype_reg_bits
 *fill*         0x004084da        0x2 
 .bss.t_usbd_multi_ep_record
                0x004084dc       0x6c ../../../../../../../PLAT/prebuild/PLAT/lib/gcc/libusbbl_priv.a(usbd_funclib.o)
 .bss.tftc_eptype_reg_bits
                0x00408548        0x2 ../../../../../../../PLAT/prebuild/PLAT/lib/gcc/libusbbl_priv.a(usbd_funclib.o)
                0x00408548                tftc_eptype_reg_bits
 .bss.usbd_multi_config_desc
                0x0040854a      0x190 ../../../../../../../PLAT/prebuild/PLAT/lib/gcc/libusbbl_priv.a(usbd_multi.o)
                0x0040854a                usbd_multi_config_desc
 .bss.usbd_multi_other_config_desc
                0x004086da      0x190 ../../../../../../../PLAT/prebuild/PLAT/lib/gcc/libusbbl_priv.a(usbd_multi.o)
                0x004086da                usbd_multi_other_config_desc
 *fill*         0x0040886a        0x2 
 .bss.t_multidev_load_info
                0x0040886c       0x4c ../../../../../../../PLAT/prebuild/PLAT/lib/gcc/libusbbl_priv.a(usbd_multi_usrcfg_lib.o)
 .bss.ulog_cls_cache_entry
                0x004088b8        0x4 ../../../../../../../PLAT/prebuild/PLAT/lib/gcc/libusbbl_priv.a(usbd_multi_usrcfg_lib.o)
                0x004088b8                ulog_cls_cache_entry
 .bss.ulog_cls_cache_stat
                0x004088bc        0x1 ../../../../../../../PLAT/prebuild/PLAT/lib/gcc/libusbbl_priv.a(usbd_multi_usrcfg_lib.o)
                0x004088bc                ulog_cls_cache_stat
 *fill*         0x004088bd        0x3 
 .bss.usbd_mutli_bind_pfn_tbl
                0x004088c0       0x1c ../../../../../../../PLAT/prebuild/PLAT/lib/gcc/libusbbl_priv.a(usbd_multi_usrcfg_lib.o)
                0x004088c0                usbd_mutli_bind_pfn_tbl
 .bss.usbd_mutli_func_tbl
                0x004088dc       0x1c ../../../../../../../PLAT/prebuild/PLAT/lib/gcc/libusbbl_priv.a(usbd_multi_usrcfg_lib.o)
                0x004088dc                usbd_mutli_func_tbl
 .bss.p_func_usbd_get_misc_str
                0x004088f8        0x4 ../../../../../../../PLAT/prebuild/PLAT/lib/gcc/libusbbl_priv.a(usbd_proc_cb_lib.o)
                0x004088f8                p_func_usbd_get_misc_str
 .bss.g_setup_packet
                0x004088fc       0x18 ../../../../../../../PLAT/prebuild/PLAT/lib/gcc/libusbbl_priv.a(usbc_ctrl.o)
                0x004088fc                g_setup_packet
 .bss.setup_req_arr
                0x00408914      0xc80 ../../../../../../../PLAT/prebuild/PLAT/lib/gcc/libusbbl_priv.a(usbc_trace.o)
                0x00408914                setup_req_arr
 .bss.setup_req_idx
                0x00409594        0x4 ../../../../../../../PLAT/prebuild/PLAT/lib/gcc/libusbbl_priv.a(usbc_trace.o)
                0x00409594                setup_req_idx
 .bss.setup_req_total_cnt
                0x00409598        0x4 ../../../../../../../PLAT/prebuild/PLAT/lib/gcc/libusbbl_priv.a(usbc_trace.o)
                0x00409598                setup_req_total_cnt
 .bss.t_usbc_trace_switch
                0x0040959c        0x4 ../../../../../../../PLAT/prebuild/PLAT/lib/gcc/libusbbl_priv.a(usbc_trace.o)
                0x0040959c                t_usbc_trace_switch
 .bss.t_usbd_enum_trace_arr
                0x004095a0       0x64 ../../../../../../../PLAT/prebuild/PLAT/lib/gcc/libusbbl_priv.a(usbc_trace.o)
                0x004095a0                t_usbd_enum_trace_arr
 .bss.t_usbd_enum_trace_arr_tick
                0x00409604      0x190 ../../../../../../../PLAT/prebuild/PLAT/lib/gcc/libusbbl_priv.a(usbc_trace.o)
                0x00409604                t_usbd_enum_trace_arr_tick
 .bss.t_usbd_enum_trace_idx
                0x00409794        0x4 ../../../../../../../PLAT/prebuild/PLAT/lib/gcc/libusbbl_priv.a(usbc_trace.o)
                0x00409794                t_usbd_enum_trace_idx
 .bss.t_usbd_enum_trace_totalcnt
                0x00409798        0x4 ../../../../../../../PLAT/prebuild/PLAT/lib/gcc/libusbbl_priv.a(usbc_trace.o)
                0x00409798                t_usbd_enum_trace_totalcnt
 .bss.set_test_mode
                0x0040979c        0x4 ../../../../../../../PLAT/prebuild/PLAT/lib/gcc/libusbbl_priv.a(usbpcd_proc.o)
                0x0040979c                set_test_mode
 .bss.cfgidx.0  0x004097a0        0x1 ../../../../../../../PLAT/prebuild/PLAT/lib/gcc/libusbbl_priv.a(usbpcd_proc_api.o)
 .bss.usbd_dev_str_desc
                0x004097a1       0x40 ../../../../../../../PLAT/prebuild/PLAT/lib/gcc/libusbbl_priv.a(usbpcd_proc_api.o)
                0x004097a1                usbd_dev_str_desc
 *fill*         0x004097e1        0x3 
 .bss.usbpcd_default_cfg
                0x004097e4        0x4 ../../../../../../../PLAT/prebuild/PLAT/lib/gcc/libusbbl_priv.a(usbpcd_proc_api.o)
                0x004097e4                usbpcd_default_cfg
 .bss.usbpcd_dev_status
                0x004097e8        0x4 ../../../../../../../PLAT/prebuild/PLAT/lib/gcc/libusbbl_priv.a(usbpcd_proc_api.o)
                0x004097e8                usbpcd_dev_status
 .bss.usbpcd_ep_status
                0x004097ec        0x4 ../../../../../../../PLAT/prebuild/PLAT/lib/gcc/libusbbl_priv.a(usbpcd_proc_api.o)
                0x004097ec                usbpcd_ep_status
 *rndis_protocol.o(.bss*)
 *device_vcom.o(.bss*)
 .bss.udev_vcom0
                0x004097f0       0x74 ../../../../../../../PLAT/prebuild/PLAT/lib/gcc/libusbbl_priv.a(device_vcom.o)
                0x004097f0                udev_vcom0
 .bss.udev_vcom1
                0x00409864       0x74 ../../../../../../../PLAT/prebuild/PLAT/lib/gcc/libusbbl_priv.a(device_vcom.o)
                0x00409864                udev_vcom1
 .bss.udev_vcom2
                0x004098d8       0x74 ../../../../../../../PLAT/prebuild/PLAT/lib/gcc/libusbbl_priv.a(device_vcom.o)
                0x004098d8                udev_vcom2
 .bss.udev_vcom3
                0x0040994c       0x74 ../../../../../../../PLAT/prebuild/PLAT/lib/gcc/libusbbl_priv.a(device_vcom.o)
                0x0040994c                udev_vcom3
 *device_rndis.o(.bss*)
 .bss.udev_rndis0
                0x004099c0       0x64 ../../../../../../../PLAT/prebuild/PLAT/lib/gcc/libusbbl_priv.a(device_rndis.o)
                0x004099c0                udev_rndis0
 *lib_list.o(.bss*)
 *lib_rbuf.o(.bss*)
 *func_dbg.o(.bss*)
 *function_vcom.o(.bss*)
 *function_rndis.o(.bss*)
 .bss.FrameCount.0
                0x00409a24        0x4 ../../../../../../../PLAT/prebuild/PLAT/lib/gcc/libusbbl_priv.a(function_rndis.o)
 .bss.g_rndis_reset_cnt
                0x00409a28        0x1 ../../../../../../../PLAT/prebuild/PLAT/lib/gcc/libusbbl_priv.a(function_rndis.o)
                0x00409a28                g_rndis_reset_cnt
 *fill*         0x00409a29        0x3 
 .bss.rndis_str_container_tbl
                0x00409a2c       0x10 ../../../../../../../PLAT/prebuild/PLAT/lib/gcc/libusbbl_priv.a(function_rndis.o)
                0x00409a2c                rndis_str_container_tbl
 .bss.t_func_cfg_inst
                0x00409a3c        0x8 ../../../../../../../PLAT/prebuild/PLAT/lib/gcc/libusbbl_priv.a(function_rndis.o)
 .bss.t_rndis_context
                0x00409a44       0x10 ../../../../../../../PLAT/prebuild/PLAT/lib/gcc/libusbbl_priv.a(function_rndis.o)
                0x00409a44                t_rndis_context
 *innophy.o(.bss*)
                0x00409a54                . = ALIGN (0x4)
                0x00409a54                Image$$LOAD_DRAM_USB_DATA$$ZI$$Limit = .

.load_iram      0x00004000      0x83c load address 0x0080b0c0
                0x00004000                . = ALIGN (0x4)
                0x0080b0c0                Load$$LOAD_IRAM$$Base = LOADADDR (.load_iram)
                0x00004000                Image$$LOAD_IRAM$$Base = .
 *flash.o(.text*)
 .text.Flash_MFID_Get
                0x00004000        0xc ../../../../../../../PLAT/prebuild/PLAT/lib/gcc/libdriver_private_bl.a(flash.o)
 .text.IsInterruptPending
                0x0000400c       0x32 ../../../../../../../PLAT/prebuild/PLAT/lib/gcc/libdriver_private_bl.a(flash.o)
 .text.QSPI_WriteEnableVolatile
                0x0000403e       0x20 ../../../../../../../PLAT/prebuild/PLAT/lib/gcc/libdriver_private_bl.a(flash.o)
 .text.QSPI_FLASH_ReadDeviceID_Internal
                0x0000405e       0x38 ../../../../../../../PLAT/prebuild/PLAT/lib/gcc/libdriver_private_bl.a(flash.o)
 .text.Flash_MFID_Init
                0x00004096       0x22 ../../../../../../../PLAT/prebuild/PLAT/lib/gcc/libdriver_private_bl.a(flash.o)
 .text.QSPI_PollingWriteEnFlag
                0x000040b8       0x40 ../../../../../../../PLAT/prebuild/PLAT/lib/gcc/libdriver_private_bl.a(flash.o)
 .text.QSPI_WriteEnable
                0x000040f8       0x28 ../../../../../../../PLAT/prebuild/PLAT/lib/gcc/libdriver_private_bl.a(flash.o)
 .text.QSPI_PollingBusyFlag
                0x00004120       0x44 ../../../../../../../PLAT/prebuild/PLAT/lib/gcc/libdriver_private_bl.a(flash.o)
 .text.QSPI_PollingQEnFlag
                0x00004164       0x46 ../../../../../../../PLAT/prebuild/PLAT/lib/gcc/libdriver_private_bl.a(flash.o)
 .text.QSPI_PollingBusyFlagOnce
                0x000041aa       0x3e ../../../../../../../PLAT/prebuild/PLAT/lib/gcc/libdriver_private_bl.a(flash.o)
 .text.FLASH_Resume.constprop.0
                0x000041e8       0x22 ../../../../../../../PLAT/prebuild/PLAT/lib/gcc/libdriver_private_bl.a(flash.o)
 .text.FLASH_Suspend.constprop.0
                0x0000420a       0x30 ../../../../../../../PLAT/prebuild/PLAT/lib/gcc/libdriver_private_bl.a(flash.o)
 .text.BSP_QSPI_Write_Volatile_Status_Reg
                0x0000423a       0xd4 ../../../../../../../PLAT/prebuild/PLAT/lib/gcc/libdriver_private_bl.a(flash.o)
                0x0000423a                BSP_QSPI_Write_Volatile_Status_Reg
 .text.BSP_QSPI_Read_Status_Reg
                0x0000430e       0xb4 ../../../../../../../PLAT/prebuild/PLAT/lib/gcc/libdriver_private_bl.a(flash.o)
                0x0000430e                BSP_QSPI_Read_Status_Reg
 .text.BSP_QSPI_Init
                0x000043c2       0xcc ../../../../../../../PLAT/prebuild/PLAT/lib/gcc/libdriver_private_bl.a(flash.o)
                0x000043c2                BSP_QSPI_Init
 .text.BSP_QSPI_Read
                0x0000448e       0x64 ../../../../../../../PLAT/prebuild/PLAT/lib/gcc/libdriver_private_bl.a(flash.o)
                0x0000448e                BSP_QSPI_Read
 .text.BSP_QSPI_XIP_Read
                0x000044f2       0x18 ../../../../../../../PLAT/prebuild/PLAT/lib/gcc/libdriver_private_bl.a(flash.o)
                0x000044f2                BSP_QSPI_XIP_Read
 .text.IsHardFault
                0x0000450a       0x20 ../../../../../../../PLAT/prebuild/PLAT/lib/gcc/libdriver_private_bl.a(flash.o)
                0x0000450a                IsHardFault
 .text.FLASH_ProtectCheck
                0x0000452a       0x54 ../../../../../../../PLAT/prebuild/PLAT/lib/gcc/libdriver_private_bl.a(flash.o)
                0x0000452a                FLASH_ProtectCheck
 .text.FLASH_RestoreProtect
                0x0000457e        0x8 ../../../../../../../PLAT/prebuild/PLAT/lib/gcc/libdriver_private_bl.a(flash.o)
                0x0000457e                FLASH_RestoreProtect
 .text.BSP_QSPI_Erase_Sector_Safe
                0x00004586       0xe4 ../../../../../../../PLAT/prebuild/PLAT/lib/gcc/libdriver_private_bl.a(flash.o)
                0x00004586                BSP_QSPI_Erase_Sector_Safe
 .text.BSP_QSPI_Write
                0x0000466a       0xf6 ../../../../../../../PLAT/prebuild/PLAT/lib/gcc/libdriver_private_bl.a(flash.o)
                0x0000466a                BSP_QSPI_Write
 .text.BSP_QSPI_Erase_Sector
                0x00004760       0xa2 ../../../../../../../PLAT/prebuild/PLAT/lib/gcc/libdriver_private_bl.a(flash.o)
                0x00004760                BSP_QSPI_Erase_Sector
 .text.BSP_QSPI_SWReset
                0x00004802       0x3a ../../../../../../../PLAT/prebuild/PLAT/lib/gcc/libdriver_private_bl.a(flash.o)
                0x00004802                BSP_QSPI_SWReset
                0x0000483c                . = ALIGN (0x4)
                0x0000083c                Image$$LOAD_IRAM$$Length = SIZEOF (.load_iram)

.load_dram_shared_data
                0x00007000     0x1424 load address 0x0080b8fc
                0x00007000                . = ALIGN (0x4)
                0x0080b8fc                Load$$LOAD_DRAM_SHARED$$Base = LOADADDR (.load_dram_shared_data)
                0x00007000                Image$$LOAD_DRAM_SHARED$$Base = .
 *(.data*)
 .data._impure_ptr
                0x00007000        0x4 e:/work/meig/ec618/ec618_sdk_rel_sdk/plat/tools/gcc/bin/../lib/gcc/arm-none-eabi/10.2.1/../../../../arm-none-eabi/lib/thumb/v7-m/nofp\libc_nano.a(lib_a-impure.o)
                0x00007000                _impure_ptr
 .data.impure_data
                0x00007004       0x60 e:/work/meig/ec618/ec618_sdk_rel_sdk/plat/tools/gcc/bin/../lib/gcc/arm-none-eabi/10.2.1/../../../../arm-none-eabi/lib/thumb/v7-m/nofp\libc_nano.a(lib_a-impure.o)
 .data.SystemCoreClock
                0x00007064        0x4 ../../../../../../../PLAT/gccout/ec618_0h00/ap/bootloader/lib/libstartup.a(system_ec618.o)
                0x00007064                SystemCoreClock
 .data.dmaTxConfig
                0x00007068       0x10 ../../../../../../../PLAT/gccout/ec618_0h00/ap/bootloader/lib/libdriver.a(bsp_usart.o)
 .data.g_clkTreeArray
                0x00007078      0x1b4 ../../../../../../../PLAT/gccout/ec618_0h00/ap/bootloader/lib/libdriver.a(clock.o)
 .data.t_vcom_custp0_setting_arr
                0x0000722c       0x70 ../../../../../../../PLAT/gccout/ec618_0h00/ap/bootloader/lib/libdriver.a(function_vcom_inherent.o)
                0x0000722c                t_vcom_custp0_setting_arr
 .data.t_vcom_func_custp0_inhrnt_arr
                0x0000729c       0x90 ../../../../../../../PLAT/gccout/ec618_0h00/ap/bootloader/lib/libdriver.a(function_vcom_inherent.o)
                0x0000729c                t_vcom_func_custp0_inhrnt_arr
 .data.URCBaudValue
                0x0000732c        0x4 ../../../../../../../PLAT/prebuild/PLAT/lib/gcc/libbootloader.a(bl_bsp.o)
                0x0000732c                URCBaudValue
 .data.URCSelSerlType
                0x00007330        0x1 ../../../../../../../PLAT/prebuild/PLAT/lib/gcc/libbootloader.a(bl_bsp.o)
                0x00007330                URCSelSerlType
 .data.UsartAtCmdPortIdx
                0x00007331        0x1 ../../../../../../../PLAT/prebuild/PLAT/lib/gcc/libbootloader.a(bl_bsp.o)
                0x00007331                UsartAtCmdPortIdx
 *fill*         0x00007332        0x2 
 .data.WdtTimeCntValue
                0x00007334        0x4 ../../../../../../../PLAT/prebuild/PLAT/lib/gcc/libbootloader.a(bl_bsp.o)
                0x00007334                WdtTimeCntValue
 .data          0x00007338      0x400 ../../../../../../../PLAT/prebuild/PLAT/lib/gcc/libdeltapatch.a(crctable.o)
                0x00007338                BZ2_crc32Table
 .data          0x00007738      0x800 ../../../../../../../PLAT/prebuild/PLAT/lib/gcc/libdeltapatch.a(randtable.o)
                0x00007738                BZ2_rNums
 .data          0x00007f38       0x34 ../../../../../../../PLAT/prebuild/PLAT/lib/gcc/libdeltapatch.a(fakefs.o)
                0x00007f38                fakefs_src_map_zoneid
                0x00007f3c                fakefs_dlt_map_zoneid
                0x00007f40                fakefs_dst_map_zoneid
                0x00007f44                fakefs_dex_map_zoneid
                0x00007f48                fakefs_src_base
                0x00007f4c                fakefs_src_size
                0x00007f50                fakefs_dlt_base
                0x00007f54                fakefs_dlt_size
                0x00007f58                fakefs_dst_base
                0x00007f5c                fakefs_dst_size
                0x00007f60                fakefs_dex_base
                0x00007f64                fakefs_dex_size
                0x00007f68                fota_main_file_end
 .data.g_fotaSchemOemNam
                0x00007f6c       0x40 ../../../../../../../PLAT/prebuild/PLAT/lib/gcc/libfota.a(fota_man.o)
 .data.gupid.2  0x00007fac        0x2 ../../../../../../../PLAT/prebuild/PLAT/lib/gcc/libfota.a(fota_man.o)
 *fill*         0x00007fae        0x2 
 .data.g_fotaExCallbacks
                0x00007fb0       0x3c ../../../../../../../PLAT/prebuild/PLAT/lib/gcc/libfota.a(fota_hub.o)
 .data.tFlashInfo
                0x00007fec        0x1 ../../../../../../../PLAT/prebuild/PLAT/lib/gcc/libdriver_private_bl.a(flash.o)
                0x00007fec                tFlashInfo
 *fill*         0x00007fed        0x3 
 .data.gClkEnableRegisterAddress
                0x00007ff0       0x24 ../../../../../../../PLAT/prebuild/PLAT/lib/gcc/libdriver_private_bl.a(gpr.o)
                0x00007ff0                gClkEnableRegisterAddress
 .data.gClkResetRegisterAddress
                0x00008014       0x1c ../../../../../../../PLAT/prebuild/PLAT/lib/gcc/libdriver_private_bl.a(gpr.o)
                0x00008014                gClkResetRegisterAddress
 .data.clsdev_ecm_ops
                0x00008030       0x18 ../../../../../../../PLAT/prebuild/PLAT/lib/gcc/libusbbl_priv.a(device_ecm.o)
                0x00008030                clsdev_ecm_ops
 .data.dev_eth_ecm_ops
                0x00008048       0x24 ../../../../../../../PLAT/prebuild/PLAT/lib/gcc/libusbbl_priv.a(device_ecm.o)
                0x00008048                dev_eth_ecm_ops
 .data.t_udev_ecm0_cls_entry
                0x0000806c       0x18 ../../../../../../../PLAT/prebuild/PLAT/lib/gcc/libusbbl_priv.a(device_ecm.o)
                0x0000806c                t_udev_ecm0_cls_entry
 .data.t_tplfunc_vcom_data
                0x00008084       0xc0 ../../../../../../../PLAT/prebuild/PLAT/lib/gcc/libusbbl_priv.a(function_vcom_tpl.o)
                0x00008084                t_tplfunc_vcom_data
 .data.usb_func_vcom
                0x00008144       0xe0 ../../../../../../../PLAT/prebuild/PLAT/lib/gcc/libusbbl_priv.a(function_vcom_tpl.o)
                0x00008144                usb_func_vcom
 .data.vcom_tplfunc_mtd
                0x00008224       0x40 ../../../../../../../PLAT/prebuild/PLAT/lib/gcc/libusbbl_priv.a(function_vcom_tpl.o)
                0x00008224                vcom_tplfunc_mtd
 .data.vcom_tplfunc_trans_api
                0x00008264       0x18 ../../../../../../../PLAT/prebuild/PLAT/lib/gcc/libusbbl_priv.a(function_vcom_tpl.o)
                0x00008264                vcom_tplfunc_trans_api
 .data.vcom_tplfunc_trans_inst_ctrl
                0x0000827c       0x24 ../../../../../../../PLAT/prebuild/PLAT/lib/gcc/libusbbl_priv.a(function_vcom_tpl.o)
                0x0000827c                vcom_tplfunc_trans_inst_ctrl
 .data.ecm_dev_local_string
                0x000082a0        0x4 ../../../../../../../PLAT/prebuild/PLAT/lib/gcc/libusbbl_priv.a(function_ecm.o)
                0x000082a0                ecm_dev_local_string
 .data.ecm_func_mtd
                0x000082a4       0x40 ../../../../../../../PLAT/prebuild/PLAT/lib/gcc/libusbbl_priv.a(function_ecm.o)
                0x000082a4                ecm_func_mtd
 .data.ecm_trans_api
                0x000082e4       0x18 ../../../../../../../PLAT/prebuild/PLAT/lib/gcc/libusbbl_priv.a(function_ecm.o)
                0x000082e4                ecm_trans_api
 .data.ecm_trans_inst_ctrl
                0x000082fc       0x1c ../../../../../../../PLAT/prebuild/PLAT/lib/gcc/libusbbl_priv.a(function_ecm.o)
                0x000082fc                ecm_trans_inst_ctrl
 .data.t_func_ecm_data
                0x00008318       0x34 ../../../../../../../PLAT/prebuild/PLAT/lib/gcc/libusbbl_priv.a(function_ecm.o)
                0x00008318                t_func_ecm_data
 .data.usb_func_ecm
                0x0000834c       0x38 ../../../../../../../PLAT/prebuild/PLAT/lib/gcc/libusbbl_priv.a(function_ecm.o)
                0x0000834c                usb_func_ecm
 .data.usbd_ecm_config_desc
                0x00008384       0x4f ../../../../../../../PLAT/prebuild/PLAT/lib/gcc/libusbbl_priv.a(function_ecm.o)
                0x00008384                usbd_ecm_config_desc
 .data.usbd_ecm_other_config_desc
                0x000083d3       0x4f ../../../../../../../PLAT/prebuild/PLAT/lib/gcc/libusbbl_priv.a(function_ecm.o)
                0x000083d3                usbd_ecm_other_config_desc
                0x00008424                . = ALIGN (0x4)
 *fill*         0x00008422        0x2 
                0x00001424                Image$$LOAD_DRAM_SHARED$$Length = SIZEOF (.load_dram_shared_data)

.load_dram_shared_zi
                0x00008430     0x2ba0 load address 0x0080cd20
                0x00008430                . = ALIGN (0x4)
                0x00008430                Image$$LOAD_DRAM_SHARED$$ZI$$Base = .
 *(.bss*)
 .bss.gFotaIsUsbUrcEn
                0x00008430        0x1 ../../../../../../../PLAT/gccout/ec618_0h00/ap/bootloader/PLAT/middleware/developed/fota/custom/src/fota_entry.o
 *fill*         0x00008431        0x3 
 .bss.gFotaNvmZoneMan
                0x00008434       0x94 ../../../../../../../PLAT/gccout/ec618_0h00/ap/bootloader/PLAT/middleware/developed/fota/custom/src/fota_nvm.o
 .bss.gFotaSha256Ctx
                0x000084c8       0x6c ../../../../../../../PLAT/gccout/ec618_0h00/ap/bootloader/PLAT/middleware/developed/fota/custom/src/fota_chksum.o
 .bss.heap_end.0
                0x00008534        0x4 ../../../../../../../PLAT/gccout/ec618_0h00/ap/bootloader/lib/libstartup.a(syscalls.o)
 .bss.gBlBootFlag
                0x00008538        0x4 ../../../../../../../PLAT/gccout/ec618_0h00/ap/bootloader/lib/libstartup.a(system_ec618.o)
                0x00008538                gBlBootFlag
 .bss.g_rawFlashPlatConfig
                0x0000853c       0x37 ../../../../../../../PLAT/gccout/ec618_0h00/ap/bootloader/lib/libdriver.a(plat_config.o)
                0x0000853c                g_rawFlashPlatConfig
 *fill*         0x00008573        0x1 
 .bss.USART0_Info
                0x00008574       0x3c ../../../../../../../PLAT/gccout/ec618_0h00/ap/bootloader/lib/libdriver.a(bsp_usart.o)
 .bss.USART1_Info
                0x000085b0       0x3c ../../../../../../../PLAT/gccout/ec618_0h00/ap/bootloader/lib/libdriver.a(bsp_usart.o)
 .bss.GBRInfo   0x000085ec       0x60 ../../../../../../../PLAT/prebuild/PLAT/lib/gcc/libbootloader.a(bl_bsp.o)
                0x000085ec                GBRInfo
 .bss.URCEnable
                0x0000864c        0x1 ../../../../../../../PLAT/prebuild/PLAT/lib/gcc/libbootloader.a(bl_bsp.o)
                0x0000864c                URCEnable
 .bss.URCPrintActive
                0x0000864d        0x1 ../../../../../../../PLAT/prebuild/PLAT/lib/gcc/libbootloader.a(bl_bsp.o)
                0x0000864d                URCPrintActive
 .bss.URCSelSerlIdx
                0x0000864e        0x1 ../../../../../../../PLAT/prebuild/PLAT/lib/gcc/libbootloader.a(bl_bsp.o)
                0x0000864e                URCSelSerlIdx
 *fill*         0x0000864f        0x1 
 .bss.UsartAtCmdHandle
                0x00008650        0x4 ../../../../../../../PLAT/prebuild/PLAT/lib/gcc/libbootloader.a(bl_bsp.o)
                0x00008650                UsartAtCmdHandle
 .bss.UsartPrintHandle
                0x00008654        0x4 ../../../../../../../PLAT/prebuild/PLAT/lib/gcc/libbootloader.a(bl_bsp.o)
                0x00008654                UsartPrintHandle
 .bss.UsartPrintPortIdx
                0x00008658        0x1 ../../../../../../../PLAT/prebuild/PLAT/lib/gcc/libbootloader.a(bl_bsp.o)
                0x00008658                UsartPrintPortIdx
 *fill*         0x00008659        0x3 
 .bss           0x0000865c       0x10 ../../../../../../../PLAT/prebuild/PLAT/lib/gcc/libdeltapatch.a(patch_main.o)
                0x00008664                tBsPatchContext
 .bss           0x0000866c     0x1084 ../../../../../../../PLAT/prebuild/PLAT/lib/gcc/libdeltapatch.a(fakefs.o)
                0x0000866c                fakefs_src_maponce_flag
                0x00008670                fakefs_dlt_maponce_flag
                0x00008674                fakefs_dst_maponce_flag
                0x00008678                fakefs_dex_maponce_flag
                0x0000867c                fakefs_zoneid_bind_flag
                0x00008680                fakefs_src_file_offst
                0x00008684                fakefs_delta_file_offst
                0x00008688                fakefs_dst_file_offst
                0x0000868c                fakefs_dext_file_offst
                0x00008690                tDeltaFile
                0x000086a8                tDstFile
                0x000086c0                tSrcFile
                0x000086d8                tDExtFile
                0x000086f0                FlashDataBuff
 .bss.dotCtrl.0
                0x000096f0        0x2 ../../../../../../../PLAT/prebuild/PLAT/lib/gcc/libfota.a(fota_man.o)
 *fill*         0x000096f2        0x2 
 .bss.g_fotaCtxMan
                0x000096f4      0x314 ../../../../../../../PLAT/prebuild/PLAT/lib/gcc/libfota.a(fota_man.o)
 .bss.g_fotaGusn
                0x00009a08        0x1 ../../../../../../../PLAT/prebuild/PLAT/lib/gcc/libfota.a(fota_man.o)
 *fill*         0x00009a09        0x3 
 .bss.g_fotaInitFlag
                0x00009a0c        0x4 ../../../../../../../PLAT/prebuild/PLAT/lib/gcc/libfota.a(fota_man.o)
 .bss.rptCtrl.1
                0x00009a10        0x2 ../../../../../../../PLAT/prebuild/PLAT/lib/gcc/libfota.a(fota_man.o)
 *fill*         0x00009a12        0x2 
 .bss.g_fotaCallbacks
                0x00009a14       0x3c ../../../../../../../PLAT/prebuild/PLAT/lib/gcc/libfota.a(fota_callbacks.o)
 .bss.gpt_fotaExInterface
                0x00009a50        0x4 ../../../../../../../PLAT/prebuild/PLAT/lib/gcc/libfota.a(fota_hub.o)
 .bss.hCpXIP    0x00009a54       0x54 ../../../../../../../PLAT/prebuild/PLAT/lib/gcc/libdriver_private_bl.a(cpxip.o)
                0x00009a54                hCpXIP
 .bss.hqspi     0x00009aa8       0x54 ../../../../../../../PLAT/prebuild/PLAT/lib/gcc/libdriver_private_bl.a(qspi.o)
                0x00009aa8                hqspi
 .bss.gFlashOpCallback
                0x00009afc        0x4 ../../../../../../../PLAT/prebuild/PLAT/lib/gcc/libdriver_private_bl.a(flash.o)
                0x00009afc                gFlashOpCallback
 .bss.apXic0IsrTbl
                0x00009b00       0x80 ../../../../../../../PLAT/prebuild/PLAT/lib/gcc/libdriver_private_bl.a(ic.o)
                0x00009b00                apXic0IsrTbl
 .bss.apXic1IsrTbl
                0x00009b80       0x80 ../../../../../../../PLAT/prebuild/PLAT/lib/gcc/libdriver_private_bl.a(ic.o)
                0x00009b80                apXic1IsrTbl
 .bss.apXic2IsrTbl
                0x00009c00       0x80 ../../../../../../../PLAT/prebuild/PLAT/lib/gcc/libdriver_private_bl.a(ic.o)
                0x00009c00                apXic2IsrTbl
 .bss.apXic3IsrTbl
                0x00009c80       0x80 ../../../../../../../PLAT/prebuild/PLAT/lib/gcc/libdriver_private_bl.a(ic.o)
                0x00009c80                apXic3IsrTbl
 .bss.mask      0x00009d00        0x4 ../../../../../../../PLAT/prebuild/PLAT/lib/gcc/libdriver_private_bl.a(ic.o)
 .bss.gAp2CpAccessCnt
                0x00009d04        0x4 ../../../../../../../PLAT/prebuild/PLAT/lib/gcc/libdriver_private_bl.a(gpr.o)
 *fill*         0x00009d08        0x8 
 .bss.gApDmaChannelControl
                0x00009d10       0x48 ../../../../../../../PLAT/prebuild/PLAT/lib/gcc/libdriver_private_bl.a(dma.o)
 .bss.gDmaChannelWorkingStatusArray
                0x00009d58        0x8 ../../../../../../../PLAT/prebuild/PLAT/lib/gcc/libdriver_private_bl.a(dma.o)
 .bss.gIsDmaInited
                0x00009d60        0x4 ../../../../../../../PLAT/prebuild/PLAT/lib/gcc/libdriver_private_bl.a(dma.o)
 *fill*         0x00009d64        0xc 
 .bss.gMpDmaChannelControl
                0x00009d70       0xc0 ../../../../../../../PLAT/prebuild/PLAT/lib/gcc/libdriver_private_bl.a(dma.o)
 .bss.udev_ecm0
                0x00009e30       0x58 ../../../../../../../PLAT/prebuild/PLAT/lib/gcc/libusbbl_priv.a(device_ecm.o)
                0x00009e30                udev_ecm0
 .bss.FrameCount.0
                0x00009e88        0x4 ../../../../../../../PLAT/prebuild/PLAT/lib/gcc/libusbbl_priv.a(function_vcom_tpl.o)
 .bss.t_tplfunc_cfg_inst
                0x00009e8c       0x20 ../../../../../../../PLAT/prebuild/PLAT/lib/gcc/libusbbl_priv.a(function_vcom_tpl.o)
 .bss.usbd_desc_arr_othspd_tpl
                0x00009eac       0x50 ../../../../../../../PLAT/prebuild/PLAT/lib/gcc/libusbbl_priv.a(function_vcom_tpl.o)
                0x00009eac                usbd_desc_arr_othspd_tpl
 .bss.usbd_desc_arr_tpl
                0x00009efc       0x50 ../../../../../../../PLAT/prebuild/PLAT/lib/gcc/libusbbl_priv.a(function_vcom_tpl.o)
                0x00009efc                usbd_desc_arr_tpl
 .bss.vcom_diep_txbuf_mode
                0x00009f4c        0x1 ../../../../../../../PLAT/prebuild/PLAT/lib/gcc/libusbbl_priv.a(function_vcom_tpl.o)
                0x00009f4c                vcom_diep_txbuf_mode
 *fill*         0x00009f4d        0x3 
 .bss.vcom_str_container_tbl
                0x00009f50       0x40 ../../../../../../../PLAT/prebuild/PLAT/lib/gcc/libusbbl_priv.a(function_vcom_tpl.o)
                0x00009f50                vcom_str_container_tbl
 .bss.FrameCount.0
                0x00009f90        0x4 ../../../../../../../PLAT/prebuild/PLAT/lib/gcc/libusbbl_priv.a(function_ecm.o)
 .bss.ecm_str_container_tbl
                0x00009f94       0x20 ../../../../../../../PLAT/prebuild/PLAT/lib/gcc/libusbbl_priv.a(function_ecm.o)
                0x00009f94                ecm_str_container_tbl
 .bss.t_func_cfg_inst
                0x00009fb4        0x8 ../../../../../../../PLAT/prebuild/PLAT/lib/gcc/libusbbl_priv.a(function_ecm.o)
 .bss.__lock___malloc_recursive_mutex
                0x00009fbc        0x1 e:/work/meig/ec618/ec618_sdk_rel_sdk/plat/tools/gcc/bin/../lib/gcc/arm-none-eabi/10.2.1/../../../../arm-none-eabi/lib/thumb/v7-m/nofp\libc_nano.a(lib_a-lock.o)
                0x00009fbc                __lock___malloc_recursive_mutex
 .bss.__lock___sfp_recursive_mutex
                0x00009fbd        0x1 e:/work/meig/ec618/ec618_sdk_rel_sdk/plat/tools/gcc/bin/../lib/gcc/arm-none-eabi/10.2.1/../../../../arm-none-eabi/lib/thumb/v7-m/nofp\libc_nano.a(lib_a-lock.o)
                0x00009fbd                __lock___sfp_recursive_mutex
 .bss.__lock___sinit_recursive_mutex
                0x00009fbe        0x1 e:/work/meig/ec618/ec618_sdk_rel_sdk/plat/tools/gcc/bin/../lib/gcc/arm-none-eabi/10.2.1/../../../../arm-none-eabi/lib/thumb/v7-m/nofp\libc_nano.a(lib_a-lock.o)
                0x00009fbe                __lock___sinit_recursive_mutex
 *fill*         0x00009fbf        0x1 
 .bss.__malloc_free_list
                0x00009fc0        0x4 e:/work/meig/ec618/ec618_sdk_rel_sdk/plat/tools/gcc/bin/../lib/gcc/arm-none-eabi/10.2.1/../../../../arm-none-eabi/lib/thumb/v7-m/nofp\libc_nano.a(lib_a-nano-mallocr.o)
                0x00009fc0                __malloc_free_list
 .bss.__malloc_sbrk_start
                0x00009fc4        0x4 e:/work/meig/ec618/ec618_sdk_rel_sdk/plat/tools/gcc/bin/../lib/gcc/arm-none-eabi/10.2.1/../../../../arm-none-eabi/lib/thumb/v7-m/nofp\libc_nano.a(lib_a-nano-mallocr.o)
                0x00009fc4                __malloc_sbrk_start
 .bss.errno     0x00009fc8        0x4 e:/work/meig/ec618/ec618_sdk_rel_sdk/plat/tools/gcc/bin/../lib/gcc/arm-none-eabi/10.2.1/../../../../arm-none-eabi/lib/thumb/v7-m/nofp\libc_nano.a(lib_a-reent.o)
                0x00009fc8                errno
 *(.stack)
 *fill*         0x00009fcc        0x4 
 .stack         0x00009fd0     0x1000 ../../../../../../../PLAT/gccout/ec618_0h00/ap/bootloader/lib/libstartup.a(startup_ec618_gcc.o)
                0x00009fd0                __StackLimit
                0x0000afd0                __StackTop
                0x0000afd0                . = ALIGN (0x4)
                0x0000afd0                Image$$LOAD_DRAM_SHARED$$ZI$$Limit = .
                0x00500000                _heap_memory_start = 0x500000
                0x00540000                _heap_memory_end = 0x540000

.unload_flashcode
                0x0080cd20     0xfcd8
 *(.rodata*)
 .rodata._global_impure_ptr
                0x0080cd20        0x4 e:/work/meig/ec618/ec618_sdk_rel_sdk/plat/tools/gcc/bin/../lib/gcc/arm-none-eabi/10.2.1/../../../../arm-none-eabi/lib/thumb/v7-m/nofp\libc_nano.a(lib_a-impure.o)
                0x0080cd20                _global_impure_ptr
 .rodata.NMI_Handler.str1.1
                0x0080cd24       0x25 ../../../../../../../PLAT/gccout/ec618_0h00/ap/bootloader/PLAT/project/ec618_0h00/ap/apps/bootloader/code/main/ec_main.o
 .rodata.SystemXIPNormalBoot.str1.1
                0x0080cd49       0x29 ../../../../../../../PLAT/gccout/ec618_0h00/ap/bootloader/PLAT/project/ec618_0h00/ap/apps/bootloader/code/main/ec_main.o
 .rodata.FotaUsbUrcEn.str1.1
                0x0080cd72       0x51 ../../../../../../../PLAT/gccout/ec618_0h00/ap/bootloader/PLAT/middleware/developed/fota/custom/src/fota_entry.o
                                 0x6a (size before relaxing)
 .rodata.FOTA_displayUrcInfo.str1.1
                0x0080cdc3       0x1e ../../../../../../../PLAT/gccout/ec618_0h00/ap/bootloader/PLAT/middleware/developed/fota/custom/src/fota_entry.o
 .rodata.FotaProcedure.str1.1
                0x0080cde1       0x25 ../../../../../../../PLAT/gccout/ec618_0h00/ap/bootloader/PLAT/middleware/developed/fota/custom/src/fota_entry.o
 .rodata.FOTA_convToZoneId.str1.1
                0x0080ce06       0x13 ../../../../../../../PLAT/gccout/ec618_0h00/ap/bootloader/PLAT/middleware/developed/fota/custom/src/fota_utils.o
 .rodata.FOTA_chksumFlashData.str1.1
                0x0080ce19       0x87 ../../../../../../../PLAT/gccout/ec618_0h00/ap/bootloader/PLAT/middleware/developed/fota/custom/src/fota_utils.o
 .rodata.FOTA_dumpOctets.str1.1
                0x0080cea0       0x25 ../../../../../../../PLAT/gccout/ec618_0h00/ap/bootloader/PLAT/middleware/developed/fota/custom/src/fota_utils.o
 .rodata.fotaNvmNfsClear.str1.1
                0x0080cec5      0x13f ../../../../../../../PLAT/gccout/ec618_0h00/ap/bootloader/PLAT/middleware/developed/fota/custom/src/fota_nvm.o
 .rodata.fotaNvmNfsWrite.str1.1
                0x0080d004       0xa8 ../../../../../../../PLAT/gccout/ec618_0h00/ap/bootloader/PLAT/middleware/developed/fota/custom/src/fota_nvm.o
 .rodata.fotaNvmNfsRead.str1.1
                0x0080d0ac       0xa8 ../../../../../../../PLAT/gccout/ec618_0h00/ap/bootloader/PLAT/middleware/developed/fota/custom/src/fota_nvm.o
 .rodata.fotaIsImageIdentical.str1.1
                0x0080d154       0x59 ../../../../../../../PLAT/gccout/ec618_0h00/ap/bootloader/PLAT/middleware/developed/fota/custom/src/fota_nvm.o
 .rodata.fotaNvmSetDfuResult.str1.1
                0x0080d1ad       0x5d ../../../../../../../PLAT/gccout/ec618_0h00/ap/bootloader/PLAT/middleware/developed/fota/custom/src/fota_nvm.o
 .rodata.fotaNvmCheckDeltaState.str1.1
                0x0080d20a       0x96 ../../../../../../../PLAT/gccout/ec618_0h00/ap/bootloader/PLAT/middleware/developed/fota/custom/src/fota_nvm.o
 .rodata.fotaNvmGetDfuResult.str1.1
                0x0080d2a0       0x76 ../../../../../../../PLAT/gccout/ec618_0h00/ap/bootloader/PLAT/middleware/developed/fota/custom/src/fota_nvm.o
 .rodata.fotaNvmGetSize.str1.1
                0x0080d316       0x53 ../../../../../../../PLAT/gccout/ec618_0h00/ap/bootloader/PLAT/middleware/developed/fota/custom/src/fota_nvm.o
 .rodata.fotaNvmCheckBaseImage.str1.1
                0x0080d369       0x49 ../../../../../../../PLAT/gccout/ec618_0h00/ap/bootloader/PLAT/middleware/developed/fota/custom/src/fota_nvm.o
 .rodata.fotaNvmGetHandle.str1.1
                0x0080d3b2       0x57 ../../../../../../../PLAT/gccout/ec618_0h00/ap/bootloader/PLAT/middleware/developed/fota/custom/src/fota_nvm.o
 .rodata.fotaNvmGetExtras.str1.1
                0x0080d409       0x55 ../../../../../../../PLAT/gccout/ec618_0h00/ap/bootloader/PLAT/middleware/developed/fota/custom/src/fota_nvm.o
 .rodata.fotaInitChksum.str1.1
                0x0080d45e       0x1f ../../../../../../../PLAT/gccout/ec618_0h00/ap/bootloader/PLAT/middleware/developed/fota/custom/src/fota_chksum.o
 .rodata.fotaReportDfuResult.isra.0.str1.1
                0x0080d47d       0x19 ../../../../../../../PLAT/gccout/ec618_0h00/ap/bootloader/PLAT/middleware/developed/fota/custom/src/fota_custom.o
 .rodata.fotaReportDfuProgress.isra.0.str1.1
                0x0080d496       0x5d ../../../../../../../PLAT/gccout/ec618_0h00/ap/bootloader/PLAT/middleware/developed/fota/custom/src/fota_custom.o
 .rodata.fotaDoExtension.str1.1
                0x0080d4f3       0x2a ../../../../../../../PLAT/gccout/ec618_0h00/ap/bootloader/PLAT/middleware/developed/fota/custom/src/fota_custom.o
 .rodata.BSP_WriteToRawFlash.constprop.0.str1.1
                0x0080d51d       0x3c ../../../../../../../PLAT/gccout/ec618_0h00/ap/bootloader/lib/libdriver.a(plat_config.o)
 .rodata.BSP_GetPlatConfigItemValue.str1.1
                0x0080d559       0xa4 ../../../../../../../PLAT/gccout/ec618_0h00/ap/bootloader/lib/libdriver.a(plat_config.o)
 .rodata.CSWTCH.35
                0x0080d5fd       0x17 ../../../../../../../PLAT/gccout/ec618_0h00/ap/bootloader/lib/libdriver.a(bsp_usart.o)
 .rodata.DriverVersion
                0x0080d614        0x4 ../../../../../../../PLAT/gccout/ec618_0h00/ap/bootloader/lib/libdriver.a(bsp_usart.o)
 .rodata.Driver_USART0
                0x0080d618       0x40 ../../../../../../../PLAT/gccout/ec618_0h00/ap/bootloader/lib/libdriver.a(bsp_usart.o)
                0x0080d618                Driver_USART0
 .rodata.Driver_USART1
                0x0080d658       0x40 ../../../../../../../PLAT/gccout/ec618_0h00/ap/bootloader/lib/libdriver.a(bsp_usart.o)
                0x0080d658                Driver_USART1
 .rodata.USART0_Resources
                0x0080d698       0x30 ../../../../../../../PLAT/gccout/ec618_0h00/ap/bootloader/lib/libdriver.a(bsp_usart.o)
 .rodata.USART0_pin_rx
                0x0080d6c8        0x2 ../../../../../../../PLAT/gccout/ec618_0h00/ap/bootloader/lib/libdriver.a(bsp_usart.o)
 .rodata.USART0_pin_tx
                0x0080d6ca        0x2 ../../../../../../../PLAT/gccout/ec618_0h00/ap/bootloader/lib/libdriver.a(bsp_usart.o)
 .rodata.USART1_Resources
                0x0080d6cc       0x30 ../../../../../../../PLAT/gccout/ec618_0h00/ap/bootloader/lib/libdriver.a(bsp_usart.o)
 .rodata.USART1_pin_rx
                0x0080d6fc        0x2 ../../../../../../../PLAT/gccout/ec618_0h00/ap/bootloader/lib/libdriver.a(bsp_usart.o)
 .rodata.USART1_pin_tx
                0x0080d6fe        0x2 ../../../../../../../PLAT/gccout/ec618_0h00/ap/bootloader/lib/libdriver.a(bsp_usart.o)
 .rodata.__compound_literal.1
                0x0080d700        0x8 ../../../../../../../PLAT/gccout/ec618_0h00/ap/bootloader/lib/libdriver.a(bsp_usart.o)
 .rodata.__compound_literal.3
                0x0080d708        0x8 ../../../../../../../PLAT/gccout/ec618_0h00/ap/bootloader/lib/libdriver.a(bsp_usart.o)
 .rodata.__compound_literal.5
                0x0080d710        0x8 ../../../../../../../PLAT/gccout/ec618_0h00/ap/bootloader/lib/libdriver.a(bsp_usart.o)
 .rodata.g_uartClocks
                0x0080d718       0x18 ../../../../../../../PLAT/gccout/ec618_0h00/ap/bootloader/lib/libdriver.a(bsp_usart.o)
 .rodata.g_usartResetVectors
                0x0080d730       0x24 ../../../../../../../PLAT/gccout/ec618_0h00/ap/bootloader/lib/libdriver.a(bsp_usart.o)
 .rodata.PAD_getDefaultConfig.str1.1
                0x0080d754       0x40 ../../../../../../../PLAT/gccout/ec618_0h00/ap/bootloader/lib/libdriver.a(pad.o)
 .rodata.PAD_setPinConfig.str1.1
                0x0080d794        0xe ../../../../../../../PLAT/gccout/ec618_0h00/ap/bootloader/lib/libdriver.a(pad.o)
 .rodata.__func__.3
                0x0080d7a2       0x11 ../../../../../../../PLAT/gccout/ec618_0h00/ap/bootloader/lib/libdriver.a(pad.o)
 .rodata.__func__.4
                0x0080d7b3       0x15 ../../../../../../../PLAT/gccout/ec618_0h00/ap/bootloader/lib/libdriver.a(pad.o)
 .rodata.WDT_getDefaultConfig.str1.1
                0x0080d7c8       0x39 ../../../../../../../PLAT/gccout/ec618_0h00/ap/bootloader/lib/libdriver.a(wdt.o)
                                 0x40 (size before relaxing)
 .rodata.__func__.0
                0x0080d801        0x9 ../../../../../../../PLAT/gccout/ec618_0h00/ap/bootloader/lib/libdriver.a(wdt.o)
 .rodata.str1.1
                0x0080d80a       0x44 ../../../../../../../PLAT/gccout/ec618_0h00/ap/bootloader/lib/libdriver.a(clock.o)
                                 0x46 (size before relaxing)
 .rodata.__func__.0
                0x0080d84e       0x13 ../../../../../../../PLAT/gccout/ec618_0h00/ap/bootloader/lib/libdriver.a(clock.o)
 .rodata.__func__.1
                0x0080d861       0x12 ../../../../../../../PLAT/gccout/ec618_0h00/ap/bootloader/lib/libdriver.a(clock.o)
 .rodata.t_usbd_cdc_desc_inhrnt
                0x0080d873       0x42 ../../../../../../../PLAT/gccout/ec618_0h00/ap/bootloader/lib/libdriver.a(function_vcom_inherent.o)
                0x0080d873                t_usbd_cdc_desc_inhrnt
 *fill*         0x0080d8b5        0x3 
 .rodata.K      0x0080d8b8      0x100 ../../../../../../../PLAT/prebuild/PLAT/lib/gcc/libbootloader.a(sha256.o)
 .rodata.sha256_padding
                0x0080d9b8       0x40 ../../../../../../../PLAT/prebuild/PLAT/lib/gcc/libbootloader.a(sha256.o)
 .rodata.str1.1
                0x0080d9f8      0x6b1 ../../../../../../../PLAT/prebuild/PLAT/lib/gcc/libdeltapatch.a(bzlib.o)
                                0x6b8 (size before relaxing)
 *fill*         0x0080e0a9        0x3 
 .rodata        0x0080e0ac       0x44 ../../../../../../../PLAT/prebuild/PLAT/lib/gcc/libdeltapatch.a(bzlib.o)
                0x0080e0ec                verbose_bzlib
 .rodata.str1.1
                0x0080e0f0       0x1b ../../../../../../../PLAT/prebuild/PLAT/lib/gcc/libdeltapatch.a(decompress.o)
 .rodata.str1.1
                0x0080e10b      0x8c5 ../../../../../../../PLAT/prebuild/PLAT/lib/gcc/libdeltapatch.a(patch_main.o)
                                0x8c7 (size before relaxing)
 .rodata.str1.1
                0x0080e9d0       0x20 ../../../../../../../PLAT/prebuild/PLAT/lib/gcc/libdeltapatch.a(fakefs.o)
 .rodata.FOTA_displayCorpInfo.str1.1
                0x0080e9d0      0x13a ../../../../../../../PLAT/prebuild/PLAT/lib/gcc/libfota.a(fota_man.o)
 .rodata.FOTA_isParFwIdentical.str1.1
                0x0080eb0a       0x47 ../../../../../../../PLAT/prebuild/PLAT/lib/gcc/libfota.a(fota_man.o)
 .rodata.FOTA_buildPkgCtrlUnit.str1.1
                0x0080eb51       0x49 ../../../../../../../PLAT/prebuild/PLAT/lib/gcc/libfota.a(fota_man.o)
 .rodata.FOTA_convPsidToGusn.constprop.0.str1.1
                0x0080eb9a       0x48 ../../../../../../../PLAT/prebuild/PLAT/lib/gcc/libfota.a(fota_man.o)
 .rodata.FOTA_buildCtxRenewal.constprop.0.str1.1
                0x0080ebe2      0x153 ../../../../../../../PLAT/prebuild/PLAT/lib/gcc/libfota.a(fota_man.o)
 .rodata.FOTA_init.str1.1
                0x0080ed35       0x31 ../../../../../../../PLAT/prebuild/PLAT/lib/gcc/libfota.a(fota_man.o)
 .rodata.FOTA_exit.str1.1
                0x0080ed66       0x44 ../../../../../../../PLAT/prebuild/PLAT/lib/gcc/libfota.a(fota_man.o)
 .rodata.FOTA_refreshGusnToUcsm.str1.1
                0x0080edaa       0x4f ../../../../../../../PLAT/prebuild/PLAT/lib/gcc/libfota.a(fota_man.o)
 .rodata.FOTA_reportDfuProgress.isra.0.str1.1
                0x0080edf9       0x1c ../../../../../../../PLAT/prebuild/PLAT/lib/gcc/libfota.a(fota_man.o)
                                 0x1e (size before relaxing)
 .rodata.FOTA_queryGusnFromUcsm.isra.0.str1.1
                0x0080ee15       0x22 ../../../../../../../PLAT/prebuild/PLAT/lib/gcc/libfota.a(fota_man.o)
 .rodata.FOTA_convGusnToPscu.str1.1
                0x0080ee37       0x47 ../../../../../../../PLAT/prebuild/PLAT/lib/gcc/libfota.a(fota_man.o)
 .rodata.FOTA_dearchivePar.constprop.0.str1.1
                0x0080ee7e       0xe1 ../../../../../../../PLAT/prebuild/PLAT/lib/gcc/libfota.a(fota_man.o)
 .rodata.FOTA_exec.str1.1
                0x0080ef5f      0x1b8 ../../../../../../../PLAT/prebuild/PLAT/lib/gcc/libfota.a(fota_man.o)
 .rodata.FOTA_checkDfuMission.str1.1
                0x0080f117       0x33 ../../../../../../../PLAT/prebuild/PLAT/lib/gcc/libfota.a(fota_man.o)
 .rodata.FOTA_getDfuProgress.str1.1
                0x0080f14a       0xb6 ../../../../../../../PLAT/prebuild/PLAT/lib/gcc/libfota.a(fota_man.o)
 .rodata.CSWTCH.74
                0x0080f200        0x6 ../../../../../../../PLAT/prebuild/PLAT/lib/gcc/libfota.a(fota_man.o)
 *fill*         0x0080f206        0x2 
 .rodata.g_fotaInterface
                0x0080f208       0x10 ../../../../../../../PLAT/prebuild/PLAT/lib/gcc/libfota.a(fota_man.o)
 .rodata.g_fotaPscuCallbacks
                0x0080f218        0xc ../../../../../../../PLAT/prebuild/PLAT/lib/gcc/libfota.a(fota_man.o)
 .rodata.FOTA_initCallbacks.str1.1
                0x0080f224       0x19 ../../../../../../../PLAT/prebuild/PLAT/lib/gcc/libfota.a(fota_callbacks.o)
 .rodata.FOTA_queryPkgHdrOption.str1.1
                0x0080f23d       0x25 ../../../../../../../PLAT/prebuild/PLAT/lib/gcc/libfota.a(fota_parchive.o)
 .rodata.FOTA_initProc.str1.1
                0x0080f262       0x58 ../../../../../../../PLAT/prebuild/PLAT/lib/gcc/libfota.a(fota_hub.o)
 .rodata.FOTA_execProc.str1.1
                0x0080f2ba       0x30 ../../../../../../../PLAT/prebuild/PLAT/lib/gcc/libfota.a(fota_hub.o)
 .rodata.FOTA_exitProc.str1.1
                0x0080f2ea       0x30 ../../../../../../../PLAT/prebuild/PLAT/lib/gcc/libfota.a(fota_hub.o)
 .rodata.pwrkeyPwrOnDebounce.str1.1
                0x0080f31a       0x33 ../../../../../../../PLAT/prebuild/PLAT/lib/gcc/libdriver_private_bl.a(pwrkey.o)
 *fill*         0x0080f34d        0x3 
 .rodata        0x0080f350       0x10 ../../../../../../../PLAT/prebuild/PLAT/lib/gcc/libdriver_private_bl.a(ic.o)
 .rodata.CSWTCH.18
                0x0080f360        0xc ../../../../../../../PLAT/prebuild/PLAT/lib/gcc/libdriver_private_bl.a(gpr.o)
 .rodata.gClkSrcVectors
                0x0080f36c       0xdc ../../../../../../../PLAT/prebuild/PLAT/lib/gcc/libdriver_private_bl.a(gpr.o)
                0x0080f36c                gClkSrcVectors
 .rodata.DMA_startChannel.str1.1
                0x0080f448       0x64 ../../../../../../../PLAT/prebuild/PLAT/lib/gcc/libdriver_private_bl.a(dma.o)
 .rodata.DMA_buildDescriptor.str1.1
                0x0080f4ac       0x24 ../../../../../../../PLAT/prebuild/PLAT/lib/gcc/libdriver_private_bl.a(dma.o)
 .rodata.__func__.10
                0x0080f4d0       0x1c ../../../../../../../PLAT/prebuild/PLAT/lib/gcc/libdriver_private_bl.a(dma.o)
 .rodata.__func__.11
                0x0080f4ec       0x11 ../../../../../../../PLAT/prebuild/PLAT/lib/gcc/libdriver_private_bl.a(dma.o)
 .rodata.__func__.12
                0x0080f4fd       0x10 ../../../../../../../PLAT/prebuild/PLAT/lib/gcc/libdriver_private_bl.a(dma.o)
 .rodata.__func__.13
                0x0080f50d       0x11 ../../../../../../../PLAT/prebuild/PLAT/lib/gcc/libdriver_private_bl.a(dma.o)
 .rodata.__func__.14
                0x0080f51e       0x11 ../../../../../../../PLAT/prebuild/PLAT/lib/gcc/libdriver_private_bl.a(dma.o)
 .rodata.__func__.3
                0x0080f52f       0x14 ../../../../../../../PLAT/prebuild/PLAT/lib/gcc/libdriver_private_bl.a(dma.o)
 .rodata.__func__.4
                0x0080f543       0x14 ../../../../../../../PLAT/prebuild/PLAT/lib/gcc/libdriver_private_bl.a(dma.o)
 .rodata.__func__.7
                0x0080f557       0x1c ../../../../../../../PLAT/prebuild/PLAT/lib/gcc/libdriver_private_bl.a(dma.o)
 .rodata.__func__.8
                0x0080f573       0x1c ../../../../../../../PLAT/prebuild/PLAT/lib/gcc/libdriver_private_bl.a(dma.o)
 .rodata.__func__.9
                0x0080f58f       0x12 ../../../../../../../PLAT/prebuild/PLAT/lib/gcc/libdriver_private_bl.a(dma.o)
 *fill*         0x0080f5a1        0x3 
 .rodata.gDMAInstanceArray
                0x0080f5a4        0x8 ../../../../../../../PLAT/prebuild/PLAT/lib/gcc/libdriver_private_bl.a(dma.o)
 .rodata.gDMAIrqHandlerArray
                0x0080f5ac        0x8 ../../../../../../../PLAT/prebuild/PLAT/lib/gcc/libdriver_private_bl.a(dma.o)
 .rodata.gDMAIrqNumberArray
                0x0080f5b4        0x4 ../../../../../../../PLAT/prebuild/PLAT/lib/gcc/libdriver_private_bl.a(dma.o)
 .rodata.gDmaChannelControlArray
                0x0080f5b8        0x8 ../../../../../../../PLAT/prebuild/PLAT/lib/gcc/libdriver_private_bl.a(dma.o)
 .rodata.gDmaChannelNumberArray
                0x0080f5c0        0x2 ../../../../../../../PLAT/prebuild/PLAT/lib/gcc/libdriver_private_bl.a(dma.o)
 .rodata.usbdev_ecm0_static_earlyinit_start.str1.1
                0x0080f5c2        0xb ../../../../../../../PLAT/prebuild/PLAT/lib/gcc/libusbbl_priv.a(device_ecm.o)
 .rodata.str1.1
                0x0080f5cd       0x30 ../../../../../../../PLAT/prebuild/PLAT/lib/gcc/libusbbl_priv.a(function_vcom_tpl.o)
 .rodata.str1.1
                0x0080f5fd        0xd ../../../../../../../PLAT/prebuild/PLAT/lib/gcc/libusbbl_priv.a(function_ecm.o)
                                 0x18 (size before relaxing)
 .rodata.__assert_func.str1.1
                0x0080f60a       0x3c e:/work/meig/ec618/ec618_sdk_rel_sdk/plat/tools/gcc/bin/../lib/gcc/arm-none-eabi/10.2.1/../../../../arm-none-eabi/lib/thumb/v7-m/nofp\libc_nano.a(lib_a-assert.o)
                                 0x3d (size before relaxing)
 *fill*         0x0080f646        0x2 
 .rodata.__sf_fake_stderr
                0x0080f648       0x20 e:/work/meig/ec618/ec618_sdk_rel_sdk/plat/tools/gcc/bin/../lib/gcc/arm-none-eabi/10.2.1/../../../../arm-none-eabi/lib/thumb/v7-m/nofp\libc_nano.a(lib_a-findfp.o)
                0x0080f648                __sf_fake_stderr
 .rodata.__sf_fake_stdin
                0x0080f668       0x20 e:/work/meig/ec618/ec618_sdk_rel_sdk/plat/tools/gcc/bin/../lib/gcc/arm-none-eabi/10.2.1/../../../../arm-none-eabi/lib/thumb/v7-m/nofp\libc_nano.a(lib_a-findfp.o)
                0x0080f668                __sf_fake_stdin
 .rodata.__sf_fake_stdout
                0x0080f688       0x20 e:/work/meig/ec618/ec618_sdk_rel_sdk/plat/tools/gcc/bin/../lib/gcc/arm-none-eabi/10.2.1/../../../../arm-none-eabi/lib/thumb/v7-m/nofp\libc_nano.a(lib_a-findfp.o)
                0x0080f688                __sf_fake_stdout
 .rodata._vfprintf_r.str1.1
                0x0080f6a8       0x11 e:/work/meig/ec618/ec618_sdk_rel_sdk/plat/tools/gcc/bin/../lib/gcc/arm-none-eabi/10.2.1/../../../../arm-none-eabi/lib/thumb/v7-m/nofp\libc_nano.a(lib_a-nano-vfprintf.o)
 .rodata._printf_i.str1.1
                0x0080f6b9       0x22 e:/work/meig/ec618/ec618_sdk_rel_sdk/plat/tools/gcc/bin/../lib/gcc/arm-none-eabi/10.2.1/../../../../arm-none-eabi/lib/thumb/v7-m/nofp\libc_nano.a(lib_a-nano-vfprintf_i.o)
 .rodata.srand.str1.1
                0x0080f6db       0x94 e:/work/meig/ec618/ec618_sdk_rel_sdk/plat/tools/gcc/bin/../lib/gcc/arm-none-eabi/10.2.1/../../../../arm-none-eabi/lib/thumb/v7-m/nofp\libc_nano.a(lib_a-rand.o)
 .rodata._svfprintf_r.str1.1
                0x0080f76f       0x11 e:/work/meig/ec618/ec618_sdk_rel_sdk/plat/tools/gcc/bin/../lib/gcc/arm-none-eabi/10.2.1/../../../../arm-none-eabi/lib/thumb/v7-m/nofp\libc_nano.a(lib_a-nano-svfprintf.o)
 *(.text*)
 *fill*         0x0080f76f        0x1 
 .text.memset   0x0080f770       0x10 e:/work/meig/ec618/ec618_sdk_rel_sdk/plat/tools/gcc/bin/../lib/gcc/arm-none-eabi/10.2.1/../../../../arm-none-eabi/lib/thumb/v7-m/nofp\libc_nano.a(lib_a-memset.o)
                0x0080f770                memset
 .text.NMI_Handler
                0x0080f780       0x10 ../../../../../../../PLAT/gccout/ec618_0h00/ap/bootloader/PLAT/project/ec618_0h00/ap/apps/bootloader/code/main/ec_main.o
                0x0080f780                NMI_Handler
 .text.BSP_InitHook
                0x0080f790       0x58 ../../../../../../../PLAT/gccout/ec618_0h00/ap/bootloader/PLAT/project/ec618_0h00/ap/apps/bootloader/code/main/ec_main.o
                0x0080f790                BSP_InitHook
 .text.Bltransfer_Control
                0x0080f7e8        0xa ../../../../../../../PLAT/gccout/ec618_0h00/ap/bootloader/PLAT/project/ec618_0h00/ap/apps/bootloader/code/main/ec_main.o
                0x0080f7e8                Bltransfer_Control
 .text.SystemXIPFastBoot
                0x0080f7f2       0x24 ../../../../../../../PLAT/gccout/ec618_0h00/ap/bootloader/PLAT/project/ec618_0h00/ap/apps/bootloader/code/main/ec_main.o
                0x0080f7f2                SystemXIPFastBoot
 .text.SystemXIPNormalBoot
                0x0080f816       0x2c ../../../../../../../PLAT/gccout/ec618_0h00/ap/bootloader/PLAT/project/ec618_0h00/ap/apps/bootloader/code/main/ec_main.o
                0x0080f816                SystemXIPNormalBoot
 .text.ec_main  0x0080f842       0x1c ../../../../../../../PLAT/gccout/ec618_0h00/ap/bootloader/PLAT/project/ec618_0h00/ap/apps/bootloader/code/main/ec_main.o
                0x0080f842                ec_main
 .text.osDelay  0x0080f85e        0x4 ../../../../../../../PLAT/gccout/ec618_0h00/ap/bootloader/PLAT/project/ec618_0h00/ap/apps/bootloader/code/main/stub_os.o
                0x0080f85e                osDelay
 .text.FotaUsbUrcEn
                0x0080f862       0x70 ../../../../../../../PLAT/gccout/ec618_0h00/ap/bootloader/PLAT/middleware/developed/fota/custom/src/fota_entry.o
 .text.FOTA_displayUrcInfo
                0x0080f8d2       0x50 ../../../../../../../PLAT/gccout/ec618_0h00/ap/bootloader/PLAT/middleware/developed/fota/custom/src/fota_entry.o
                0x0080f8d2                FOTA_displayUrcInfo
 .text.FotaProcedure
                0x0080f922       0x9a ../../../../../../../PLAT/gccout/ec618_0h00/ap/bootloader/PLAT/middleware/developed/fota/custom/src/fota_entry.o
                0x0080f922                FotaProcedure
 .text.FOTA_convToZoneId
                0x0080f9bc       0x1e ../../../../../../../PLAT/gccout/ec618_0h00/ap/bootloader/PLAT/middleware/developed/fota/custom/src/fota_utils.o
                0x0080f9bc                FOTA_convToZoneId
 .text.FOTA_chksumFlashData
                0x0080f9da      0x102 ../../../../../../../PLAT/gccout/ec618_0h00/ap/bootloader/PLAT/middleware/developed/fota/custom/src/fota_utils.o
                0x0080f9da                FOTA_chksumFlashData
 .text.FOTA_dumpOctets
                0x0080fadc       0xbc ../../../../../../../PLAT/gccout/ec618_0h00/ap/bootloader/PLAT/middleware/developed/fota/custom/src/fota_utils.o
                0x0080fadc                FOTA_dumpOctets
 .text.fotaNvmCheckRemapZone
                0x0080fb98        0x8 ../../../../../../../PLAT/gccout/ec618_0h00/ap/bootloader/PLAT/middleware/developed/fota/custom/src/fota_nvm.o
 .text.fotaNvmNfsInit
                0x0080fba0       0x5a ../../../../../../../PLAT/gccout/ec618_0h00/ap/bootloader/PLAT/middleware/developed/fota/custom/src/fota_nvm.o
 .text.fotaNvmNfsDeinit
                0x0080fbfa        0xa ../../../../../../../PLAT/gccout/ec618_0h00/ap/bootloader/PLAT/middleware/developed/fota/custom/src/fota_nvm.o
 .text.fotaNvmNfsClear
                0x0080fc04      0x106 ../../../../../../../PLAT/gccout/ec618_0h00/ap/bootloader/PLAT/middleware/developed/fota/custom/src/fota_nvm.o
 .text.fotaNvmNfsWrite
                0x0080fd0a       0xb2 ../../../../../../../PLAT/gccout/ec618_0h00/ap/bootloader/PLAT/middleware/developed/fota/custom/src/fota_nvm.o
 .text.fotaNvmNfsRead
                0x0080fdbc       0xb4 ../../../../../../../PLAT/gccout/ec618_0h00/ap/bootloader/PLAT/middleware/developed/fota/custom/src/fota_nvm.o
 .text.fotaResetParhHashField
                0x0080fe70       0x1a ../../../../../../../PLAT/gccout/ec618_0h00/ap/bootloader/PLAT/middleware/developed/fota/custom/src/fota_nvm.o
 .text.fotaIsImageIdentical
                0x0080fe8a       0x76 ../../../../../../../PLAT/gccout/ec618_0h00/ap/bootloader/PLAT/middleware/developed/fota/custom/src/fota_nvm.o
 .text.fotaNvmInit
                0x0080ff00        0x4 ../../../../../../../PLAT/gccout/ec618_0h00/ap/bootloader/PLAT/middleware/developed/fota/custom/src/fota_nvm.o
                0x0080ff00                fotaNvmInit
 .text.fotaNvmDeinit
                0x0080ff04        0x4 ../../../../../../../PLAT/gccout/ec618_0h00/ap/bootloader/PLAT/middleware/developed/fota/custom/src/fota_nvm.o
                0x0080ff04                fotaNvmDeinit
 .text.fotaNvmClear
                0x0080ff08        0x4 ../../../../../../../PLAT/gccout/ec618_0h00/ap/bootloader/PLAT/middleware/developed/fota/custom/src/fota_nvm.o
                0x0080ff08                fotaNvmClear
 .text.fotaNvmWrite
                0x0080ff0c        0x4 ../../../../../../../PLAT/gccout/ec618_0h00/ap/bootloader/PLAT/middleware/developed/fota/custom/src/fota_nvm.o
                0x0080ff0c                fotaNvmWrite
 .text.fotaNvmSetDfuResult
                0x0080ff10       0x8c ../../../../../../../PLAT/gccout/ec618_0h00/ap/bootloader/PLAT/middleware/developed/fota/custom/src/fota_nvm.o
 .text.fotaNvmRead
                0x0080ff9c        0x4 ../../../../../../../PLAT/gccout/ec618_0h00/ap/bootloader/PLAT/middleware/developed/fota/custom/src/fota_nvm.o
                0x0080ff9c                fotaNvmRead
 .text.fotaNvmCheckDeltaState
                0x0080ffa0       0xd8 ../../../../../../../PLAT/gccout/ec618_0h00/ap/bootloader/PLAT/middleware/developed/fota/custom/src/fota_nvm.o
 .text.fotaNvmGetDfuResult
                0x00810078       0x98 ../../../../../../../PLAT/gccout/ec618_0h00/ap/bootloader/PLAT/middleware/developed/fota/custom/src/fota_nvm.o
 .text.fotaNvmGetSize
                0x00810110       0x4c ../../../../../../../PLAT/gccout/ec618_0h00/ap/bootloader/PLAT/middleware/developed/fota/custom/src/fota_nvm.o
                0x00810110                fotaNvmGetSize
 .text.fotaNvmCheckBaseImage
                0x0081015c       0xc6 ../../../../../../../PLAT/gccout/ec618_0h00/ap/bootloader/PLAT/middleware/developed/fota/custom/src/fota_nvm.o
 .text.fotaNvmGetHandle
                0x00810222       0x48 ../../../../../../../PLAT/gccout/ec618_0h00/ap/bootloader/PLAT/middleware/developed/fota/custom/src/fota_nvm.o
                0x00810222                fotaNvmGetHandle
 .text.fotaNvmGetExtras
                0x0081026a       0x48 ../../../../../../../PLAT/gccout/ec618_0h00/ap/bootloader/PLAT/middleware/developed/fota/custom/src/fota_nvm.o
                0x0081026a                fotaNvmGetExtras
 .text.fotaNvmDoExtension
                0x008102b2       0x34 ../../../../../../../PLAT/gccout/ec618_0h00/ap/bootloader/PLAT/middleware/developed/fota/custom/src/fota_nvm.o
                0x008102b2                fotaNvmDoExtension
 .text.fotaInitMem
                0x008102e6        0x4 ../../../../../../../PLAT/gccout/ec618_0h00/ap/bootloader/PLAT/middleware/developed/fota/custom/src/fota_mem.o
                0x008102e6                fotaInitMem
 .text.fotaAllocMem
                0x008102ea        0x4 ../../../../../../../PLAT/gccout/ec618_0h00/ap/bootloader/PLAT/middleware/developed/fota/custom/src/fota_mem.o
                0x008102ea                fotaAllocMem
 .text.fotaFreeMem
                0x008102ee        0x8 ../../../../../../../PLAT/gccout/ec618_0h00/ap/bootloader/PLAT/middleware/developed/fota/custom/src/fota_mem.o
                0x008102ee                fotaFreeMem
 .text.fotaUpdateSha256.constprop.0
                0x008102f6       0x3e ../../../../../../../PLAT/gccout/ec618_0h00/ap/bootloader/PLAT/middleware/developed/fota/custom/src/fota_chksum.o
 .text.fotaInitSha256.constprop.0
                0x00810334       0x1c ../../../../../../../PLAT/gccout/ec618_0h00/ap/bootloader/PLAT/middleware/developed/fota/custom/src/fota_chksum.o
 .text.fotaInitChksum
                0x00810350       0x20 ../../../../../../../PLAT/gccout/ec618_0h00/ap/bootloader/PLAT/middleware/developed/fota/custom/src/fota_chksum.o
                0x00810350                fotaInitChksum
 .text.fotaCalcChksum
                0x00810370       0x2a ../../../../../../../PLAT/gccout/ec618_0h00/ap/bootloader/PLAT/middleware/developed/fota/custom/src/fota_chksum.o
                0x00810370                fotaCalcChksum
 .text.fotaCheckBattery
                0x0081039a        0x6 ../../../../../../../PLAT/gccout/ec618_0h00/ap/bootloader/PLAT/middleware/developed/fota/custom/src/fota_custom.o
 .text.fotaCheckTotalProgress
                0x008103a0        0xe ../../../../../../../PLAT/gccout/ec618_0h00/ap/bootloader/PLAT/middleware/developed/fota/custom/src/fota_custom.o
 .text.fotaReportDfuResult.isra.0
                0x008103ae       0x3e ../../../../../../../PLAT/gccout/ec618_0h00/ap/bootloader/PLAT/middleware/developed/fota/custom/src/fota_custom.o
 .text.fotaReportDfuProgress.isra.0
                0x008103ec       0x5e ../../../../../../../PLAT/gccout/ec618_0h00/ap/bootloader/PLAT/middleware/developed/fota/custom/src/fota_custom.o
 .text.fotaDoExtension
                0x0081044a       0x70 ../../../../../../../PLAT/gccout/ec618_0h00/ap/bootloader/PLAT/middleware/developed/fota/custom/src/fota_custom.o
                0x0081044a                fotaDoExtension
 .text.__fast_memset
                0x008104ba       0x3c ../../../../../../../PLAT/gccout/ec618_0h00/ap/bootloader/lib/libstartup.a(prec_init.o)
                0x008104ba                __fast_memset
 .text.SetZIDataToZero
                0x008104f6       0x32 ../../../../../../../PLAT/gccout/ec618_0h00/ap/bootloader/lib/libstartup.a(prec_init.o)
                0x008104f6                SetZIDataToZero
 .text.CopyXipStartRwToImage
                0x00810528       0x40 ../../../../../../../PLAT/gccout/ec618_0h00/ap/bootloader/lib/libstartup.a(prec_init.o)
                0x00810528                CopyXipStartRwToImage
 .text.CopyPre1RamtoImage
                0x00810568       0x40 ../../../../../../../PLAT/gccout/ec618_0h00/ap/bootloader/lib/libstartup.a(prec_init.o)
                0x00810568                CopyPre1RamtoImage
 .text.CopyPre2RamtoImage
                0x008105a8       0x40 ../../../../../../../PLAT/gccout/ec618_0h00/ap/bootloader/lib/libstartup.a(prec_init.o)
                0x008105a8                CopyPre2RamtoImage
 .text.CopyDataRamtoImage
                0x008105e8       0x40 ../../../../../../../PLAT/gccout/ec618_0h00/ap/bootloader/lib/libstartup.a(prec_init.o)
                0x008105e8                CopyDataRamtoImage
 .text.CopyRWDataFromBin
                0x00810628       0x40 ../../../../../../../PLAT/gccout/ec618_0h00/ap/bootloader/lib/libstartup.a(prec_init.o)
                0x00810628                CopyRWDataFromBin
 .text.CopyRamCodeAndDatForUsb
                0x00810668       0x98 ../../../../../../../PLAT/gccout/ec618_0h00/ap/bootloader/lib/libstartup.a(prec_init.o)
                0x00810668                CopyRamCodeAndDatForUsb
 .text._close   0x00810700        0x4 ../../../../../../../PLAT/gccout/ec618_0h00/ap/bootloader/lib/libstartup.a(syscalls.o)
                0x00810700                _close
 .text._fstat   0x00810704        0x4 ../../../../../../../PLAT/gccout/ec618_0h00/ap/bootloader/lib/libstartup.a(syscalls.o)
                0x00810704                _fstat
 .text._isatty  0x00810708        0x4 ../../../../../../../PLAT/gccout/ec618_0h00/ap/bootloader/lib/libstartup.a(syscalls.o)
                0x00810708                _isatty
 .text._lseek   0x0081070c        0x4 ../../../../../../../PLAT/gccout/ec618_0h00/ap/bootloader/lib/libstartup.a(syscalls.o)
                0x0081070c                _lseek
 .text._read    0x00810710        0x4 ../../../../../../../PLAT/gccout/ec618_0h00/ap/bootloader/lib/libstartup.a(syscalls.o)
                0x00810710                _read
 .text._getpid  0x00810714        0x4 ../../../../../../../PLAT/gccout/ec618_0h00/ap/bootloader/lib/libstartup.a(syscalls.o)
                0x00810714                _getpid
 .text._kill    0x00810718        0x6 ../../../../../../../PLAT/gccout/ec618_0h00/ap/bootloader/lib/libstartup.a(syscalls.o)
                0x00810718                _kill
 .text._exit    0x0081071e        0x2 ../../../../../../../PLAT/gccout/ec618_0h00/ap/bootloader/lib/libstartup.a(syscalls.o)
                0x0081071e                _exit
 .text._sbrk    0x00810720       0x30 ../../../../../../../PLAT/gccout/ec618_0h00/ap/bootloader/lib/libstartup.a(syscalls.o)
                0x00810720                _sbrk
 .text._write   0x00810750       0x1c ../../../../../../../PLAT/gccout/ec618_0h00/ap/bootloader/lib/libstartup.a(syscalls.o)
                0x00810750                _write
 .text.sysROAddrCheck
                0x0081076c        0xc ../../../../../../../PLAT/gccout/ec618_0h00/ap/bootloader/lib/libstartup.a(system_ec618.o)
 .text.sysROSpaceCheck
                0x00810778       0x1e ../../../../../../../PLAT/gccout/ec618_0h00/ap/bootloader/lib/libstartup.a(system_ec618.o)
                0x00810778                sysROSpaceCheck
 .text.SystemCoreClockUpdate
                0x00810796       0x40 ../../../../../../../PLAT/gccout/ec618_0h00/ap/bootloader/lib/libstartup.a(system_ec618.o)
                0x00810796                SystemCoreClockUpdate
 .text.XIPInitFastInApRam
                0x008107d6       0x20 ../../../../../../../PLAT/gccout/ec618_0h00/ap/bootloader/lib/libstartup.a(system_ec618.o)
                0x008107d6                XIPInitFastInApRam
 .text.SystemInit
                0x008107f6       0x74 ../../../../../../../PLAT/gccout/ec618_0h00/ap/bootloader/lib/libstartup.a(system_ec618.o)
                0x008107f6                SystemInit
 *fill*         0x0081086a        0x2 
 .text          0x0081086c       0x38 ../../../../../../../PLAT/gccout/ec618_0h00/ap/bootloader/lib/libstartup.a(startup_ec618_gcc.o)
                0x0081086c                Reset_Handler
                0x00810890                HardFault_Handler
                0x00810890                SysTick_Handler
                0x00810890                PendSV_Handler
                0x00810890                PwrKey_WakeupIntHandler
                0x00810890                UsageFault_Handler
                0x00810890                Pad1_WakeupIntHandler
                0x00810890                Pad2_WakeupIntHandler
                0x00810890                Pad4_WakeupIntHandler
                0x00810890                DebugMon_Handler
                0x00810890                LPUSB_WakeupIntHandler
                0x00810890                Default_Handler
                0x00810890                MemManage_Handler
                0x00810890                SVC_Handler
                0x00810890                LPUART_WakeupIntHandler
                0x00810890                RTC_WakeupIntHandler
                0x00810890                ChrgPad_WakeupIntHandler
                0x00810890                Pad3_WakeupIntHandler
                0x00810890                Pad0_WakeupIntHandler
                0x00810890                Pad5_WakeupIntHandler
                0x00810890                BusFault_Handler
 .text.BSP_SetDefaultRawFlashPlatConfig
                0x008108a4       0x60 ../../../../../../../PLAT/gccout/ec618_0h00/ap/bootloader/lib/libdriver.a(plat_config.o)
 .text.BSP_WriteToRawFlash.constprop.0
                0x00810904       0x38 ../../../../../../../PLAT/gccout/ec618_0h00/ap/bootloader/lib/libdriver.a(plat_config.o)
 .text.BSP_CalcCrcValue.constprop.0
                0x0081093c       0x40 ../../../../../../../PLAT/gccout/ec618_0h00/ap/bootloader/lib/libdriver.a(plat_config.o)
 .text.BSP_LoadPlatConfigFromRawFlash
                0x0081097c      0x1c6 ../../../../../../../PLAT/gccout/ec618_0h00/ap/bootloader/lib/libdriver.a(plat_config.o)
                0x0081097c                BSP_LoadPlatConfigFromRawFlash
 .text.BSP_GetPlatConfigItemValue
                0x00810b42      0x138 ../../../../../../../PLAT/gccout/ec618_0h00/ap/bootloader/lib/libdriver.a(plat_config.o)
                0x00810b42                BSP_GetPlatConfigItemValue
 .text.ARM_USART_GetVersion
                0x00810c7a       0x20 ../../../../../../../PLAT/gccout/ec618_0h00/ap/bootloader/lib/libdriver.a(bsp_usart.o)
                0x00810c7a                ARM_USART_GetVersion
 .text.USART_DmaRxConfig
                0x00810c9a       0x5c ../../../../../../../PLAT/gccout/ec618_0h00/ap/bootloader/lib/libdriver.a(bsp_usart.o)
 .text.USART_Transfer.constprop.0
                0x00810cf6        0x6 ../../../../../../../PLAT/gccout/ec618_0h00/ap/bootloader/lib/libdriver.a(bsp_usart.o)
 .text.USART1_Transfer
                0x00810cfc        0x4 ../../../../../../../PLAT/gccout/ec618_0h00/ap/bootloader/lib/libdriver.a(bsp_usart.o)
 .text.USART0_Transfer
                0x00810d00        0x4 ../../../../../../../PLAT/gccout/ec618_0h00/ap/bootloader/lib/libdriver.a(bsp_usart.o)
 .text.USART_GetCapabilities
                0x00810d04        0x4 ../../../../../../../PLAT/gccout/ec618_0h00/ap/bootloader/lib/libdriver.a(bsp_usart.o)
                0x00810d04                USART_GetCapabilities
 .text.USART0_GetCapabilities
                0x00810d08        0xc ../../../../../../../PLAT/gccout/ec618_0h00/ap/bootloader/lib/libdriver.a(bsp_usart.o)
 .text.USART1_GetCapabilities
                0x00810d14        0xc ../../../../../../../PLAT/gccout/ec618_0h00/ap/bootloader/lib/libdriver.a(bsp_usart.o)
 .text.USART_SetBaudrate
                0x00810d20       0x8a ../../../../../../../PLAT/gccout/ec618_0h00/ap/bootloader/lib/libdriver.a(bsp_usart.o)
                0x00810d20                USART_SetBaudrate
 .text.USART_GetBaudRate
                0x00810daa        0x6 ../../../../../../../PLAT/gccout/ec618_0h00/ap/bootloader/lib/libdriver.a(bsp_usart.o)
                0x00810daa                USART_GetBaudRate
 .text.USART0_GetBaudRate
                0x00810db0        0xc ../../../../../../../PLAT/gccout/ec618_0h00/ap/bootloader/lib/libdriver.a(bsp_usart.o)
 .text.USART1_GetBaudRate
                0x00810dbc        0xc ../../../../../../../PLAT/gccout/ec618_0h00/ap/bootloader/lib/libdriver.a(bsp_usart.o)
 .text.USART_Initialize
                0x00810dc8      0x10e ../../../../../../../PLAT/gccout/ec618_0h00/ap/bootloader/lib/libdriver.a(bsp_usart.o)
                0x00810dc8                USART_Initialize
 .text.USART0_Initialize
                0x00810ed6        0xc ../../../../../../../PLAT/gccout/ec618_0h00/ap/bootloader/lib/libdriver.a(bsp_usart.o)
 .text.USART1_Initialize
                0x00810ee2        0xc ../../../../../../../PLAT/gccout/ec618_0h00/ap/bootloader/lib/libdriver.a(bsp_usart.o)
 .text.USART_Uninitialize
                0x00810eee       0x2e ../../../../../../../PLAT/gccout/ec618_0h00/ap/bootloader/lib/libdriver.a(bsp_usart.o)
                0x00810eee                USART_Uninitialize
 .text.USART0_Uninitialize
                0x00810f1c        0xc ../../../../../../../PLAT/gccout/ec618_0h00/ap/bootloader/lib/libdriver.a(bsp_usart.o)
 .text.USART1_Uninitialize
                0x00810f28        0xc ../../../../../../../PLAT/gccout/ec618_0h00/ap/bootloader/lib/libdriver.a(bsp_usart.o)
 .text.USART_PowerControl
                0x00810f34      0x164 ../../../../../../../PLAT/gccout/ec618_0h00/ap/bootloader/lib/libdriver.a(bsp_usart.o)
                0x00810f34                USART_PowerControl
 .text.USART0_PowerControl
                0x00811098        0xc ../../../../../../../PLAT/gccout/ec618_0h00/ap/bootloader/lib/libdriver.a(bsp_usart.o)
 .text.USART1_PowerControl
                0x008110a4        0xc ../../../../../../../PLAT/gccout/ec618_0h00/ap/bootloader/lib/libdriver.a(bsp_usart.o)
 .text.USART_Send
                0x008110b0      0x106 ../../../../../../../PLAT/gccout/ec618_0h00/ap/bootloader/lib/libdriver.a(bsp_usart.o)
                0x008110b0                USART_Send
 .text.USART0_Send
                0x008111b6        0xc ../../../../../../../PLAT/gccout/ec618_0h00/ap/bootloader/lib/libdriver.a(bsp_usart.o)
 .text.USART1_Send
                0x008111c2        0xc ../../../../../../../PLAT/gccout/ec618_0h00/ap/bootloader/lib/libdriver.a(bsp_usart.o)
 .text.USART_SendPolling
                0x008111ce       0x94 ../../../../../../../PLAT/gccout/ec618_0h00/ap/bootloader/lib/libdriver.a(bsp_usart.o)
                0x008111ce                USART_SendPolling
 .text.USART0_SendPolling
                0x00811262        0xc ../../../../../../../PLAT/gccout/ec618_0h00/ap/bootloader/lib/libdriver.a(bsp_usart.o)
 .text.USART1_SendPolling
                0x0081126e        0xc ../../../../../../../PLAT/gccout/ec618_0h00/ap/bootloader/lib/libdriver.a(bsp_usart.o)
 .text.USART0_Receive
                0x0081127a        0xc ../../../../../../../PLAT/gccout/ec618_0h00/ap/bootloader/lib/libdriver.a(bsp_usart.o)
 .text.USART1_Receive
                0x00811286        0xc ../../../../../../../PLAT/gccout/ec618_0h00/ap/bootloader/lib/libdriver.a(bsp_usart.o)
 .text.USART_GetTxCount
                0x00811292       0x20 ../../../../../../../PLAT/gccout/ec618_0h00/ap/bootloader/lib/libdriver.a(bsp_usart.o)
                0x00811292                USART_GetTxCount
 .text.USART0_GetTxCount
                0x008112b2        0xc ../../../../../../../PLAT/gccout/ec618_0h00/ap/bootloader/lib/libdriver.a(bsp_usart.o)
 .text.USART1_GetTxCount
                0x008112be        0xc ../../../../../../../PLAT/gccout/ec618_0h00/ap/bootloader/lib/libdriver.a(bsp_usart.o)
 .text.USART_Control
                0x008112ca      0x204 ../../../../../../../PLAT/gccout/ec618_0h00/ap/bootloader/lib/libdriver.a(bsp_usart.o)
                0x008112ca                USART_Control
 .text.USART0_Control
                0x008114ce        0xc ../../../../../../../PLAT/gccout/ec618_0h00/ap/bootloader/lib/libdriver.a(bsp_usart.o)
 .text.USART1_Control
                0x008114da        0xc ../../../../../../../PLAT/gccout/ec618_0h00/ap/bootloader/lib/libdriver.a(bsp_usart.o)
 .text.USART_GetStatus
                0x008114e6       0x60 ../../../../../../../PLAT/gccout/ec618_0h00/ap/bootloader/lib/libdriver.a(bsp_usart.o)
                0x008114e6                USART_GetStatus
 .text.USART0_GetStatus
                0x00811546        0xc ../../../../../../../PLAT/gccout/ec618_0h00/ap/bootloader/lib/libdriver.a(bsp_usart.o)
 .text.USART1_GetStatus
                0x00811552        0xc ../../../../../../../PLAT/gccout/ec618_0h00/ap/bootloader/lib/libdriver.a(bsp_usart.o)
 .text.USART_SetModemControl
                0x0081155e       0x4c ../../../../../../../PLAT/gccout/ec618_0h00/ap/bootloader/lib/libdriver.a(bsp_usart.o)
                0x0081155e                USART_SetModemControl
 .text.USART0_SetModemControl
                0x008115aa        0xc ../../../../../../../PLAT/gccout/ec618_0h00/ap/bootloader/lib/libdriver.a(bsp_usart.o)
 .text.USART1_SetModemControl
                0x008115b6        0xc ../../../../../../../PLAT/gccout/ec618_0h00/ap/bootloader/lib/libdriver.a(bsp_usart.o)
 .text.USART_GetModemStatus
                0x008115c2       0x26 ../../../../../../../PLAT/gccout/ec618_0h00/ap/bootloader/lib/libdriver.a(bsp_usart.o)
                0x008115c2                USART_GetModemStatus
 .text.USART0_GetModemStatus
                0x008115e8        0xc ../../../../../../../PLAT/gccout/ec618_0h00/ap/bootloader/lib/libdriver.a(bsp_usart.o)
 .text.USART1_GetModemStatus
                0x008115f4        0xc ../../../../../../../PLAT/gccout/ec618_0h00/ap/bootloader/lib/libdriver.a(bsp_usart.o)
 .text.PAD_driverInit
                0x00811600        0x2 ../../../../../../../PLAT/gccout/ec618_0h00/ap/bootloader/lib/libdriver.a(pad.o)
                0x00811600                PAD_driverInit
 .text.PAD_getDefaultConfig
                0x00811602       0x30 ../../../../../../../PLAT/gccout/ec618_0h00/ap/bootloader/lib/libdriver.a(pad.o)
                0x00811602                PAD_getDefaultConfig
 .text.PAD_setPinConfig
                0x00811632       0x5e ../../../../../../../PLAT/gccout/ec618_0h00/ap/bootloader/lib/libdriver.a(pad.o)
                0x00811632                PAD_setPinConfig
 .text.WDT_unlock
                0x00811690        0xe ../../../../../../../PLAT/gccout/ec618_0h00/ap/bootloader/lib/libdriver.a(wdt.o)
                0x00811690                WDT_unlock
 .text.WDT_kick
                0x0081169e       0x24 ../../../../../../../PLAT/gccout/ec618_0h00/ap/bootloader/lib/libdriver.a(wdt.o)
                0x0081169e                WDT_kick
 .text.WDT_init
                0x008116c2       0x5a ../../../../../../../PLAT/gccout/ec618_0h00/ap/bootloader/lib/libdriver.a(wdt.o)
                0x008116c2                WDT_init
 .text.WDT_deInit
                0x0081171c       0x16 ../../../../../../../PLAT/gccout/ec618_0h00/ap/bootloader/lib/libdriver.a(wdt.o)
                0x0081171c                WDT_deInit
 .text.WDT_start
                0x00811732       0x28 ../../../../../../../PLAT/gccout/ec618_0h00/ap/bootloader/lib/libdriver.a(wdt.o)
                0x00811732                WDT_start
 .text.WDT_stop
                0x0081175a       0x28 ../../../../../../../PLAT/gccout/ec618_0h00/ap/bootloader/lib/libdriver.a(wdt.o)
                0x0081175a                WDT_stop
 .text.vcom_func_inhrnt_desc_ass
                0x00811782       0x1c ../../../../../../../PLAT/gccout/ec618_0h00/ap/bootloader/lib/libdriver.a(function_vcom_inherent.o)
                0x00811782                vcom_func_inhrnt_desc_ass
 .text.vcom_func_inhrnt_bind
                0x0081179e       0x4c ../../../../../../../PLAT/gccout/ec618_0h00/ap/bootloader/lib/libdriver.a(function_vcom_inherent.o)
                0x0081179e                vcom_func_inhrnt_bind
 .text.vcom_func_inhrnt_init
                0x008117ea        0x4 ../../../../../../../PLAT/gccout/ec618_0h00/ap/bootloader/lib/libdriver.a(function_vcom_inherent.o)
                0x008117ea                vcom_func_inhrnt_init
 .text.vcom_func_inhrnt_deinit
                0x008117ee        0x4 ../../../../../../../PLAT/gccout/ec618_0h00/ap/bootloader/lib/libdriver.a(function_vcom_inherent.o)
                0x008117ee                vcom_func_inhrnt_deinit
 .text.vcom_func_inhrnt_unbind
                0x008117f2       0x14 ../../../../../../../PLAT/gccout/ec618_0h00/ap/bootloader/lib/libdriver.a(function_vcom_inherent.o)
                0x008117f2                vcom_func_inhrnt_unbind
 .text.vcom_func_inhrnt_desc_parse
                0x00811806      0x106 ../../../../../../../PLAT/gccout/ec618_0h00/ap/bootloader/lib/libdriver.a(function_vcom_inherent.o)
                0x00811806                vcom_func_inhrnt_desc_parse
 .text.vcom_func_inhrnt_get_desc
                0x0081190c       0x94 ../../../../../../../PLAT/gccout/ec618_0h00/ap/bootloader/lib/libdriver.a(function_vcom_inherent.o)
                0x0081190c                vcom_func_inhrnt_get_desc
 .text.vcom_func_inhrnt_get_othspd_desc
                0x008119a0       0xae ../../../../../../../PLAT/gccout/ec618_0h00/ap/bootloader/lib/libdriver.a(function_vcom_inherent.o)
                0x008119a0                vcom_func_inhrnt_get_othspd_desc
 *fill*         0x00811a4e        0x2 
 .text          0x00811a50       0xec ../../../../../../../PLAT/gccout/ec618_0h00/ap/bootloader/lib/libdriver.a(memcpy-armv7m.o)
                0x00811a50                memcpy
 .text.ImageGeneralRead
                0x00811b3c       0x5c ../../../../../../../PLAT/prebuild/PLAT/lib/gcc/libbootloader.a(image.o)
                0x00811b3c                ImageGeneralRead
 .text.mbedtls_sha256_init
                0x00811b98        0x8 ../../../../../../../PLAT/prebuild/PLAT/lib/gcc/libbootloader.a(sha256.o)
                0x00811b98                mbedtls_sha256_init
 .text.mbedtls_sha256_starts_ret
                0x00811ba0       0xae ../../../../../../../PLAT/prebuild/PLAT/lib/gcc/libbootloader.a(sha256.o)
                0x00811ba0                mbedtls_sha256_starts_ret
 .text.mbedtls_internal_sha256_process
                0x00811c4e      0x142 ../../../../../../../PLAT/prebuild/PLAT/lib/gcc/libbootloader.a(sha256.o)
                0x00811c4e                mbedtls_internal_sha256_process
 .text.mbedtls_sha256_update_ret
                0x00811d90       0x72 ../../../../../../../PLAT/prebuild/PLAT/lib/gcc/libbootloader.a(sha256.o)
                0x00811d90                mbedtls_sha256_update_ret
 .text.mbedtls_sha256_finish_ret
                0x00811e02      0x116 ../../../../../../../PLAT/prebuild/PLAT/lib/gcc/libbootloader.a(sha256.o)
                0x00811e02                mbedtls_sha256_finish_ret
 .text.URCPutChar
                0x00811f18       0x3e ../../../../../../../PLAT/prebuild/PLAT/lib/gcc/libbootloader.a(bl_bsp.o)
                0x00811f18                URCPutChar
 .text.io_putchar
                0x00811f56       0x3e ../../../../../../../PLAT/prebuild/PLAT/lib/gcc/libbootloader.a(bl_bsp.o)
                0x00811f56                io_putchar
 .text.vcom_dbg_putchar
                0x00811f94       0x22 ../../../../../../../PLAT/prebuild/PLAT/lib/gcc/libbootloader.a(bl_bsp.o)
                0x00811f94                vcom_dbg_putchar
 .text.SetPrintAtUart
                0x00811fb6       0x52 ../../../../../../../PLAT/prebuild/PLAT/lib/gcc/libbootloader.a(bl_bsp.o)
                0x00811fb6                SetPrintAtUart
 .text.SetPrintForURC
                0x00812008       0x72 ../../../../../../../PLAT/prebuild/PLAT/lib/gcc/libbootloader.a(bl_bsp.o)
                0x00812008                SetPrintForURC
 .text.SelNormalOrURCPrint
                0x0081207a       0x18 ../../../../../../../PLAT/prebuild/PLAT/lib/gcc/libbootloader.a(bl_bsp.o)
                0x0081207a                SelNormalOrURCPrint
 .text.BSP_URCSetCfg
                0x00812092       0x3e ../../../../../../../PLAT/prebuild/PLAT/lib/gcc/libbootloader.a(bl_bsp.o)
                0x00812092                BSP_URCSetCfg
 .text.GPR_SetUartClk
                0x008120d0       0x66 ../../../../../../../PLAT/prebuild/PLAT/lib/gcc/libbootloader.a(bl_bsp.o)
                0x008120d0                GPR_SetUartClk
 .text.SysTick_Deinit
                0x00812136       0x12 ../../../../../../../PLAT/prebuild/PLAT/lib/gcc/libbootloader.a(bl_bsp.o)
                0x00812136                SysTick_Deinit
 .text.BRInfoInit
                0x00812148       0x3a ../../../../../../../PLAT/prebuild/PLAT/lib/gcc/libbootloader.a(bl_bsp.o)
                0x00812148                BRInfoInit
 .text.CleanBootRomResouce
                0x00812182       0x1e ../../../../../../../PLAT/prebuild/PLAT/lib/gcc/libbootloader.a(bl_bsp.o)
                0x00812182                CleanBootRomResouce
 .text.BSP_WdtTimeCntCfg
                0x008121a0        0xc ../../../../../../../PLAT/prebuild/PLAT/lib/gcc/libbootloader.a(bl_bsp.o)
                0x008121a0                BSP_WdtTimeCntCfg
 .text.BSP_WdtInit
                0x008121ac       0x3c ../../../../../../../PLAT/prebuild/PLAT/lib/gcc/libbootloader.a(bl_bsp.o)
                0x008121ac                BSP_WdtInit
 .text.BSP_UsbInit
                0x008121e8        0x8 ../../../../../../../PLAT/prebuild/PLAT/lib/gcc/libbootloader.a(bl_bsp.o)
                0x008121e8                BSP_UsbInit
 .text.BSP_Init
                0x008121f0       0x40 ../../../../../../../PLAT/prebuild/PLAT/lib/gcc/libbootloader.a(bl_bsp.o)
                0x008121f0                BSP_Init
 .text.BSP_DeInit
                0x00812230       0x6a ../../../../../../../PLAT/prebuild/PLAT/lib/gcc/libbootloader.a(bl_bsp.o)
                0x00812230                BSP_DeInit
 *fill*         0x0081229a        0x2 
 .text          0x0081229c      0xfdc ../../../../../../../PLAT/prebuild/PLAT/lib/gcc/libdeltapatch.a(bzlib.o)
                0x008122ae                BZ2_bz__AssertH__fail
                0x008122ec                BZ2_bzCompressInit
                0x00812408                BZ2_bzDecompressInit
                0x00812480                BZ2_indexIntoF
                0x008124a2                BZ2_bzDecompress
                0x00812dec                BZ2_bzDecompressEnd
                0x00812e34                BZ2_bzReadOpen
                0x00812fc0                BZ2_bzReadClose
                0x00813004                BZ2_bzRead
                0x00813104                BZ2_bzReadGetUnused
                0x0081314e                BZ2_bzBuffToBuffDecompress
                0x008131e2                BZ2_bzlibVersion
                0x008131ec                BZ2_bzopen
                0x008131ee                BZ2_bzdopen
                0x008131f2                BZ2_bzread
                0x00813222                BZ2_bzflush
                0x00813226                BZ2_bzclose
                0x0081325c                BZ2_bzerror
 .text          0x00813278     0x19bc ../../../../../../../PLAT/prebuild/PLAT/lib/gcc/libdeltapatch.a(decompress.o)
                0x00813278                BZ2_decompress
 .text          0x00814c34      0x376 ../../../../../../../PLAT/prebuild/PLAT/lib/gcc/libdeltapatch.a(huffman.o)
                0x00814c34                BZ2_hbMakeCodeLengths
                0x00814ec0                BZ2_hbAssignCodes
                0x00814ee8                BZ2_hbCreateDecodeTables
 *fill*         0x00814faa        0x2 
 .text          0x00814fac      0xfac ../../../../../../../PLAT/prebuild/PLAT/lib/gcc/libdeltapatch.a(patch_main.o)
                0x00814fcc                fwup_refesh_callback_demo
                0x00814fd0                wdt_callback_demo
                0x00815030                bkup_refesh_callback_demo
                0x00815034                delay_test
                0x00815036                GetOldZoneIdFromContext
                0x0081503c                GetNewZoneIdFromContext
                0x00815042                BsPatchIntegrateCallbackTestInit
                0x0081505c                BsPatchIntegrateLargeAppCaseInit
                0x00815080                BsPatchIntegrateAppCaseInit
                0x00815082                BsPatchIntegrateHeadCaseInit
                0x00815086                FileBuffInit
                0x008150a6                FileBuffDeInit
                0x008150c0                FileBuffSetFilePtr
                0x008150c2                FileBuffCheckFlushSec
                0x008150c6                FileBuffCheckFlushAll
                0x008150ca                FileBuffResetBuff
                0x008150cc                FileBuffClearAtStart
                0x008150d4                FileBuffGetReadOnceMaxLen
                0x008150e0                FileBuffGetSecRestLen
                0x008150ec                FileBuffGetTotalRestLen
                0x008150f4                FileBuffAppendLen
                0x00815134                FileBuffGetTailPtr
                0x00815158                patch_bkup_refresh
                0x00815180                patch_part_compare
                0x008151c8                PatchFileGetPartOffst
                0x008151cc                patch_backup_block
                0x008152a4                patch_restore_block
                0x00815386                patch_part
                0x008157c4                patch_common
                0x00815b34                patch_context
                0x00815db0                patch_alloc_once
                0x00815df8                patch_integrate_proc
                0x00815e68                patch_integrate_entry
                0x00815edc                patch_safe
 .text          0x00815f58      0x9d8 ../../../../../../../PLAT/prebuild/PLAT/lib/gcc/libdeltapatch.a(fakefs.o)
                0x00815f58                fakefs_get_sector_size
                0x00815f5e                fakefs_file_get_map_flag
                0x00815f90                fakefs_file_get_bind_flag
                0x00815f9c                fakefs_file_unbind_zoneid
                0x00815fc0                fakefs_file_bind_zoneid_once
                0x00815fe8                fakefs_file_unmap_all
                0x00816010                fakefs_file_size_raw
                0x00816044                fakefs_file_size
                0x00816048                fakefs_file_get_zoneid
                0x00816088                fakefs_file_get_base_old
                0x008160bc                fakefs_file_get_base
                0x008160e8                fakefs_file_get_offst
                0x00816120                fakefs_file_set_offst
                0x00816158                fakefs_get_handle
                0x008161b4                fakefs_file_map_once
                0x00816220                fakefs_open
                0x00816246                fakefs_ftell
                0x00816264                fakefs_fstat
                0x00816274                fakefs_fread
                0x008162e8                fota_main_file_write_sector_combile_dicard
                0x0081634c                fota_main_file_write_sector_combile
                0x008163bc                fota_main_file_write_sector_raw
                0x008163ee                fota_main_file_write_sector
                0x00816426                fakefs_fwrite
                0x0081651a                fakefs_fseek
                0x00816576                fakefs_get_file
                0x008165dc                fakefs_checkfptr
                0x00816608                fext_ini
                0x00816610                fext_ispart
                0x00816618                fext_isfilematch
                0x00816628                fwrite_std_normal
                0x0081662e                fwrite_std_ext_part
                0x0081666e                fopen_std
                0x008166b4                fclose_std
                0x008166e0                fread_std
                0x00816764                fwrite_std
                0x008167ac                fseek_std
                0x00816824                ftell_std
                0x00816864                feof_std
                0x008168dc                patch_file_map_once
                0x008168f0                patch_file_wrap_read
                0x00816906                patch_file_wrap_write
                0x0081691c                patch_file_wrap_erase_sector
 .text.FOTA_queryPkgIdGusnBelongs
                0x00816930       0x58 ../../../../../../../PLAT/prebuild/PLAT/lib/gcc/libfota.a(fota_man.o)
 .text.FOTA_convToDeltaState
                0x00816988       0x2a ../../../../../../../PLAT/prebuild/PLAT/lib/gcc/libfota.a(fota_man.o)
 .text.FOTA_displayCorpInfo
                0x008169b2       0x56 ../../../../../../../PLAT/prebuild/PLAT/lib/gcc/libfota.a(fota_man.o)
 .text.FOTA_kickWdt
                0x00816a08        0x8 ../../../../../../../PLAT/prebuild/PLAT/lib/gcc/libfota.a(fota_man.o)
 .text.FOTA_stopWdt
                0x00816a10        0x8 ../../../../../../../PLAT/prebuild/PLAT/lib/gcc/libfota.a(fota_man.o)
 .text.FOTA_isParFwIdentical
                0x00816a18       0x72 ../../../../../../../PLAT/prebuild/PLAT/lib/gcc/libfota.a(fota_man.o)
 .text.FOTA_buildPkgCtrlUnit
                0x00816a8a      0x10a ../../../../../../../PLAT/prebuild/PLAT/lib/gcc/libfota.a(fota_man.o)
 .text.FOTA_convPsidToGusn.constprop.0
                0x00816b94       0x4e ../../../../../../../PLAT/prebuild/PLAT/lib/gcc/libfota.a(fota_man.o)
 .text.FOTA_validateParNextFw.constprop.0
                0x00816be2       0x58 ../../../../../../../PLAT/prebuild/PLAT/lib/gcc/libfota.a(fota_man.o)
 .text.FOTA_validateParBaseFw.constprop.0
                0x00816c3a       0x50 ../../../../../../../PLAT/prebuild/PLAT/lib/gcc/libfota.a(fota_man.o)
 .text.FOTA_buildCtxRenewal.constprop.0
                0x00816c8a      0x196 ../../../../../../../PLAT/prebuild/PLAT/lib/gcc/libfota.a(fota_man.o)
 .text.FOTA_fetchCtxRetention.constprop.0.isra.0
                0x00816e20       0x3e ../../../../../../../PLAT/prebuild/PLAT/lib/gcc/libfota.a(fota_man.o)
 .text.FOTA_initContext.constprop.0.isra.0
                0x00816e5e       0x46 ../../../../../../../PLAT/prebuild/PLAT/lib/gcc/libfota.a(fota_man.o)
 .text.FOTA_init
                0x00816ea4       0x5a ../../../../../../../PLAT/prebuild/PLAT/lib/gcc/libfota.a(fota_man.o)
 .text.FOTA_syncToCtxRetenZone.isra.0
                0x00816efe       0x3e ../../../../../../../PLAT/prebuild/PLAT/lib/gcc/libfota.a(fota_man.o)
 .text.FOTA_exit
                0x00816f3c       0xd6 ../../../../../../../PLAT/prebuild/PLAT/lib/gcc/libfota.a(fota_man.o)
 .text.FOTA_refreshGusnToUcsm
                0x00817012       0x5c ../../../../../../../PLAT/prebuild/PLAT/lib/gcc/libfota.a(fota_man.o)
 .text.FOTA_refreshPsegBkup
                0x0081706e       0x2e ../../../../../../../PLAT/prebuild/PLAT/lib/gcc/libfota.a(fota_man.o)
 .text.FOTA_reportDfuProgress.isra.0
                0x0081709c      0x144 ../../../../../../../PLAT/prebuild/PLAT/lib/gcc/libfota.a(fota_man.o)
 .text.FOTA_refreshPsegFwup
                0x008171e0       0x36 ../../../../../../../PLAT/prebuild/PLAT/lib/gcc/libfota.a(fota_man.o)
 .text.FOTA_queryGusnFromUcsm.isra.0
                0x00817216       0x46 ../../../../../../../PLAT/prebuild/PLAT/lib/gcc/libfota.a(fota_man.o)
 .text.FOTA_convGusnToPscu
                0x0081725c       0xb0 ../../../../../../../PLAT/prebuild/PLAT/lib/gcc/libfota.a(fota_man.o)
 .text.FOTA_dearchivePar.constprop.0
                0x0081730c      0x1c8 ../../../../../../../PLAT/prebuild/PLAT/lib/gcc/libfota.a(fota_man.o)
 .text.FOTA_exec
                0x008174d4      0x2e0 ../../../../../../../PLAT/prebuild/PLAT/lib/gcc/libfota.a(fota_man.o)
 .text.FOTA_setSchemOemName
                0x008177b4       0x32 ../../../../../../../PLAT/prebuild/PLAT/lib/gcc/libfota.a(fota_man.o)
                0x008177b4                FOTA_setSchemOemName
 .text.FOTA_getInterface
                0x008177e6        0xa ../../../../../../../PLAT/prebuild/PLAT/lib/gcc/libfota.a(fota_man.o)
                0x008177e6                FOTA_getInterface
 .text.FOTA_checkDfuMission
                0x008177f0       0x4c ../../../../../../../PLAT/prebuild/PLAT/lib/gcc/libfota.a(fota_man.o)
                0x008177f0                FOTA_checkDfuMission
 .text.FOTA_getDfuProgress
                0x0081783c      0x128 ../../../../../../../PLAT/prebuild/PLAT/lib/gcc/libfota.a(fota_man.o)
                0x0081783c                FOTA_getDfuProgress
 .text.GetDltFileZoneId
                0x00817964        0x4 ../../../../../../../PLAT/prebuild/PLAT/lib/gcc/libfota.a(fota_patch.o)
                0x00817964                GetDltFileZoneId
 .text.GetBackupZoneId
                0x00817968        0x4 ../../../../../../../PLAT/prebuild/PLAT/lib/gcc/libfota.a(fota_patch.o)
                0x00817968                GetBackupZoneId
 .text.FOTA_patchImage
                0x0081796c        0x4 ../../../../../../../PLAT/prebuild/PLAT/lib/gcc/libfota.a(fota_patch.o)
                0x0081796c                FOTA_patchImage
 .text.FOTA_initCallbacks
                0x00817970       0x42 ../../../../../../../PLAT/prebuild/PLAT/lib/gcc/libfota.a(fota_callbacks.o)
                0x00817970                FOTA_initCallbacks
 .text.FOTA_cbInitMem
                0x008179b2        0xc ../../../../../../../PLAT/prebuild/PLAT/lib/gcc/libfota.a(fota_callbacks.o)
                0x008179b2                FOTA_cbInitMem
 .text.FOTA_cbInitFlash
                0x008179be        0xc ../../../../../../../PLAT/prebuild/PLAT/lib/gcc/libfota.a(fota_callbacks.o)
                0x008179be                FOTA_cbInitFlash
 .text.FOTA_cbDeinitFlash
                0x008179ca        0xc ../../../../../../../PLAT/prebuild/PLAT/lib/gcc/libfota.a(fota_callbacks.o)
                0x008179ca                FOTA_cbDeinitFlash
 .text.FOTA_cbEraseFlash
                0x008179d6        0xc ../../../../../../../PLAT/prebuild/PLAT/lib/gcc/libfota.a(fota_callbacks.o)
                0x008179d6                FOTA_cbEraseFlash
 .text.FOTA_cbWriteFlash
                0x008179e2       0x12 ../../../../../../../PLAT/prebuild/PLAT/lib/gcc/libfota.a(fota_callbacks.o)
                0x008179e2                FOTA_cbWriteFlash
 .text.FOTA_cbGetFlashSize
                0x008179f4        0xc ../../../../../../../PLAT/prebuild/PLAT/lib/gcc/libfota.a(fota_callbacks.o)
                0x008179f4                FOTA_cbGetFlashSize
 .text.FOTA_cbGetFlashBase
                0x00817a00        0xc ../../../../../../../PLAT/prebuild/PLAT/lib/gcc/libfota.a(fota_callbacks.o)
                0x00817a00                FOTA_cbGetFlashBase
 .text.FOTA_cbGetFlashXipAddr
                0x00817a0c        0xc ../../../../../../../PLAT/prebuild/PLAT/lib/gcc/libfota.a(fota_callbacks.o)
                0x00817a0c                FOTA_cbGetFlashXipAddr
 .text.FOTA_cbInitChksum
                0x00817a18        0xc ../../../../../../../PLAT/prebuild/PLAT/lib/gcc/libfota.a(fota_callbacks.o)
                0x00817a18                FOTA_cbInitChksum
 .text.FOTA_cbDoExtension
                0x00817a24        0xc ../../../../../../../PLAT/prebuild/PLAT/lib/gcc/libfota.a(fota_callbacks.o)
                0x00817a24                FOTA_cbDoExtension
 .text.FOTA_cbReadFlash
                0x00817a30       0x30 ../../../../../../../PLAT/prebuild/PLAT/lib/gcc/libfota.a(fota_callbacks.o)
                0x00817a30                FOTA_cbReadFlash
 .text.FOTA_queryArchiveHdr
                0x00817a60        0xc ../../../../../../../PLAT/prebuild/PLAT/lib/gcc/libfota.a(fota_parchive.o)
                0x00817a60                FOTA_queryArchiveHdr
 .text.FOTA_queryPackageHdr
                0x00817a6c        0xc ../../../../../../../PLAT/prebuild/PLAT/lib/gcc/libfota.a(fota_parchive.o)
                0x00817a6c                FOTA_queryPackageHdr
 .text.FOTA_queryPkgHdrOption
                0x00817a78       0x2a ../../../../../../../PLAT/prebuild/PLAT/lib/gcc/libfota.a(fota_parchive.o)
                0x00817a78                FOTA_queryPkgHdrOption
 .text.FOTA_initProc
                0x00817aa2       0x4c ../../../../../../../PLAT/prebuild/PLAT/lib/gcc/libfota.a(fota_hub.o)
                0x00817aa2                FOTA_initProc
 .text.FOTA_execProc
                0x00817aee       0x1c ../../../../../../../PLAT/prebuild/PLAT/lib/gcc/libfota.a(fota_hub.o)
                0x00817aee                FOTA_execProc
 .text.FOTA_exitProc
                0x00817b0a       0x1c ../../../../../../../PLAT/prebuild/PLAT/lib/gcc/libfota.a(fota_hub.o)
                0x00817b0a                FOTA_exitProc
 .text.trimEfuseAon
                0x00817b26       0xfc ../../../../../../../PLAT/prebuild/PLAT/lib/gcc/libdriver_private_bl.a(hal_trim.o)
                0x00817b26                trimEfuseAon
 .text.__NVIC_DisableIRQ
                0x00817c22       0x20 ../../../../../../../PLAT/prebuild/PLAT/lib/gcc/libdriver_private_bl.a(pwrkey.o)
 .text.__NVIC_ClearPendingIRQ
                0x00817c42       0x18 ../../../../../../../PLAT/prebuild/PLAT/lib/gcc/libdriver_private_bl.a(pwrkey.o)
 .text.pwrKeyWait10Ms
                0x00817c5a       0x46 ../../../../../../../PLAT/prebuild/PLAT/lib/gcc/libdriver_private_bl.a(pwrkey.o)
 .text.__pwrKeyEnterOff
                0x00817ca0       0x3c ../../../../../../../PLAT/prebuild/PLAT/lib/gcc/libdriver_private_bl.a(pwrkey.o)
                0x00817ca0                __pwrKeyEnterOff
 .text.pwrKeyIsSwPorReset
                0x00817cdc       0x1e ../../../../../../../PLAT/prebuild/PLAT/lib/gcc/libdriver_private_bl.a(pwrkey.o)
                0x00817cdc                pwrKeyIsSwPorReset
 .text.pwrKeyIsFirstPowerOn
                0x00817cfa       0x2e ../../../../../../../PLAT/prebuild/PLAT/lib/gcc/libdriver_private_bl.a(pwrkey.o)
 .text.pwrKeyStartPowerOff
                0x00817d28       0x5a ../../../../../../../PLAT/prebuild/PLAT/lib/gcc/libdriver_private_bl.a(pwrkey.o)
                0x00817d28                pwrKeyStartPowerOff
 .text.pwrkeyPwrOnDebounce
                0x00817d82       0x46 ../../../../../../../PLAT/prebuild/PLAT/lib/gcc/libdriver_private_bl.a(pwrkey.o)
                0x00817d82                pwrkeyPwrOnDebounce
 .text.pwrKeyGetPwrKeyMode
                0x00817dc8       0x26 ../../../../../../../PLAT/prebuild/PLAT/lib/gcc/libdriver_private_bl.a(pwrkey.o)
                0x00817dc8                pwrKeyGetPwrKeyMode
 .text.CPXIP_Frame_Config
                0x00817dee       0x38 ../../../../../../../PLAT/prebuild/PLAT/lib/gcc/libdriver_private_bl.a(cpxip.o)
 .text.CPXIP_WaitSpecFlagUntilTimeout
                0x00817e26       0x66 ../../../../../../../PLAT/prebuild/PLAT/lib/gcc/libdriver_private_bl.a(cpxip.o)
 .text.CPXIP_QSPI_Transmit
                0x00817e8c       0xee ../../../../../../../PLAT/prebuild/PLAT/lib/gcc/libdriver_private_bl.a(cpxip.o)
 .text.CPXIP_QSPI_Command
                0x00817f7a       0x6e ../../../../../../../PLAT/prebuild/PLAT/lib/gcc/libdriver_private_bl.a(cpxip.o)
 .text.CPQSPI_WriteEnableVolatile
                0x00817fe8       0x20 ../../../../../../../PLAT/prebuild/PLAT/lib/gcc/libdriver_private_bl.a(cpxip.o)
 .text.CPXIP_QSPI_Config
                0x00818008       0x2e ../../../../../../../PLAT/prebuild/PLAT/lib/gcc/libdriver_private_bl.a(cpxip.o)
                0x00818008                CPXIP_QSPI_Config
 .text.CPXIP_QSPI_Init
                0x00818036       0x46 ../../../../../../../PLAT/prebuild/PLAT/lib/gcc/libdriver_private_bl.a(cpxip.o)
                0x00818036                CPXIP_QSPI_Init
 .text.CPXIP_QSPI_XIP_Enable
                0x0081807c       0x38 ../../../../../../../PLAT/prebuild/PLAT/lib/gcc/libdriver_private_bl.a(cpxip.o)
                0x0081807c                CPXIP_QSPI_XIP_Enable
 .text.CPXIP_QSPI_XIP_Mode_Enable
                0x008180b4       0x2c ../../../../../../../PLAT/prebuild/PLAT/lib/gcc/libdriver_private_bl.a(cpxip.o)
                0x008180b4                CPXIP_QSPI_XIP_Mode_Enable
 .text.CPXIP_QSPI_Receive
                0x008180e0       0xb8 ../../../../../../../PLAT/prebuild/PLAT/lib/gcc/libdriver_private_bl.a(cpxip.o)
                0x008180e0                CPXIP_QSPI_Receive
 .text.CPXIP_PollingWriteEnFlag
                0x00818198       0x40 ../../../../../../../PLAT/prebuild/PLAT/lib/gcc/libdriver_private_bl.a(cpxip.o)
 .text.CPXIP_WriteEnable
                0x008181d8       0x28 ../../../../../../../PLAT/prebuild/PLAT/lib/gcc/libdriver_private_bl.a(cpxip.o)
 .text.CPXIP_PollingBusyFlag
                0x00818200       0x4a ../../../../../../../PLAT/prebuild/PLAT/lib/gcc/libdriver_private_bl.a(cpxip.o)
 .text.CPXIP_PollingQEnFlag
                0x0081824a       0x46 ../../../../../../../PLAT/prebuild/PLAT/lib/gcc/libdriver_private_bl.a(cpxip.o)
 .text.CPXIP_XIP_Mode_Disable
                0x00818290        0xa ../../../../../../../PLAT/prebuild/PLAT/lib/gcc/libdriver_private_bl.a(cpxip.o)
                0x00818290                CPXIP_XIP_Mode_Disable
 .text.CPXIP_Read_Status_Reg
                0x0081829a       0xa4 ../../../../../../../PLAT/prebuild/PLAT/lib/gcc/libdriver_private_bl.a(cpxip.o)
                0x0081829a                CPXIP_Read_Status_Reg
 .text.CPXIP_Quad_Init
                0x0081833e       0x60 ../../../../../../../PLAT/prebuild/PLAT/lib/gcc/libdriver_private_bl.a(cpxip.o)
                0x0081833e                CPXIP_Quad_Init
 .text.CPQSPI_Write_Volatile_Status_Reg
                0x0081839e       0x7a ../../../../../../../PLAT/prebuild/PLAT/lib/gcc/libdriver_private_bl.a(cpxip.o)
                0x0081839e                CPQSPI_Write_Volatile_Status_Reg
 .text.CPflash_ProtectCheck
                0x00818418       0x28 ../../../../../../../PLAT/prebuild/PLAT/lib/gcc/libdriver_private_bl.a(cpxip.o)
                0x00818418                CPflash_ProtectCheck
 .text.CPflash_RestoreProtect
                0x00818440        0x8 ../../../../../../../PLAT/prebuild/PLAT/lib/gcc/libdriver_private_bl.a(cpxip.o)
                0x00818440                CPflash_RestoreProtect
 .text.CPXIP_QSPI_Write
                0x00818448       0x9c ../../../../../../../PLAT/prebuild/PLAT/lib/gcc/libdriver_private_bl.a(cpxip.o)
                0x00818448                CPXIP_QSPI_Write
 .text.CPXIP_QSPI_Erase_Sector
                0x008184e4       0x5a ../../../../../../../PLAT/prebuild/PLAT/lib/gcc/libdriver_private_bl.a(cpxip.o)
                0x008184e4                CPXIP_QSPI_Erase_Sector
 .text.CPXIP_QSPI_Read
                0x0081853e       0x18 ../../../../../../../PLAT/prebuild/PLAT/lib/gcc/libdriver_private_bl.a(cpxip.o)
                0x0081853e                CPXIP_QSPI_Read
 .text.CPXIP_Enable
                0x00818556       0x3c ../../../../../../../PLAT/prebuild/PLAT/lib/gcc/libdriver_private_bl.a(cpxip.o)
                0x00818556                CPXIP_Enable
 .text.CPXIP_DeInit
                0x00818592        0x2 ../../../../../../../PLAT/prebuild/PLAT/lib/gcc/libdriver_private_bl.a(cpxip.o)
                0x00818592                CPXIP_DeInit
 .text.EfusePollDone
                0x00818594       0x78 ../../../../../../../PLAT/prebuild/PLAT/lib/gcc/libdriver_private_bl.a(efuse.o)
 .text.EfusePollDoneNoIRQ.constprop.0
                0x0081860c       0x46 ../../../../../../../PLAT/prebuild/PLAT/lib/gcc/libdriver_private_bl.a(efuse.o)
 .text.EfuseInit
                0x00818652        0x8 ../../../../../../../PLAT/prebuild/PLAT/lib/gcc/libdriver_private_bl.a(efuse.o)
                0x00818652                EfuseInit
 .text.EFuseSWRead
                0x0081865a       0x9c ../../../../../../../PLAT/prebuild/PLAT/lib/gcc/libdriver_private_bl.a(efuse.o)
                0x0081865a                EFuseSWRead
 .text.EFuseSWReadSafePolling
                0x008186f6       0xb0 ../../../../../../../PLAT/prebuild/PLAT/lib/gcc/libdriver_private_bl.a(efuse.o)
                0x008186f6                EFuseSWReadSafePolling
 .text.EFuseSwPlatBitsRead
                0x008187a6        0xa ../../../../../../../PLAT/prebuild/PLAT/lib/gcc/libdriver_private_bl.a(efuse.o)
                0x008187a6                EFuseSwPlatBitsRead
 .text.trimUsb33InvFlagRead
                0x008187b0       0x24 ../../../../../../../PLAT/prebuild/PLAT/lib/gcc/libdriver_private_bl.a(efuse.o)
                0x008187b0                trimUsb33InvFlagRead
 .text.EFuseAtePassed
                0x008187d4       0x28 ../../../../../../../PLAT/prebuild/PLAT/lib/gcc/libdriver_private_bl.a(efuse.o)
                0x008187d4                EFuseAtePassed
 .text.trimLdoRet09Read
                0x008187fc       0x24 ../../../../../../../PLAT/prebuild/PLAT/lib/gcc/libdriver_private_bl.a(efuse.o)
                0x008187fc                trimLdoRet09Read
 .text.trimLdoSimRead
                0x00818820       0x24 ../../../../../../../PLAT/prebuild/PLAT/lib/gcc/libdriver_private_bl.a(efuse.o)
                0x00818820                trimLdoSimRead
 .text.trimLdoUsb11RetRead
                0x00818844       0x22 ../../../../../../../PLAT/prebuild/PLAT/lib/gcc/libdriver_private_bl.a(efuse.o)
                0x00818844                trimLdoUsb11RetRead
 .text.trimLdoUsb33Read
                0x00818866       0x44 ../../../../../../../PLAT/prebuild/PLAT/lib/gcc/libdriver_private_bl.a(efuse.o)
                0x00818866                trimLdoUsb33Read
 .text.EnableICache
                0x008188aa       0x22 ../../../../../../../PLAT/prebuild/PLAT/lib/gcc/libdriver_private_bl.a(cache.o)
                0x008188aa                EnableICache
 .text.DisableICache
                0x008188cc       0x12 ../../../../../../../PLAT/prebuild/PLAT/lib/gcc/libdriver_private_bl.a(cache.o)
                0x008188cc                DisableICache
 .text.__NVIC_ClearPendingIRQ
                0x008188de       0x12 ../../../../../../../PLAT/prebuild/PLAT/lib/gcc/libdriver_private_bl.a(ic.o)
 .text.checkIrqNumValid
                0x008188f0        0xc ../../../../../../../PLAT/prebuild/PLAT/lib/gcc/libdriver_private_bl.a(ic.o)
 .text.getXicModule
                0x008188fc       0x36 ../../../../../../../PLAT/prebuild/PLAT/lib/gcc/libdriver_private_bl.a(ic.o)
 .text.XIC_SetVector
                0x00818932       0x48 ../../../../../../../PLAT/prebuild/PLAT/lib/gcc/libdriver_private_bl.a(ic.o)
                0x00818932                XIC_SetVector
 .text.XIC_EnableIRQ
                0x0081897a       0x92 ../../../../../../../PLAT/prebuild/PLAT/lib/gcc/libdriver_private_bl.a(ic.o)
                0x0081897a                XIC_EnableIRQ
 .text.XIC_DisableIRQ
                0x00818a0c       0x90 ../../../../../../../PLAT/prebuild/PLAT/lib/gcc/libdriver_private_bl.a(ic.o)
                0x00818a0c                XIC_DisableIRQ
 .text.XIC_ClearPendingIRQ
                0x00818a9c       0x92 ../../../../../../../PLAT/prebuild/PLAT/lib/gcc/libdriver_private_bl.a(ic.o)
                0x00818a9c                XIC_ClearPendingIRQ
 .text.XIC_SuppressOvfIRQ
                0x00818b2e       0x90 ../../../../../../../PLAT/prebuild/PLAT/lib/gcc/libdriver_private_bl.a(ic.o)
                0x00818b2e                XIC_SuppressOvfIRQ
 .text.GPR_getClockSrcFreq
                0x00818bbe      0x26e ../../../../../../../PLAT/prebuild/PLAT/lib/gcc/libdriver_private_bl.a(gpr.o)
 .text.GPR_getClockDiv
                0x00818e2c      0x100 ../../../../../../../PLAT/prebuild/PLAT/lib/gcc/libdriver_private_bl.a(gpr.o)
 .text.GPR_setClockSrc
                0x00818f2c       0x8a ../../../../../../../PLAT/prebuild/PLAT/lib/gcc/libdriver_private_bl.a(gpr.o)
                0x00818f2c                GPR_setClockSrc
 .text.GPR_setClockDiv
                0x00818fb6      0x1be ../../../../../../../PLAT/prebuild/PLAT/lib/gcc/libdriver_private_bl.a(gpr.o)
                0x00818fb6                GPR_setClockDiv
 .text.GPR_getClockFreq
                0x00819174       0x16 ../../../../../../../PLAT/prebuild/PLAT/lib/gcc/libdriver_private_bl.a(gpr.o)
                0x00819174                GPR_getClockFreq
 .text.GPR_swReset
                0x0081918a       0x36 ../../../../../../../PLAT/prebuild/PLAT/lib/gcc/libdriver_private_bl.a(gpr.o)
                0x0081918a                GPR_swReset
 .text.GPR_swResetModule
                0x008191c0       0x90 ../../../../../../../PLAT/prebuild/PLAT/lib/gcc/libdriver_private_bl.a(gpr.o)
                0x008191c0                GPR_swResetModule
 .text.DMA_initHardware
                0x00819250       0x3c ../../../../../../../PLAT/prebuild/PLAT/lib/gcc/libdriver_private_bl.a(dma.o)
 .text.DMA_init
                0x0081928c       0x6a ../../../../../../../PLAT/prebuild/PLAT/lib/gcc/libdriver_private_bl.a(dma.o)
                0x0081928c                DMA_init
 .text.DMA_openChannel
                0x008192f6       0x74 ../../../../../../../PLAT/prebuild/PLAT/lib/gcc/libdriver_private_bl.a(dma.o)
                0x008192f6                DMA_openChannel
 .text.DMA_startChannel
                0x0081936a       0x86 ../../../../../../../PLAT/prebuild/PLAT/lib/gcc/libdriver_private_bl.a(dma.o)
                0x0081936a                DMA_startChannel
 .text.DMA_stopChannel
                0x008193f0       0xc0 ../../../../../../../PLAT/prebuild/PLAT/lib/gcc/libdriver_private_bl.a(dma.o)
                0x008193f0                DMA_stopChannel
 .text.DMA_closeChannel
                0x008194b0       0x82 ../../../../../../../PLAT/prebuild/PLAT/lib/gcc/libdriver_private_bl.a(dma.o)
                0x008194b0                DMA_closeChannel
 .text.DMA_resetChannel
                0x00819532       0x60 ../../../../../../../PLAT/prebuild/PLAT/lib/gcc/libdriver_private_bl.a(dma.o)
                0x00819532                DMA_resetChannel
 .text.DMA_setChannelRequestSource
                0x00819592       0x4c ../../../../../../../PLAT/prebuild/PLAT/lib/gcc/libdriver_private_bl.a(dma.o)
                0x00819592                DMA_setChannelRequestSource
 .text.DMA_transferSetup
                0x008195de       0xc2 ../../../../../../../PLAT/prebuild/PLAT/lib/gcc/libdriver_private_bl.a(dma.o)
                0x008195de                DMA_transferSetup
 .text.DMA_rigisterChannelCallback
                0x008196a0       0x46 ../../../../../../../PLAT/prebuild/PLAT/lib/gcc/libdriver_private_bl.a(dma.o)
                0x008196a0                DMA_rigisterChannelCallback
 .text.DMA_enableChannelInterrupts
                0x008196e6       0x78 ../../../../../../../PLAT/prebuild/PLAT/lib/gcc/libdriver_private_bl.a(dma.o)
                0x008196e6                DMA_enableChannelInterrupts
 .text.DMA_getChannelCount
                0x0081975e       0x76 ../../../../../../../PLAT/prebuild/PLAT/lib/gcc/libdriver_private_bl.a(dma.o)
                0x0081975e                DMA_getChannelCount
 .text.DMA_getChannelCurrentTargetAddress
                0x008197d4       0x24 ../../../../../../../PLAT/prebuild/PLAT/lib/gcc/libdriver_private_bl.a(dma.o)
                0x008197d4                DMA_getChannelCurrentTargetAddress
 .text.DMA_buildDescriptor
                0x008197f8       0x9a ../../../../../../../PLAT/prebuild/PLAT/lib/gcc/libdriver_private_bl.a(dma.o)
                0x008197f8                DMA_buildDescriptor
 .text.AonRegGetResetReason
                0x00819892       0x10 ../../../../../../../PLAT/prebuild/PLAT/lib/gcc/libdriver_private_bl.a(aonreg.o)
                0x00819892                AonRegGetResetReason
 .text.clsdev_oep_rx_handler
                0x008198a2        0x4 ../../../../../../../PLAT/prebuild/PLAT/lib/gcc/libusbbl_priv.a(device_ecm.o)
 .text.dev_eth_ecm_init
                0x008198a6        0x8 ../../../../../../../PLAT/prebuild/PLAT/lib/gcc/libusbbl_priv.a(device_ecm.o)
                0x008198a6                dev_eth_ecm_init
 .text.dev_eth_ecm_terminate
                0x008198ae        0xc ../../../../../../../PLAT/prebuild/PLAT/lib/gcc/libusbbl_priv.a(device_ecm.o)
                0x008198ae                dev_eth_ecm_terminate
 .text.dev_eth_ecm_send
                0x008198ba        0x6 ../../../../../../../PLAT/prebuild/PLAT/lib/gcc/libusbbl_priv.a(device_ecm.o)
 .text.dev_eth_ecm_recv
                0x008198c0        0x4 ../../../../../../../PLAT/prebuild/PLAT/lib/gcc/libusbbl_priv.a(device_ecm.o)
 .text.dev_eth_ecm_poll_rx
                0x008198c4        0x4 ../../../../../../../PLAT/prebuild/PLAT/lib/gcc/libusbbl_priv.a(device_ecm.o)
 .text.dev_eth_ecm_poll_tx
                0x008198c8        0x4 ../../../../../../../PLAT/prebuild/PLAT/lib/gcc/libusbbl_priv.a(device_ecm.o)
 .text.usbdev_ecm0_static_clsdev_base
                0x008198cc        0xa ../../../../../../../PLAT/prebuild/PLAT/lib/gcc/libusbbl_priv.a(device_ecm.o)
 .text.clsdev_ctrl
                0x008198d6        0xc ../../../../../../../PLAT/prebuild/PLAT/lib/gcc/libusbbl_priv.a(device_ecm.o)
 .text.usbdev_ecm0_static_terminate_finish
                0x008198e2       0x16 ../../../../../../../PLAT/prebuild/PLAT/lib/gcc/libusbbl_priv.a(device_ecm.o)
 .text.usbdev_ecm0_static_earlyinit_start
                0x008198f8       0x44 ../../../../../../../PLAT/prebuild/PLAT/lib/gcc/libusbbl_priv.a(device_ecm.o)
 .text.dev_eth_ecm_notify_halt.constprop.0
                0x0081993c        0x4 ../../../../../../../PLAT/prebuild/PLAT/lib/gcc/libusbbl_priv.a(device_ecm.o)
 .text.dev_eth_ecm_get_out_avail
                0x00819940        0x4 ../../../../../../../PLAT/prebuild/PLAT/lib/gcc/libusbbl_priv.a(device_ecm.o)
 .text.dev_eth_ecm_get_in_waiting
                0x00819944        0x4 ../../../../../../../PLAT/prebuild/PLAT/lib/gcc/libusbbl_priv.a(device_ecm.o)
 .text.dev_eth_ecm_rx_submit
                0x00819948        0x4 ../../../../../../../PLAT/prebuild/PLAT/lib/gcc/libusbbl_priv.a(device_ecm.o)
 .text.dev_eth_ecm_isinit.constprop.0
                0x0081994c       0x1a ../../../../../../../PLAT/prebuild/PLAT/lib/gcc/libusbbl_priv.a(device_ecm.o)
 .text.usbdev_ecm0_static_terminate_start
                0x00819966       0x2a ../../../../../../../PLAT/prebuild/PLAT/lib/gcc/libusbbl_priv.a(device_ecm.o)
 .text.clsdev_oep_rx_handler.constprop.0
                0x00819990        0x4 ../../../../../../../PLAT/prebuild/PLAT/lib/gcc/libusbbl_priv.a(device_ecm.o)
 .text.clsdev_iep_tx_handler
                0x00819994        0x4 ../../../../../../../PLAT/prebuild/PLAT/lib/gcc/libusbbl_priv.a(device_ecm.o)
 .text.dev_eth_ecm_connect.isra.0
                0x00819998       0x42 ../../../../../../../PLAT/prebuild/PLAT/lib/gcc/libusbbl_priv.a(device_ecm.o)
 .text.clsdev_connect
                0x008199da        0xc ../../../../../../../PLAT/prebuild/PLAT/lib/gcc/libusbbl_priv.a(device_ecm.o)
 .text.dev_eth_ecm_clearnotify.isra.0
                0x008199e6       0x60 ../../../../../../../PLAT/prebuild/PLAT/lib/gcc/libusbbl_priv.a(device_ecm.o)
 .text.dev_eth_ecm_reset.isra.0
                0x00819a46       0x14 ../../../../../../../PLAT/prebuild/PLAT/lib/gcc/libusbbl_priv.a(device_ecm.o)
 .text.clsdev_reset
                0x00819a5a        0xc ../../../../../../../PLAT/prebuild/PLAT/lib/gcc/libusbbl_priv.a(device_ecm.o)
 .text.dev_eth_ecm_disconnect.isra.0
                0x00819a66       0x1a ../../../../../../../PLAT/prebuild/PLAT/lib/gcc/libusbbl_priv.a(device_ecm.o)
 .text.clsdev_disconnect
                0x00819a80        0xc ../../../../../../../PLAT/prebuild/PLAT/lib/gcc/libusbbl_priv.a(device_ecm.o)
 .text.dev_eth_ecm_dnotify_lnkmd_get_epnum
                0x00819a8c       0x2a ../../../../../../../PLAT/prebuild/PLAT/lib/gcc/libusbbl_priv.a(device_ecm.o)
                0x00819a8c                dev_eth_ecm_dnotify_lnkmd_get_epnum
 .text.get_eth_ecm0_handler
                0x00819ab6        0xa ../../../../../../../PLAT/prebuild/PLAT/lib/gcc/libusbbl_priv.a(device_ecm.o)
                0x00819ab6                get_eth_ecm0_handler
 .text.usbdev_ecm0_static_earlyinit_finish
                0x00819ac0       0x2c ../../../../../../../PLAT/prebuild/PLAT/lib/gcc/libusbbl_priv.a(device_ecm.o)
 .text.list_init
                0x00819aec        0x6 ../../../../../../../PLAT/prebuild/PLAT/lib/gcc/libusbbl_priv.a(function_vcom_tpl.o)
 .text.vcom_tplfunc_reset
                0x00819af2       0x28 ../../../../../../../PLAT/prebuild/PLAT/lib/gcc/libusbbl_priv.a(function_vcom_tpl.o)
 .text.vcom_tplfunc_ep0_din_stage_comp
                0x00819b1a        0x4 ../../../../../../../PLAT/prebuild/PLAT/lib/gcc/libusbbl_priv.a(function_vcom_tpl.o)
 .text.vcom_tplfunc_ep0_dout_stage_comp
                0x00819b1e       0x1e ../../../../../../../PLAT/prebuild/PLAT/lib/gcc/libusbbl_priv.a(function_vcom_tpl.o)
 .text.vcom_func_trans_init
                0x00819b3c       0x14 ../../../../../../../PLAT/prebuild/PLAT/lib/gcc/libusbbl_priv.a(function_vcom_tpl.o)
                0x00819b3c                vcom_func_trans_init
 .text.vcom_tplfunc_sof
                0x00819b50       0x18 ../../../../../../../PLAT/prebuild/PLAT/lib/gcc/libusbbl_priv.a(function_vcom_tpl.o)
 .text.get_vcom_tplfunc_desc_size
                0x00819b68       0x12 ../../../../../../../PLAT/prebuild/PLAT/lib/gcc/libusbbl_priv.a(function_vcom_tpl.o)
                0x00819b68                get_vcom_tplfunc_desc_size
 .text.get_vcom_tplfunc_desc_othcfg_size
                0x00819b7a        0x4 ../../../../../../../PLAT/prebuild/PLAT/lib/gcc/libusbbl_priv.a(function_vcom_tpl.o)
                0x00819b7a                get_vcom_tplfunc_desc_othcfg_size
 .text.get_vcom_tplfunc_intf_num
                0x00819b7e        0xa ../../../../../../../PLAT/prebuild/PLAT/lib/gcc/libusbbl_priv.a(function_vcom_tpl.o)
                0x00819b7e                get_vcom_tplfunc_intf_num
 .text.get_vcom_tplfunc_clstype
                0x00819b88       0x14 ../../../../../../../PLAT/prebuild/PLAT/lib/gcc/libusbbl_priv.a(function_vcom_tpl.o)
                0x00819b88                get_vcom_tplfunc_clstype
 .text.vcom_tplfunc_retwkup_restore
                0x00819b9c        0x4 ../../../../../../../PLAT/prebuild/PLAT/lib/gcc/libusbbl_priv.a(function_vcom_tpl.o)
                0x00819b9c                vcom_tplfunc_retwkup_restore
 .text.get_vcom_func_inst_trans
                0x00819ba0        0xa ../../../../../../../PLAT/prebuild/PLAT/lib/gcc/libusbbl_priv.a(function_vcom_tpl.o)
                0x00819ba0                get_vcom_func_inst_trans
 .text.vcom_func_recv_trigavail
                0x00819baa       0x22 ../../../../../../../PLAT/prebuild/PLAT/lib/gcc/libusbbl_priv.a(function_vcom_tpl.o)
                0x00819baa                vcom_func_recv_trigavail
 .text.vcom_func_send_trigavail
                0x00819bcc       0x22 ../../../../../../../PLAT/prebuild/PLAT/lib/gcc/libusbbl_priv.a(function_vcom_tpl.o)
                0x00819bcc                vcom_func_send_trigavail
 .text.vcom_func_txbuf_reset
                0x00819bee       0x24 ../../../../../../../PLAT/prebuild/PLAT/lib/gcc/libusbbl_priv.a(function_vcom_tpl.o)
                0x00819bee                vcom_func_txbuf_reset
 .text.vcom_func_rxbuf_reset
                0x00819c12       0x20 ../../../../../../../PLAT/prebuild/PLAT/lib/gcc/libusbbl_priv.a(function_vcom_tpl.o)
                0x00819c12                vcom_func_rxbuf_reset
 .text.vcom_get_ext_ntf_xfercond
                0x00819c32       0x56 ../../../../../../../PLAT/prebuild/PLAT/lib/gcc/libusbbl_priv.a(function_vcom_tpl.o)
 .text.vcom_diep_txbuf_get_sparecnt
                0x00819c88       0x28 ../../../../../../../PLAT/prebuild/PLAT/lib/gcc/libusbbl_priv.a(function_vcom_tpl.o)
 .text.vcom_tplfunc_notify_start_transfer
                0x00819cb0       0x42 ../../../../../../../PLAT/prebuild/PLAT/lib/gcc/libusbbl_priv.a(function_vcom_tpl.o)
 .text.vcom_tplfunc_try_notify_xfer
                0x00819cf2        0xe ../../../../../../../PLAT/prebuild/PLAT/lib/gcc/libusbbl_priv.a(function_vcom_tpl.o)
 .text.vcom_func_txbuf_dlyalloc
                0x00819d00       0x52 ../../../../../../../PLAT/prebuild/PLAT/lib/gcc/libusbbl_priv.a(function_vcom_tpl.o)
                0x00819d00                vcom_func_txbuf_dlyalloc
 .text.vcom_func_rxbuf_dlyalloc
                0x00819d52       0x52 ../../../../../../../PLAT/prebuild/PLAT/lib/gcc/libusbbl_priv.a(function_vcom_tpl.o)
                0x00819d52                vcom_func_rxbuf_dlyalloc
 .text.vcom_ext_ntf_req
                0x00819da4       0x96 ../../../../../../../PLAT/prebuild/PLAT/lib/gcc/libusbbl_priv.a(function_vcom_tpl.o)
                0x00819da4                vcom_ext_ntf_req
 .text.get_vcom_tplfunc_desc_ptr
                0x00819e3a       0x5e ../../../../../../../PLAT/prebuild/PLAT/lib/gcc/libusbbl_priv.a(function_vcom_tpl.o)
                0x00819e3a                get_vcom_tplfunc_desc_ptr
 .text.get_vcom_tplfunc_desc_othcfg_ptr
                0x00819e98       0x5e ../../../../../../../PLAT/prebuild/PLAT/lib/gcc/libusbbl_priv.a(function_vcom_tpl.o)
                0x00819e98                get_vcom_tplfunc_desc_othcfg_ptr
 .text.vcom_tplfunc_unbind
                0x00819ef6       0xde ../../../../../../../PLAT/prebuild/PLAT/lib/gcc/libusbbl_priv.a(function_vcom_tpl.o)
                0x00819ef6                vcom_tplfunc_unbind
 .text.vcom_up_lnkmd_xfer_cfg
                0x00819fd4       0x14 ../../../../../../../PLAT/prebuild/PLAT/lib/gcc/libusbbl_priv.a(function_vcom_tpl.o)
                0x00819fd4                vcom_up_lnkmd_xfer_cfg
 .text.vcom_tplfunc_dataout
                0x00819fe8       0x2a ../../../../../../../PLAT/prebuild/PLAT/lib/gcc/libusbbl_priv.a(function_vcom_tpl.o)
 .text.vcom_tplfunc_setup
                0x0081a012       0x7e ../../../../../../../PLAT/prebuild/PLAT/lib/gcc/libusbbl_priv.a(function_vcom_tpl.o)
 .text.vcom_tplfunc_deinit
                0x0081a090       0x76 ../../../../../../../PLAT/prebuild/PLAT/lib/gcc/libusbbl_priv.a(function_vcom_tpl.o)
 .text.vcom_func_diep_clear_send_zlp.constprop.0.isra.0
                0x0081a106        0x6 ../../../../../../../PLAT/prebuild/PLAT/lib/gcc/libusbbl_priv.a(function_vcom_tpl.o)
 .text.vcom_func_diep_need_send_zlp.constprop.0.isra.0
                0x0081a10c        0xa ../../../../../../../PLAT/prebuild/PLAT/lib/gcc/libusbbl_priv.a(function_vcom_tpl.o)
 .text.vcom_func_doep_start_transfer.constprop.0.isra.0
                0x0081a116       0x1c ../../../../../../../PLAT/prebuild/PLAT/lib/gcc/libusbbl_priv.a(function_vcom_tpl.o)
 .text.vcom_func_recv_trigger
                0x0081a132       0x3c ../../../../../../../PLAT/prebuild/PLAT/lib/gcc/libusbbl_priv.a(function_vcom_tpl.o)
 .text.vcom_func_diep_trig_init_zlp.isra.0
                0x0081a16e       0x20 ../../../../../../../PLAT/prebuild/PLAT/lib/gcc/libusbbl_priv.a(function_vcom_tpl.o)
 .text.vcom_diep_check_txorder_end.isra.0
                0x0081a18e       0x14 ../../../../../../../PLAT/prebuild/PLAT/lib/gcc/libusbbl_priv.a(function_vcom_tpl.o)
 .text.vcom_func_diep_check_tx_end.constprop.0
                0x0081a1a2        0x6 ../../../../../../../PLAT/prebuild/PLAT/lib/gcc/libusbbl_priv.a(function_vcom_tpl.o)
 .text.vcom_diep_update_txbuf.isra.0
                0x0081a1a8       0x22 ../../../../../../../PLAT/prebuild/PLAT/lib/gcc/libusbbl_priv.a(function_vcom_tpl.o)
 .text.vcom_diep_txfifo_get_sendinfo.isra.0
                0x0081a1ca       0x38 ../../../../../../../PLAT/prebuild/PLAT/lib/gcc/libusbbl_priv.a(function_vcom_tpl.o)
 .text.vcom_diep_txorder_get_sendinfo.isra.0
                0x0081a202        0xc ../../../../../../../PLAT/prebuild/PLAT/lib/gcc/libusbbl_priv.a(function_vcom_tpl.o)
 .text.vcom_diep_txbuf_get_sendinfo
                0x0081a20e       0x20 ../../../../../../../PLAT/prebuild/PLAT/lib/gcc/libusbbl_priv.a(function_vcom_tpl.o)
 .text.vcom_func_diep_start_transfer.constprop.0
                0x0081a22e       0x62 ../../../../../../../PLAT/prebuild/PLAT/lib/gcc/libusbbl_priv.a(function_vcom_tpl.o)
 .text.vcom_tplfunc_datain
                0x0081a290       0x70 ../../../../../../../PLAT/prebuild/PLAT/lib/gcc/libusbbl_priv.a(function_vcom_tpl.o)
 .text.vcom_func_send_trigger
                0x0081a300       0x4e ../../../../../../../PLAT/prebuild/PLAT/lib/gcc/libusbbl_priv.a(function_vcom_tpl.o)
                0x0081a300                vcom_func_send_trigger
 .text.vcom_diep_txbuf_fifo_fill.isra.0
                0x0081a34e       0x4a ../../../../../../../PLAT/prebuild/PLAT/lib/gcc/libusbbl_priv.a(function_vcom_tpl.o)
 .text.vcom_diep_txbuf_order_fill.isra.0
                0x0081a398       0x38 ../../../../../../../PLAT/prebuild/PLAT/lib/gcc/libusbbl_priv.a(function_vcom_tpl.o)
 .text.vcom_diep_tx_ioreq_extb
                0x0081a3d0       0x40 ../../../../../../../PLAT/prebuild/PLAT/lib/gcc/libusbbl_priv.a(function_vcom_tpl.o)
 .text.vcom_diep_tx_ioreq_prvb
                0x0081a410       0x36 ../../../../../../../PLAT/prebuild/PLAT/lib/gcc/libusbbl_priv.a(function_vcom_tpl.o)
 .text.vcom_diep_tx_ioreq
                0x0081a446       0x3a ../../../../../../../PLAT/prebuild/PLAT/lib/gcc/libusbbl_priv.a(function_vcom_tpl.o)
 .text.usbd_endpoint_maxpacket_size
                0x0081a480        0x4 ../../../../../../../PLAT/prebuild/PLAT/lib/gcc/libusbbl_priv.a(function_vcom_tpl.o)
                0x0081a480                usbd_endpoint_maxpacket_size
 .text.get_vcom_tplfunc_cfginfo
                0x0081a484       0x78 ../../../../../../../PLAT/prebuild/PLAT/lib/gcc/libusbbl_priv.a(function_vcom_tpl.o)
                0x0081a484                get_vcom_tplfunc_cfginfo
 .text.vcom_tplfunc_init
                0x0081a4fc       0x9e ../../../../../../../PLAT/prebuild/PLAT/lib/gcc/libusbbl_priv.a(function_vcom_tpl.o)
 .text.vcom_func_diep_notify_lnkmd_get_epnum
                0x0081a59a       0x22 ../../../../../../../PLAT/prebuild/PLAT/lib/gcc/libusbbl_priv.a(function_vcom_tpl.o)
                0x0081a59a                vcom_func_diep_notify_lnkmd_get_epnum
 .text.vcom_func_string_bind
                0x0081a5bc       0x8a ../../../../../../../PLAT/prebuild/PLAT/lib/gcc/libusbbl_priv.a(function_vcom_tpl.o)
                0x0081a5bc                vcom_func_string_bind
 .text.vcom_tplfunc_bind
                0x0081a646      0x262 ../../../../../../../PLAT/prebuild/PLAT/lib/gcc/libusbbl_priv.a(function_vcom_tpl.o)
                0x0081a646                vcom_tplfunc_bind
 .text.list_init
                0x0081a8a8        0x6 ../../../../../../../PLAT/prebuild/PLAT/lib/gcc/libusbbl_priv.a(function_ecm.o)
 .text.ecm_func_reset
                0x0081a8ae       0x28 ../../../../../../../PLAT/prebuild/PLAT/lib/gcc/libusbbl_priv.a(function_ecm.o)
 .text.ecm_func_ep0_din_stage_comp
                0x0081a8d6        0x4 ../../../../../../../PLAT/prebuild/PLAT/lib/gcc/libusbbl_priv.a(function_ecm.o)
 .text.ecm_func_ep0_dout_stage_comp
                0x0081a8da       0x16 ../../../../../../../PLAT/prebuild/PLAT/lib/gcc/libusbbl_priv.a(function_ecm.o)
 .text.ecm_func_recv_trigger
                0x0081a8f0        0x4 ../../../../../../../PLAT/prebuild/PLAT/lib/gcc/libusbbl_priv.a(function_ecm.o)
 .text.ecm_func_send_trigger
                0x0081a8f4        0x4 ../../../../../../../PLAT/prebuild/PLAT/lib/gcc/libusbbl_priv.a(function_ecm.o)
                0x0081a8f4                ecm_func_send_trigger
 .text.ecm_func_recv_trigavail
                0x0081a8f8        0x4 ../../../../../../../PLAT/prebuild/PLAT/lib/gcc/libusbbl_priv.a(function_ecm.o)
                0x0081a8f8                ecm_func_recv_trigavail
 .text.ecm_func_send_trigavail
                0x0081a8fc        0x4 ../../../../../../../PLAT/prebuild/PLAT/lib/gcc/libusbbl_priv.a(function_ecm.o)
                0x0081a8fc                ecm_func_send_trigavail
 .text.ecm_doep_rx_ioreq
                0x0081a900        0x4 ../../../../../../../PLAT/prebuild/PLAT/lib/gcc/libusbbl_priv.a(function_ecm.o)
 .text.ecm_func_sof
                0x0081a904       0x18 ../../../../../../../PLAT/prebuild/PLAT/lib/gcc/libusbbl_priv.a(function_ecm.o)
 .text.get_ecm_func_desc_size
                0x0081a91c        0x4 ../../../../../../../PLAT/prebuild/PLAT/lib/gcc/libusbbl_priv.a(function_ecm.o)
                0x0081a91c                get_ecm_func_desc_size
 .text.get_ecm_func_desc_othcfg_size
                0x0081a920        0x4 ../../../../../../../PLAT/prebuild/PLAT/lib/gcc/libusbbl_priv.a(function_ecm.o)
                0x0081a920                get_ecm_func_desc_othcfg_size
 .text.get_ecm_func_intf_num
                0x0081a924        0xa ../../../../../../../PLAT/prebuild/PLAT/lib/gcc/libusbbl_priv.a(function_ecm.o)
                0x0081a924                get_ecm_func_intf_num
 .text.get_ecm_func_clstype
                0x0081a92e       0x14 ../../../../../../../PLAT/prebuild/PLAT/lib/gcc/libusbbl_priv.a(function_ecm.o)
                0x0081a92e                get_ecm_func_clstype
 .text.get_ecm_func_cfginfo
                0x0081a942       0x64 ../../../../../../../PLAT/prebuild/PLAT/lib/gcc/libusbbl_priv.a(function_ecm.o)
                0x0081a942                get_ecm_func_cfginfo
 .text.ecm_func_retwkup_restore
                0x0081a9a6        0x4 ../../../../../../../PLAT/prebuild/PLAT/lib/gcc/libusbbl_priv.a(function_ecm.o)
                0x0081a9a6                ecm_func_retwkup_restore
 .text.get_ecm_func_inst_trans
                0x0081a9aa        0xa ../../../../../../../PLAT/prebuild/PLAT/lib/gcc/libusbbl_priv.a(function_ecm.o)
                0x0081a9aa                get_ecm_func_inst_trans
 .text.ecm_func_trans_init
                0x0081a9b4       0x32 ../../../../../../../PLAT/prebuild/PLAT/lib/gcc/libusbbl_priv.a(function_ecm.o)
                0x0081a9b4                ecm_func_trans_init
 .text.ecm_func_txbuf_reset
                0x0081a9e6       0x24 ../../../../../../../PLAT/prebuild/PLAT/lib/gcc/libusbbl_priv.a(function_ecm.o)
                0x0081a9e6                ecm_func_txbuf_reset
 .text.ecm_func_rxbuf_reset
                0x0081aa0a       0x20 ../../../../../../../PLAT/prebuild/PLAT/lib/gcc/libusbbl_priv.a(function_ecm.o)
                0x0081aa0a                ecm_func_rxbuf_reset
 .text.ecm_get_ext_diep_xfercond
                0x0081aa2a       0x34 ../../../../../../../PLAT/prebuild/PLAT/lib/gcc/libusbbl_priv.a(function_ecm.o)
 .text.get_ecm_func_desc_ptr
                0x0081aa5e       0x98 ../../../../../../../PLAT/prebuild/PLAT/lib/gcc/libusbbl_priv.a(function_ecm.o)
                0x0081aa5e                get_ecm_func_desc_ptr
 .text.get_ecm_func_desc_othcfg_ptr
                0x0081aaf6       0x90 ../../../../../../../PLAT/prebuild/PLAT/lib/gcc/libusbbl_priv.a(function_ecm.o)
                0x0081aaf6                get_ecm_func_desc_othcfg_ptr
 .text.ecm_func_unbind
                0x0081ab86       0x5e ../../../../../../../PLAT/prebuild/PLAT/lib/gcc/libusbbl_priv.a(function_ecm.o)
                0x0081ab86                ecm_func_unbind
 .text.ecm_func_record_inep_maxpkt
                0x0081abe4       0x3c ../../../../../../../PLAT/prebuild/PLAT/lib/gcc/libusbbl_priv.a(function_ecm.o)
 .text.ecm_func_dataout
                0x0081ac20       0x20 ../../../../../../../PLAT/prebuild/PLAT/lib/gcc/libusbbl_priv.a(function_ecm.o)
 .text.ecm_func_deinit
                0x0081ac40       0x46 ../../../../../../../PLAT/prebuild/PLAT/lib/gcc/libusbbl_priv.a(function_ecm.o)
 .text.ecm_func_init
                0x0081ac86       0x5a ../../../../../../../PLAT/prebuild/PLAT/lib/gcc/libusbbl_priv.a(function_ecm.o)
 .text.ecm_doep_rx_ioreq.constprop.0
                0x0081ace0        0x4 ../../../../../../../PLAT/prebuild/PLAT/lib/gcc/libusbbl_priv.a(function_ecm.o)
 .text.ecm_diep_tx_ioreq
                0x0081ace4        0x4 ../../../../../../../PLAT/prebuild/PLAT/lib/gcc/libusbbl_priv.a(function_ecm.o)
 .text.ecm_func_notify_start_transfer.isra.0
                0x0081ace8       0x90 ../../../../../../../PLAT/prebuild/PLAT/lib/gcc/libusbbl_priv.a(function_ecm.o)
 .text.ecm_func_try_external_xfer.constprop.0.isra.0
                0x0081ad78        0xc ../../../../../../../PLAT/prebuild/PLAT/lib/gcc/libusbbl_priv.a(function_ecm.o)
 .text.ecm_diep_ext_xfer_req
                0x0081ad84       0x50 ../../../../../../../PLAT/prebuild/PLAT/lib/gcc/libusbbl_priv.a(function_ecm.o)
 .text.ecm_func_set_diep_ntfxfer_stat.isra.0
                0x0081add4       0x2e ../../../../../../../PLAT/prebuild/PLAT/lib/gcc/libusbbl_priv.a(function_ecm.o)
 .text.ecm_func_diep_ntfxfer_finish_update.isra.0
                0x0081ae02        0x6 ../../../../../../../PLAT/prebuild/PLAT/lib/gcc/libusbbl_priv.a(function_ecm.o)
 .text.ecm_func_datain
                0x0081ae08       0x4a ../../../../../../../PLAT/prebuild/PLAT/lib/gcc/libusbbl_priv.a(function_ecm.o)
 .text.ecm_func_hostdet_update
                0x0081ae52       0x14 ../../../../../../../PLAT/prebuild/PLAT/lib/gcc/libusbbl_priv.a(function_ecm.o)
                0x0081ae52                ecm_func_hostdet_update
 .text.ecm_func_setup
                0x0081ae66       0x38 ../../../../../../../PLAT/prebuild/PLAT/lib/gcc/libusbbl_priv.a(function_ecm.o)
 .text.ecm_func_doep_notify_lnkmd_get_epnum
                0x0081ae9e        0xa ../../../../../../../PLAT/prebuild/PLAT/lib/gcc/libusbbl_priv.a(function_ecm.o)
                0x0081ae9e                ecm_func_doep_notify_lnkmd_get_epnum
 .text.ecm_func_string_bind
                0x0081aea8       0x88 ../../../../../../../PLAT/prebuild/PLAT/lib/gcc/libusbbl_priv.a(function_ecm.o)
                0x0081aea8                ecm_func_string_bind
 .text.ecm_func_bind
                0x0081af30      0x10e ../../../../../../../PLAT/prebuild/PLAT/lib/gcc/libusbbl_priv.a(function_ecm.o)
                0x0081af30                ecm_func_bind
 *fill*         0x0081b03e        0x2 
 .text.__assert_func
                0x0081b040       0x3c e:/work/meig/ec618/ec618_sdk_rel_sdk/plat/tools/gcc/bin/../lib/gcc/arm-none-eabi/10.2.1/../../../../arm-none-eabi/lib/thumb/v7-m/nofp\libc_nano.a(lib_a-assert.o)
                0x0081b040                __assert_func
 .text._fclose_r
                0x0081b07c       0xd8 e:/work/meig/ec618/ec618_sdk_rel_sdk/plat/tools/gcc/bin/../lib/gcc/arm-none-eabi/10.2.1/../../../../arm-none-eabi/lib/thumb/v7-m/nofp\libc_nano.a(lib_a-fclose.o)
                0x0081b07c                _fclose_r
 .text.fclose   0x0081b154       0x10 e:/work/meig/ec618/ec618_sdk_rel_sdk/plat/tools/gcc/bin/../lib/gcc/arm-none-eabi/10.2.1/../../../../arm-none-eabi/lib/thumb/v7-m/nofp\libc_nano.a(lib_a-fclose.o)
                0x0081b154                fclose
 .text.__sflush_r
                0x0081b164      0x104 e:/work/meig/ec618/ec618_sdk_rel_sdk/plat/tools/gcc/bin/../lib/gcc/arm-none-eabi/10.2.1/../../../../arm-none-eabi/lib/thumb/v7-m/nofp\libc_nano.a(lib_a-fflush.o)
                0x0081b164                __sflush_r
 .text._fflush_r
                0x0081b268       0x78 e:/work/meig/ec618/ec618_sdk_rel_sdk/plat/tools/gcc/bin/../lib/gcc/arm-none-eabi/10.2.1/../../../../arm-none-eabi/lib/thumb/v7-m/nofp\libc_nano.a(lib_a-fflush.o)
                0x0081b268                _fflush_r
 .text.std      0x0081b2e0       0x48 e:/work/meig/ec618/ec618_sdk_rel_sdk/plat/tools/gcc/bin/../lib/gcc/arm-none-eabi/10.2.1/../../../../arm-none-eabi/lib/thumb/v7-m/nofp\libc_nano.a(lib_a-findfp.o)
 .text._cleanup_r
                0x0081b328        0xc e:/work/meig/ec618/ec618_sdk_rel_sdk/plat/tools/gcc/bin/../lib/gcc/arm-none-eabi/10.2.1/../../../../arm-none-eabi/lib/thumb/v7-m/nofp\libc_nano.a(lib_a-findfp.o)
                0x0081b328                _cleanup_r
 .text.__sfmoreglue
                0x0081b334       0x2c e:/work/meig/ec618/ec618_sdk_rel_sdk/plat/tools/gcc/bin/../lib/gcc/arm-none-eabi/10.2.1/../../../../arm-none-eabi/lib/thumb/v7-m/nofp\libc_nano.a(lib_a-findfp.o)
                0x0081b334                __sfmoreglue
 .text.__sfp_lock_acquire
                0x0081b360        0xc e:/work/meig/ec618/ec618_sdk_rel_sdk/plat/tools/gcc/bin/../lib/gcc/arm-none-eabi/10.2.1/../../../../arm-none-eabi/lib/thumb/v7-m/nofp\libc_nano.a(lib_a-findfp.o)
                0x0081b360                __sfp_lock_acquire
 .text.__sfp_lock_release
                0x0081b36c        0xc e:/work/meig/ec618/ec618_sdk_rel_sdk/plat/tools/gcc/bin/../lib/gcc/arm-none-eabi/10.2.1/../../../../arm-none-eabi/lib/thumb/v7-m/nofp\libc_nano.a(lib_a-findfp.o)
                0x0081b36c                __sfp_lock_release
 .text.__sinit_lock_acquire
                0x0081b378        0xc e:/work/meig/ec618/ec618_sdk_rel_sdk/plat/tools/gcc/bin/../lib/gcc/arm-none-eabi/10.2.1/../../../../arm-none-eabi/lib/thumb/v7-m/nofp\libc_nano.a(lib_a-findfp.o)
                0x0081b378                __sinit_lock_acquire
 .text.__sinit_lock_release
                0x0081b384        0xc e:/work/meig/ec618/ec618_sdk_rel_sdk/plat/tools/gcc/bin/../lib/gcc/arm-none-eabi/10.2.1/../../../../arm-none-eabi/lib/thumb/v7-m/nofp\libc_nano.a(lib_a-findfp.o)
                0x0081b384                __sinit_lock_release
 .text.__sinit  0x0081b390       0x70 e:/work/meig/ec618/ec618_sdk_rel_sdk/plat/tools/gcc/bin/../lib/gcc/arm-none-eabi/10.2.1/../../../../arm-none-eabi/lib/thumb/v7-m/nofp\libc_nano.a(lib_a-findfp.o)
                0x0081b390                __sinit
 .text.__sfp    0x0081b400       0x8c e:/work/meig/ec618/ec618_sdk_rel_sdk/plat/tools/gcc/bin/../lib/gcc/arm-none-eabi/10.2.1/../../../../arm-none-eabi/lib/thumb/v7-m/nofp\libc_nano.a(lib_a-findfp.o)
                0x0081b400                __sfp
 .text.fprintf  0x0081b48c       0x24 e:/work/meig/ec618/ec618_sdk_rel_sdk/plat/tools/gcc/bin/../lib/gcc/arm-none-eabi/10.2.1/../../../../arm-none-eabi/lib/thumb/v7-m/nofp\libc_nano.a(lib_a-fprintf.o)
                0x0081b48c                fiprintf
                0x0081b48c                fprintf
 .text._fputc_r
                0x0081b4b0       0x70 e:/work/meig/ec618/ec618_sdk_rel_sdk/plat/tools/gcc/bin/../lib/gcc/arm-none-eabi/10.2.1/../../../../arm-none-eabi/lib/thumb/v7-m/nofp\libc_nano.a(lib_a-fputc.o)
                0x0081b4b0                _fputc_r
 .text.fputc    0x0081b520       0x10 e:/work/meig/ec618/ec618_sdk_rel_sdk/plat/tools/gcc/bin/../lib/gcc/arm-none-eabi/10.2.1/../../../../arm-none-eabi/lib/thumb/v7-m/nofp\libc_nano.a(lib_a-fputc.o)
                0x0081b520                fputc
 .text._fputs_r
                0x0081b530       0xcc e:/work/meig/ec618/ec618_sdk_rel_sdk/plat/tools/gcc/bin/../lib/gcc/arm-none-eabi/10.2.1/../../../../arm-none-eabi/lib/thumb/v7-m/nofp\libc_nano.a(lib_a-fputs.o)
                0x0081b530                _fputs_r
 .text.fputs    0x0081b5fc       0x10 e:/work/meig/ec618/ec618_sdk_rel_sdk/plat/tools/gcc/bin/../lib/gcc/arm-none-eabi/10.2.1/../../../../arm-none-eabi/lib/thumb/v7-m/nofp\libc_nano.a(lib_a-fputs.o)
                0x0081b5fc                fputs
 .text._fwalk_reent
                0x0081b60c       0x3e e:/work/meig/ec618/ec618_sdk_rel_sdk/plat/tools/gcc/bin/../lib/gcc/arm-none-eabi/10.2.1/../../../../arm-none-eabi/lib/thumb/v7-m/nofp\libc_nano.a(lib_a-fwalk.o)
                0x0081b60c                _fwalk_reent
 .text.__retarget_lock_init_recursive
                0x0081b64a        0x2 e:/work/meig/ec618/ec618_sdk_rel_sdk/plat/tools/gcc/bin/../lib/gcc/arm-none-eabi/10.2.1/../../../../arm-none-eabi/lib/thumb/v7-m/nofp\libc_nano.a(lib_a-lock.o)
                0x0081b64a                __retarget_lock_init_recursive
 .text.__retarget_lock_close_recursive
                0x0081b64c        0x2 e:/work/meig/ec618/ec618_sdk_rel_sdk/plat/tools/gcc/bin/../lib/gcc/arm-none-eabi/10.2.1/../../../../arm-none-eabi/lib/thumb/v7-m/nofp\libc_nano.a(lib_a-lock.o)
                0x0081b64c                __retarget_lock_close_recursive
 .text.__retarget_lock_acquire_recursive
                0x0081b64e        0x2 e:/work/meig/ec618/ec618_sdk_rel_sdk/plat/tools/gcc/bin/../lib/gcc/arm-none-eabi/10.2.1/../../../../arm-none-eabi/lib/thumb/v7-m/nofp\libc_nano.a(lib_a-lock.o)
                0x0081b64e                __retarget_lock_acquire_recursive
 .text.__retarget_lock_release_recursive
                0x0081b650        0x2 e:/work/meig/ec618/ec618_sdk_rel_sdk/plat/tools/gcc/bin/../lib/gcc/arm-none-eabi/10.2.1/../../../../arm-none-eabi/lib/thumb/v7-m/nofp\libc_nano.a(lib_a-lock.o)
                0x0081b650                __retarget_lock_release_recursive
 *fill*         0x0081b652        0x2 
 .text.malloc   0x0081b654       0x10 e:/work/meig/ec618/ec618_sdk_rel_sdk/plat/tools/gcc/bin/../lib/gcc/arm-none-eabi/10.2.1/../../../../arm-none-eabi/lib/thumb/v7-m/nofp\libc_nano.a(lib_a-malloc.o)
                0x0081b654                malloc
 .text.free     0x0081b664       0x10 e:/work/meig/ec618/ec618_sdk_rel_sdk/plat/tools/gcc/bin/../lib/gcc/arm-none-eabi/10.2.1/../../../../arm-none-eabi/lib/thumb/v7-m/nofp\libc_nano.a(lib_a-malloc.o)
                0x0081b664                free
 .text.memcmp   0x0081b674       0x20 e:/work/meig/ec618/ec618_sdk_rel_sdk/plat/tools/gcc/bin/../lib/gcc/arm-none-eabi/10.2.1/../../../../arm-none-eabi/lib/thumb/v7-m/nofp\libc_nano.a(lib_a-memcmp.o)
                0x0081b674                memcmp
 .text.memmove  0x0081b694       0x34 e:/work/meig/ec618/ec618_sdk_rel_sdk/plat/tools/gcc/bin/../lib/gcc/arm-none-eabi/10.2.1/../../../../arm-none-eabi/lib/thumb/v7-m/nofp\libc_nano.a(lib_a-memmove.o)
                0x0081b694                memmove
 .text._free_r  0x0081b6c8       0x90 e:/work/meig/ec618/ec618_sdk_rel_sdk/plat/tools/gcc/bin/../lib/gcc/arm-none-eabi/10.2.1/../../../../arm-none-eabi/lib/thumb/v7-m/nofp\libc_nano.a(lib_a-nano-freer.o)
                0x0081b6c8                _free_r
 .text._malloc_r
                0x0081b758       0xb4 e:/work/meig/ec618/ec618_sdk_rel_sdk/plat/tools/gcc/bin/../lib/gcc/arm-none-eabi/10.2.1/../../../../arm-none-eabi/lib/thumb/v7-m/nofp\libc_nano.a(lib_a-nano-mallocr.o)
                0x0081b758                _malloc_r
 .text.__sfputc_r
                0x0081b80c       0x2a e:/work/meig/ec618/ec618_sdk_rel_sdk/plat/tools/gcc/bin/../lib/gcc/arm-none-eabi/10.2.1/../../../../arm-none-eabi/lib/thumb/v7-m/nofp\libc_nano.a(lib_a-nano-vfprintf.o)
 .text.__sfputs_r
                0x0081b836       0x24 e:/work/meig/ec618/ec618_sdk_rel_sdk/plat/tools/gcc/bin/../lib/gcc/arm-none-eabi/10.2.1/../../../../arm-none-eabi/lib/thumb/v7-m/nofp\libc_nano.a(lib_a-nano-vfprintf.o)
                0x0081b836                __sfputs_r
 *fill*         0x0081b85a        0x2 
 .text._vfprintf_r
                0x0081b85c      0x260 e:/work/meig/ec618/ec618_sdk_rel_sdk/plat/tools/gcc/bin/../lib/gcc/arm-none-eabi/10.2.1/../../../../arm-none-eabi/lib/thumb/v7-m/nofp\libc_nano.a(lib_a-nano-vfprintf.o)
                0x0081b85c                _vfprintf_r
                0x0081b85c                _vfiprintf_r
 .text._printf_common
                0x0081babc       0xde e:/work/meig/ec618/ec618_sdk_rel_sdk/plat/tools/gcc/bin/../lib/gcc/arm-none-eabi/10.2.1/../../../../arm-none-eabi/lib/thumb/v7-m/nofp\libc_nano.a(lib_a-nano-vfprintf_i.o)
                0x0081babc                _printf_common
 *fill*         0x0081bb9a        0x2 
 .text._printf_i
                0x0081bb9c      0x24c e:/work/meig/ec618/ec618_sdk_rel_sdk/plat/tools/gcc/bin/../lib/gcc/arm-none-eabi/10.2.1/../../../../arm-none-eabi/lib/thumb/v7-m/nofp\libc_nano.a(lib_a-nano-vfprintf_i.o)
                0x0081bb9c                _printf_i
 .text.printf   0x0081bde8       0x30 e:/work/meig/ec618/ec618_sdk_rel_sdk/plat/tools/gcc/bin/../lib/gcc/arm-none-eabi/10.2.1/../../../../arm-none-eabi/lib/thumb/v7-m/nofp\libc_nano.a(lib_a-printf.o)
                0x0081bde8                iprintf
                0x0081bde8                printf
 .text._putc_r  0x0081be18       0x90 e:/work/meig/ec618/ec618_sdk_rel_sdk/plat/tools/gcc/bin/../lib/gcc/arm-none-eabi/10.2.1/../../../../arm-none-eabi/lib/thumb/v7-m/nofp\libc_nano.a(lib_a-putc.o)
                0x0081be18                _putc_r
 .text._puts_r  0x0081bea8       0xdc e:/work/meig/ec618/ec618_sdk_rel_sdk/plat/tools/gcc/bin/../lib/gcc/arm-none-eabi/10.2.1/../../../../arm-none-eabi/lib/thumb/v7-m/nofp\libc_nano.a(lib_a-puts.o)
                0x0081bea8                _puts_r
 .text.puts     0x0081bf84       0x10 e:/work/meig/ec618/ec618_sdk_rel_sdk/plat/tools/gcc/bin/../lib/gcc/arm-none-eabi/10.2.1/../../../../arm-none-eabi/lib/thumb/v7-m/nofp\libc_nano.a(lib_a-puts.o)
                0x0081bf84                puts
 .text.rand     0x0081bf94       0x7c e:/work/meig/ec618/ec618_sdk_rel_sdk/plat/tools/gcc/bin/../lib/gcc/arm-none-eabi/10.2.1/../../../../arm-none-eabi/lib/thumb/v7-m/nofp\libc_nano.a(lib_a-rand.o)
                0x0081bf94                rand
 .text._sbrk_r  0x0081c010       0x20 e:/work/meig/ec618/ec618_sdk_rel_sdk/plat/tools/gcc/bin/../lib/gcc/arm-none-eabi/10.2.1/../../../../arm-none-eabi/lib/thumb/v7-m/nofp\libc_nano.a(lib_a-sbrkr.o)
                0x0081c010                _sbrk_r
 .text.setvbuf  0x0081c030      0x18c e:/work/meig/ec618/ec618_sdk_rel_sdk/plat/tools/gcc/bin/../lib/gcc/arm-none-eabi/10.2.1/../../../../arm-none-eabi/lib/thumb/v7-m/nofp\libc_nano.a(lib_a-setvbuf.o)
                0x0081c030                setvbuf
 .text.sprintf  0x0081c1bc       0x40 e:/work/meig/ec618/ec618_sdk_rel_sdk/plat/tools/gcc/bin/../lib/gcc/arm-none-eabi/10.2.1/../../../../arm-none-eabi/lib/thumb/v7-m/nofp\libc_nano.a(lib_a-sprintf.o)
                0x0081c1bc                siprintf
                0x0081c1bc                sprintf
 .text.__sread  0x0081c1fc       0x22 e:/work/meig/ec618/ec618_sdk_rel_sdk/plat/tools/gcc/bin/../lib/gcc/arm-none-eabi/10.2.1/../../../../arm-none-eabi/lib/thumb/v7-m/nofp\libc_nano.a(lib_a-stdio.o)
                0x0081c1fc                __sread
 .text.__swrite
                0x0081c21e       0x38 e:/work/meig/ec618/ec618_sdk_rel_sdk/plat/tools/gcc/bin/../lib/gcc/arm-none-eabi/10.2.1/../../../../arm-none-eabi/lib/thumb/v7-m/nofp\libc_nano.a(lib_a-stdio.o)
                0x0081c21e                __swrite
 .text.__sseek  0x0081c256       0x24 e:/work/meig/ec618/ec618_sdk_rel_sdk/plat/tools/gcc/bin/../lib/gcc/arm-none-eabi/10.2.1/../../../../arm-none-eabi/lib/thumb/v7-m/nofp\libc_nano.a(lib_a-stdio.o)
                0x0081c256                __sseek
 .text.__sclose
                0x0081c27a        0x8 e:/work/meig/ec618/ec618_sdk_rel_sdk/plat/tools/gcc/bin/../lib/gcc/arm-none-eabi/10.2.1/../../../../arm-none-eabi/lib/thumb/v7-m/nofp\libc_nano.a(lib_a-stdio.o)
                0x0081c27a                __sclose
 .text.strcat   0x0081c282       0x1e e:/work/meig/ec618/ec618_sdk_rel_sdk/plat/tools/gcc/bin/../lib/gcc/arm-none-eabi/10.2.1/../../../../arm-none-eabi/lib/thumb/v7-m/nofp\libc_nano.a(lib_a-strcat.o)
                0x0081c282                strcat
 .text          0x0081c2a0       0x14 e:/work/meig/ec618/ec618_sdk_rel_sdk/plat/tools/gcc/bin/../lib/gcc/arm-none-eabi/10.2.1/../../../../arm-none-eabi/lib/thumb/v7-m/nofp\libc_nano.a(lib_a-strcmp.o)
                0x0081c2a0                strcmp
 .text.strcpy   0x0081c2b4       0x10 e:/work/meig/ec618/ec618_sdk_rel_sdk/plat/tools/gcc/bin/../lib/gcc/arm-none-eabi/10.2.1/../../../../arm-none-eabi/lib/thumb/v7-m/nofp\libc_nano.a(lib_a-strcpy.o)
                0x0081c2b4                strcpy
 .text          0x0081c2c4       0x10 e:/work/meig/ec618/ec618_sdk_rel_sdk/plat/tools/gcc/bin/../lib/gcc/arm-none-eabi/10.2.1/../../../../arm-none-eabi/lib/thumb/v7-m/nofp\libc_nano.a(lib_a-strlen.o)
                0x0081c2c4                strlen
 .text.strncmp  0x0081c2d4       0x28 e:/work/meig/ec618/ec618_sdk_rel_sdk/plat/tools/gcc/bin/../lib/gcc/arm-none-eabi/10.2.1/../../../../arm-none-eabi/lib/thumb/v7-m/nofp\libc_nano.a(lib_a-strncmp.o)
                0x0081c2d4                strncmp
 .text.__swbuf_r
                0x0081c2fc       0xa4 e:/work/meig/ec618/ec618_sdk_rel_sdk/plat/tools/gcc/bin/../lib/gcc/arm-none-eabi/10.2.1/../../../../arm-none-eabi/lib/thumb/v7-m/nofp\libc_nano.a(lib_a-wbuf.o)
                0x0081c2fc                __swbuf_r
 .text._write_r
                0x0081c3a0       0x24 e:/work/meig/ec618/ec618_sdk_rel_sdk/plat/tools/gcc/bin/../lib/gcc/arm-none-eabi/10.2.1/../../../../arm-none-eabi/lib/thumb/v7-m/nofp\libc_nano.a(lib_a-writer.o)
                0x0081c3a0                _write_r
 .text.__swsetup_r
                0x0081c3c4       0xdc e:/work/meig/ec618/ec618_sdk_rel_sdk/plat/tools/gcc/bin/../lib/gcc/arm-none-eabi/10.2.1/../../../../arm-none-eabi/lib/thumb/v7-m/nofp\libc_nano.a(lib_a-wsetup.o)
                0x0081c3c4                __swsetup_r
 .text.abort    0x0081c4a0        0xe e:/work/meig/ec618/ec618_sdk_rel_sdk/plat/tools/gcc/bin/../lib/gcc/arm-none-eabi/10.2.1/../../../../arm-none-eabi/lib/thumb/v7-m/nofp\libc_nano.a(lib_a-abort.o)
                0x0081c4a0                abort
 *fill*         0x0081c4ae        0x2 
 .text._close_r
                0x0081c4b0       0x20 e:/work/meig/ec618/ec618_sdk_rel_sdk/plat/tools/gcc/bin/../lib/gcc/arm-none-eabi/10.2.1/../../../../arm-none-eabi/lib/thumb/v7-m/nofp\libc_nano.a(lib_a-closer.o)
                0x0081c4b0                _close_r
 .text._lseek_r
                0x0081c4d0       0x24 e:/work/meig/ec618/ec618_sdk_rel_sdk/plat/tools/gcc/bin/../lib/gcc/arm-none-eabi/10.2.1/../../../../arm-none-eabi/lib/thumb/v7-m/nofp\libc_nano.a(lib_a-lseekr.o)
                0x0081c4d0                _lseek_r
 .text.__swhatbuf_r
                0x0081c4f4       0x4a e:/work/meig/ec618/ec618_sdk_rel_sdk/plat/tools/gcc/bin/../lib/gcc/arm-none-eabi/10.2.1/../../../../arm-none-eabi/lib/thumb/v7-m/nofp\libc_nano.a(lib_a-makebuf.o)
                0x0081c4f4                __swhatbuf_r
 *fill*         0x0081c53e        0x2 
 .text.__smakebuf_r
                0x0081c540       0x80 e:/work/meig/ec618/ec618_sdk_rel_sdk/plat/tools/gcc/bin/../lib/gcc/arm-none-eabi/10.2.1/../../../../arm-none-eabi/lib/thumb/v7-m/nofp\libc_nano.a(lib_a-makebuf.o)
                0x0081c540                __smakebuf_r
 .text.memchr   0x0081c5c0       0x1c e:/work/meig/ec618/ec618_sdk_rel_sdk/plat/tools/gcc/bin/../lib/gcc/arm-none-eabi/10.2.1/../../../../arm-none-eabi/lib/thumb/v7-m/nofp\libc_nano.a(lib_a-memchr-stub.o)
                0x0081c5c0                memchr
 .text.__malloc_lock
                0x0081c5dc        0xc e:/work/meig/ec618/ec618_sdk_rel_sdk/plat/tools/gcc/bin/../lib/gcc/arm-none-eabi/10.2.1/../../../../arm-none-eabi/lib/thumb/v7-m/nofp\libc_nano.a(lib_a-mlock.o)
                0x0081c5dc                __malloc_lock
 .text.__malloc_unlock
                0x0081c5e8        0xc e:/work/meig/ec618/ec618_sdk_rel_sdk/plat/tools/gcc/bin/../lib/gcc/arm-none-eabi/10.2.1/../../../../arm-none-eabi/lib/thumb/v7-m/nofp\libc_nano.a(lib_a-mlock.o)
                0x0081c5e8                __malloc_unlock
 .text._realloc_r
                0x0081c5f4       0x4c e:/work/meig/ec618/ec618_sdk_rel_sdk/plat/tools/gcc/bin/../lib/gcc/arm-none-eabi/10.2.1/../../../../arm-none-eabi/lib/thumb/v7-m/nofp\libc_nano.a(lib_a-nano-reallocr.o)
                0x0081c5f4                _realloc_r
 .text.__ssputs_r
                0x0081c640       0xb6 e:/work/meig/ec618/ec618_sdk_rel_sdk/plat/tools/gcc/bin/../lib/gcc/arm-none-eabi/10.2.1/../../../../arm-none-eabi/lib/thumb/v7-m/nofp\libc_nano.a(lib_a-nano-svfprintf.o)
                0x0081c640                __ssputs_r
 *fill*         0x0081c6f6        0x2 
 .text._svfprintf_r
                0x0081c6f8      0x200 e:/work/meig/ec618/ec618_sdk_rel_sdk/plat/tools/gcc/bin/../lib/gcc/arm-none-eabi/10.2.1/../../../../arm-none-eabi/lib/thumb/v7-m/nofp\libc_nano.a(lib_a-nano-svfprintf.o)
                0x0081c6f8                _svfiprintf_r
                0x0081c6f8                _svfprintf_r
 .text._read_r  0x0081c8f8       0x24 e:/work/meig/ec618/ec618_sdk_rel_sdk/plat/tools/gcc/bin/../lib/gcc/arm-none-eabi/10.2.1/../../../../arm-none-eabi/lib/thumb/v7-m/nofp\libc_nano.a(lib_a-readr.o)
                0x0081c8f8                _read_r
 .text._raise_r
                0x0081c91c       0x50 e:/work/meig/ec618/ec618_sdk_rel_sdk/plat/tools/gcc/bin/../lib/gcc/arm-none-eabi/10.2.1/../../../../arm-none-eabi/lib/thumb/v7-m/nofp\libc_nano.a(lib_a-signal.o)
                0x0081c91c                _raise_r
 .text.raise    0x0081c96c       0x10 e:/work/meig/ec618/ec618_sdk_rel_sdk/plat/tools/gcc/bin/../lib/gcc/arm-none-eabi/10.2.1/../../../../arm-none-eabi/lib/thumb/v7-m/nofp\libc_nano.a(lib_a-signal.o)
                0x0081c96c                raise
 .text._kill_r  0x0081c97c       0x24 e:/work/meig/ec618/ec618_sdk_rel_sdk/plat/tools/gcc/bin/../lib/gcc/arm-none-eabi/10.2.1/../../../../arm-none-eabi/lib/thumb/v7-m/nofp\libc_nano.a(lib_a-signalr.o)
                0x0081c97c                _kill_r
 .text._getpid_r
                0x0081c9a0        0x4 e:/work/meig/ec618/ec618_sdk_rel_sdk/plat/tools/gcc/bin/../lib/gcc/arm-none-eabi/10.2.1/../../../../arm-none-eabi/lib/thumb/v7-m/nofp\libc_nano.a(lib_a-signalr.o)
                0x0081c9a0                _getpid_r
 .text._fstat_r
                0x0081c9a4       0x24 e:/work/meig/ec618/ec618_sdk_rel_sdk/plat/tools/gcc/bin/../lib/gcc/arm-none-eabi/10.2.1/../../../../arm-none-eabi/lib/thumb/v7-m/nofp\libc_nano.a(lib_a-fstatr.o)
                0x0081c9a4                _fstat_r
 .text._isatty_r
                0x0081c9c8       0x20 e:/work/meig/ec618/ec618_sdk_rel_sdk/plat/tools/gcc/bin/../lib/gcc/arm-none-eabi/10.2.1/../../../../arm-none-eabi/lib/thumb/v7-m/nofp\libc_nano.a(lib_a-isattyr.o)
                0x0081c9c8                _isatty_r
 .text._malloc_usable_size_r
                0x0081c9e8       0x10 e:/work/meig/ec618/ec618_sdk_rel_sdk/plat/tools/gcc/bin/../lib/gcc/arm-none-eabi/10.2.1/../../../../arm-none-eabi/lib/thumb/v7-m/nofp\libc_nano.a(lib_a-nano-msizer.o)
                0x0081c9e8                _malloc_usable_size_r
START GROUP
LOAD e:/work/meig/ec618/ec618_sdk_rel_sdk/plat/tools/gcc/bin/../lib/gcc/arm-none-eabi/10.2.1/thumb/v7-m/nofp\libgcc.a
LOAD e:/work/meig/ec618/ec618_sdk_rel_sdk/plat/tools/gcc/bin/../lib/gcc/arm-none-eabi/10.2.1/../../../../arm-none-eabi/lib/thumb/v7-m/nofp\libc.a
LOAD e:/work/meig/ec618/ec618_sdk_rel_sdk/plat/tools/gcc/bin/../lib/gcc/arm-none-eabi/10.2.1/../../../../arm-none-eabi/lib/thumb/v7-m/nofp\libm.a
END GROUP
OUTPUT(../../../../../../../PLAT/gccout/ec618_0h00/ap/bootloader/ap_bootloader.elf elf32-littlearm)
LOAD linker stubs

.glue_7         0x0081c9f8        0x0
 .glue_7        0x0081c9f8        0x0 linker stubs

.glue_7t        0x0081c9f8        0x0
 .glue_7t       0x0081c9f8        0x0 linker stubs

.vfp11_veneer   0x0081c9f8        0x0
 .vfp11_veneer  0x0081c9f8        0x0 linker stubs

.v4_bx          0x0081c9f8        0x0
 .v4_bx         0x0081c9f8        0x0 linker stubs

.init           0x0081c9f8        0x4
 .init          0x0081c9f8        0x4 e:/work/meig/ec618/ec618_sdk_rel_sdk/plat/tools/gcc/bin/../lib/gcc/arm-none-eabi/10.2.1/thumb/v7-m/nofp/crti.o
                0x0081c9f8                _init

.fini           0x0081c9fc        0x4
 .fini          0x0081c9fc        0x4 e:/work/meig/ec618/ec618_sdk_rel_sdk/plat/tools/gcc/bin/../lib/gcc/arm-none-eabi/10.2.1/thumb/v7-m/nofp/crti.o
                0x0081c9fc                _fini

.iplt           0x0081ca00        0x0
 .iplt          0x0081ca00        0x0 e:/work/meig/ec618/ec618_sdk_rel_sdk/plat/tools/gcc/bin/../lib/gcc/arm-none-eabi/10.2.1/../../../../arm-none-eabi/lib/thumb/v7-m/nofp\libc_nano.a(lib_a-impure.o)

.platFMRamcode  0x0081ca00       0xde
 .platFMRamcode
                0x0081ca00        0xc ../../../../../../../PLAT/prebuild/PLAT/lib/gcc/libusbbl_priv.a(usbd_funclib.o)
                0x0081ca00                usbd_early_init_flag
 .platFMRamcode
                0x0081ca0c       0x4c ../../../../../../../PLAT/prebuild/PLAT/lib/gcc/libusbbl_priv.a(device_rndis.o)
                0x0081ca0c                dev_eth_rndis_isconnect
                0x0081ca20                dev_eth_rndis_up_lnkmd_xfercfg
 .platFMRamcode
                0x0081ca58       0x4c ../../../../../../../PLAT/prebuild/PLAT/lib/gcc/libusbbl_priv.a(device_ecm.o)
                0x0081ca58                dev_eth_ecm_isconnect
                0x0081ca6c                dev_eth_ecm_up_lnkmd_xfercfg
 .platFMRamcode
                0x0081caa4       0x14 ../../../../../../../PLAT/prebuild/PLAT/lib/gcc/libusbbl_priv.a(function_ecm.o)
                0x0081caa4                ecm_up_lnkmd_xfer_cfg
 .platFMRamcode
                0x0081cab8       0x14 ../../../../../../../PLAT/prebuild/PLAT/lib/gcc/libusbbl_priv.a(function_rndis.o)
                0x0081cab8                rndis_up_lnkmd_xfer_cfg
 .platFMRamcode
                0x0081cacc       0x12 ../../../../../../../PLAT/prebuild/PLAT/lib/gcc/libusbbl_priv.a(usbc_bsp.o)
                0x0081cacc                UStackSaveAndSetIRQMask
                0x0081cad8                UStackRestoreIRQMask

.igot.plt       0x0081cae0        0x0
 .igot.plt      0x0081cae0        0x0 e:/work/meig/ec618/ec618_sdk_rel_sdk/plat/tools/gcc/bin/../lib/gcc/arm-none-eabi/10.2.1/../../../../arm-none-eabi/lib/thumb/v7-m/nofp\libc_nano.a(lib_a-impure.o)

.USB_NOINIT_DATA_BUF
                0x0000afd0      0x544 load address 0x0081cade
 .USB_NOINIT_DATA_BUF
                0x0000afd0      0x544 ../../../../../../../PLAT/prebuild/PLAT/lib/gcc/libusbbl_priv.a(usbc_ctrl.o)
                0x0000afd0                t_usbc_core_top

.rel.dyn        0x0081d024        0x0
 .rel.iplt      0x0081d024        0x0 e:/work/meig/ec618/ec618_sdk_rel_sdk/plat/tools/gcc/bin/../lib/gcc/arm-none-eabi/10.2.1/../../../../arm-none-eabi/lib/thumb/v7-m/nofp\libc_nano.a(lib_a-impure.o)

.ARM.attributes
                0x00000000       0x29
 .ARM.attributes
                0x00000000       0x1d e:/work/meig/ec618/ec618_sdk_rel_sdk/plat/tools/gcc/bin/../lib/gcc/arm-none-eabi/10.2.1/thumb/v7-m/nofp/crti.o
 .ARM.attributes
                0x0000001d       0x2d e:/work/meig/ec618/ec618_sdk_rel_sdk/plat/tools/gcc/bin/../lib/gcc/arm-none-eabi/10.2.1/../../../../arm-none-eabi/lib/thumb/v7-m/nofp\libc_nano.a(lib_a-impure.o)
 .ARM.attributes
                0x0000004a       0x2d e:/work/meig/ec618/ec618_sdk_rel_sdk/plat/tools/gcc/bin/../lib/gcc/arm-none-eabi/10.2.1/../../../../arm-none-eabi/lib/thumb/v7-m/nofp\libc_nano.a(lib_a-memset.o)
 .ARM.attributes
                0x00000077       0x2d ../../../../../../../PLAT/gccout/ec618_0h00/ap/bootloader/PLAT/project/ec618_0h00/ap/apps/bootloader/code/main/ec_main.o
 .ARM.attributes
                0x000000a4       0x2d ../../../../../../../PLAT/gccout/ec618_0h00/ap/bootloader/PLAT/project/ec618_0h00/ap/apps/bootloader/code/main/stub_os.o
 .ARM.attributes
                0x000000d1       0x2d ../../../../../../../PLAT/gccout/ec618_0h00/ap/bootloader/PLAT/middleware/developed/fota/custom/src/fota_entry.o
 .ARM.attributes
                0x000000fe       0x2d ../../../../../../../PLAT/gccout/ec618_0h00/ap/bootloader/PLAT/middleware/developed/fota/custom/src/fota_utils.o
 .ARM.attributes
                0x0000012b       0x2d ../../../../../../../PLAT/gccout/ec618_0h00/ap/bootloader/PLAT/middleware/developed/fota/custom/src/fota_nvm.o
 .ARM.attributes
                0x00000158       0x2d ../../../../../../../PLAT/gccout/ec618_0h00/ap/bootloader/PLAT/middleware/developed/fota/custom/src/fota_mem.o
 .ARM.attributes
                0x00000185       0x2d ../../../../../../../PLAT/gccout/ec618_0h00/ap/bootloader/PLAT/middleware/developed/fota/custom/src/fota_chksum.o
 .ARM.attributes
                0x000001b2       0x2d ../../../../../../../PLAT/gccout/ec618_0h00/ap/bootloader/PLAT/middleware/developed/fota/custom/src/fota_custom.o
 .ARM.attributes
                0x000001df       0x2d ../../../../../../../PLAT/gccout/ec618_0h00/ap/bootloader/lib/libstartup.a(prec_init.o)
 .ARM.attributes
                0x0000020c       0x2d ../../../../../../../PLAT/gccout/ec618_0h00/ap/bootloader/lib/libstartup.a(syscalls.o)
 .ARM.attributes
                0x00000239       0x2d ../../../../../../../PLAT/gccout/ec618_0h00/ap/bootloader/lib/libstartup.a(system_ec618.o)
 .ARM.attributes
                0x00000266       0x21 ../../../../../../../PLAT/gccout/ec618_0h00/ap/bootloader/lib/libstartup.a(startup_ec618_gcc.o)
 .ARM.attributes
                0x00000287       0x2d ../../../../../../../PLAT/gccout/ec618_0h00/ap/bootloader/lib/libdriver.a(plat_config.o)
 .ARM.attributes
                0x000002b4       0x2d ../../../../../../../PLAT/gccout/ec618_0h00/ap/bootloader/lib/libdriver.a(hal_misc.o)
 .ARM.attributes
                0x000002e1       0x2d ../../../../../../../PLAT/gccout/ec618_0h00/ap/bootloader/lib/libdriver.a(bsp_usart.o)
 .ARM.attributes
                0x0000030e       0x2d ../../../../../../../PLAT/gccout/ec618_0h00/ap/bootloader/lib/libdriver.a(pad.o)
 .ARM.attributes
                0x0000033b       0x2d ../../../../../../../PLAT/gccout/ec618_0h00/ap/bootloader/lib/libdriver.a(wdt.o)
 .ARM.attributes
                0x00000368       0x2d ../../../../../../../PLAT/gccout/ec618_0h00/ap/bootloader/lib/libdriver.a(clock.o)
 .ARM.attributes
                0x00000395       0x2d ../../../../../../../PLAT/gccout/ec618_0h00/ap/bootloader/lib/libdriver.a(usbd_proc_cb_custom.o)
 .ARM.attributes
                0x000003c2       0x2d ../../../../../../../PLAT/gccout/ec618_0h00/ap/bootloader/lib/libdriver.a(usbd_multi_usrcfg_custom.o)
 .ARM.attributes
                0x000003ef       0x2d ../../../../../../../PLAT/gccout/ec618_0h00/ap/bootloader/lib/libdriver.a(usb_bl_api.o)
 .ARM.attributes
                0x0000041c       0x2d ../../../../../../../PLAT/gccout/ec618_0h00/ap/bootloader/lib/libdriver.a(rndis_protocol.o)
 .ARM.attributes
                0x00000449       0x2d ../../../../../../../PLAT/gccout/ec618_0h00/ap/bootloader/lib/libdriver.a(function_vcom_inherent.o)
 .ARM.attributes
                0x00000476       0x1b ../../../../../../../PLAT/gccout/ec618_0h00/ap/bootloader/lib/libdriver.a(memcpy-armv7m.o)
 .ARM.attributes
                0x00000491       0x2d ../../../../../../../PLAT/prebuild/PLAT/lib/gcc/libbootloader.a(image.o)
 .ARM.attributes
                0x000004be       0x2d ../../../../../../../PLAT/prebuild/PLAT/lib/gcc/libbootloader.a(sha256.o)
 .ARM.attributes
                0x000004eb       0x2d ../../../../../../../PLAT/prebuild/PLAT/lib/gcc/libbootloader.a(bl_bsp.o)
 .ARM.attributes
                0x00000518       0x2d ../../../../../../../PLAT/prebuild/PLAT/lib/gcc/libdeltapatch.a(bzlib.o)
 .ARM.attributes
                0x00000545       0x33 ../../../../../../../PLAT/prebuild/PLAT/lib/gcc/libdeltapatch.a(crctable.o)
 .ARM.attributes
                0x00000578       0x2d ../../../../../../../PLAT/prebuild/PLAT/lib/gcc/libdeltapatch.a(decompress.o)
 .ARM.attributes
                0x000005a5       0x2d ../../../../../../../PLAT/prebuild/PLAT/lib/gcc/libdeltapatch.a(huffman.o)
 .ARM.attributes
                0x000005d2       0x33 ../../../../../../../PLAT/prebuild/PLAT/lib/gcc/libdeltapatch.a(randtable.o)
 .ARM.attributes
                0x00000605       0x2d ../../../../../../../PLAT/prebuild/PLAT/lib/gcc/libdeltapatch.a(patch_main.o)
 .ARM.attributes
                0x00000632       0x2d ../../../../../../../PLAT/prebuild/PLAT/lib/gcc/libdeltapatch.a(fakefs.o)
 .ARM.attributes
                0x0000065f       0x2d ../../../../../../../PLAT/prebuild/PLAT/lib/gcc/libfota.a(fota_man.o)
 .ARM.attributes
                0x0000068c       0x2d ../../../../../../../PLAT/prebuild/PLAT/lib/gcc/libfota.a(fota_patch.o)
 .ARM.attributes
                0x000006b9       0x2d ../../../../../../../PLAT/prebuild/PLAT/lib/gcc/libfota.a(fota_callbacks.o)
 .ARM.attributes
                0x000006e6       0x2d ../../../../../../../PLAT/prebuild/PLAT/lib/gcc/libfota.a(fota_parchive.o)
 .ARM.attributes
                0x00000713       0x2d ../../../../../../../PLAT/prebuild/PLAT/lib/gcc/libfota.a(fota_hub.o)
 .ARM.attributes
                0x00000740       0x2d ../../../../../../../PLAT/prebuild/PLAT/lib/gcc/libdriver_private_bl.a(hal_trim.o)
 .ARM.attributes
                0x0000076d       0x2d ../../../../../../../PLAT/prebuild/PLAT/lib/gcc/libdriver_private_bl.a(pwrkey.o)
 .ARM.attributes
                0x0000079a       0x2d ../../../../../../../PLAT/prebuild/PLAT/lib/gcc/libdriver_private_bl.a(cpxip.o)
 .ARM.attributes
                0x000007c7       0x2d ../../../../../../../PLAT/prebuild/PLAT/lib/gcc/libdriver_private_bl.a(efuse.o)
 .ARM.attributes
                0x000007f4       0x2d ../../../../../../../PLAT/prebuild/PLAT/lib/gcc/libdriver_private_bl.a(cache.o)
 .ARM.attributes
                0x00000821       0x2d ../../../../../../../PLAT/prebuild/PLAT/lib/gcc/libdriver_private_bl.a(qspi.o)
 .ARM.attributes
                0x0000084e       0x2d ../../../../../../../PLAT/prebuild/PLAT/lib/gcc/libdriver_private_bl.a(flash.o)
 .ARM.attributes
                0x0000087b       0x2d ../../../../../../../PLAT/prebuild/PLAT/lib/gcc/libdriver_private_bl.a(ic.o)
 .ARM.attributes
                0x000008a8       0x2d ../../../../../../../PLAT/prebuild/PLAT/lib/gcc/libdriver_private_bl.a(gpr.o)
 .ARM.attributes
                0x000008d5       0x2d ../../../../../../../PLAT/prebuild/PLAT/lib/gcc/libdriver_private_bl.a(dma.o)
 .ARM.attributes
                0x00000902       0x2d ../../../../../../../PLAT/prebuild/PLAT/lib/gcc/libdriver_private_bl.a(aonreg.o)
 .ARM.attributes
                0x0000092f       0x2d ../../../../../../../PLAT/prebuild/PLAT/lib/gcc/libusbbl_priv.a(usbd_clsdev.o)
 .ARM.attributes
                0x0000095c       0x2d ../../../../../../../PLAT/prebuild/PLAT/lib/gcc/libusbbl_priv.a(usbd_funclib.o)
 .ARM.attributes
                0x00000989       0x2d ../../../../../../../PLAT/prebuild/PLAT/lib/gcc/libusbbl_priv.a(usbd_multi.o)
 .ARM.attributes
                0x000009b6       0x2d ../../../../../../../PLAT/prebuild/PLAT/lib/gcc/libusbbl_priv.a(usbd_multi_usrcfg_lib.o)
 .ARM.attributes
                0x000009e3       0x2d ../../../../../../../PLAT/prebuild/PLAT/lib/gcc/libusbbl_priv.a(usbd_proc_cb_lib.o)
 .ARM.attributes
                0x00000a10       0x2d ../../../../../../../PLAT/prebuild/PLAT/lib/gcc/libusbbl_priv.a(device_vcom.o)
 .ARM.attributes
                0x00000a3d       0x2d ../../../../../../../PLAT/prebuild/PLAT/lib/gcc/libusbbl_priv.a(device_rndis.o)
 .ARM.attributes
                0x00000a6a       0x2d ../../../../../../../PLAT/prebuild/PLAT/lib/gcc/libusbbl_priv.a(device_ecm.o)
 .ARM.attributes
                0x00000a97       0x2d ../../../../../../../PLAT/prebuild/PLAT/lib/gcc/libusbbl_priv.a(lib_rbuf.o)
 .ARM.attributes
                0x00000ac4       0x2d ../../../../../../../PLAT/prebuild/PLAT/lib/gcc/libusbbl_priv.a(func_dbg.o)
 .ARM.attributes
                0x00000af1       0x2d ../../../../../../../PLAT/prebuild/PLAT/lib/gcc/libusbbl_priv.a(function_vcom_tpl.o)
 .ARM.attributes
                0x00000b1e       0x2d ../../../../../../../PLAT/prebuild/PLAT/lib/gcc/libusbbl_priv.a(function_ecm.o)
 .ARM.attributes
                0x00000b4b       0x2d ../../../../../../../PLAT/prebuild/PLAT/lib/gcc/libusbbl_priv.a(function_rndis.o)
 .ARM.attributes
                0x00000b78       0x2d ../../../../../../../PLAT/prebuild/PLAT/lib/gcc/libusbbl_priv.a(usb_bl_cmsis_support.o)
 .ARM.attributes
                0x00000ba5       0x2d ../../../../../../../PLAT/prebuild/PLAT/lib/gcc/libusbbl_priv.a(usbc_ctrl.o)
 .ARM.attributes
                0x00000bd2       0x2d ../../../../../../../PLAT/prebuild/PLAT/lib/gcc/libusbbl_priv.a(usbc_dev_if.o)
 .ARM.attributes
                0x00000bff       0x2d ../../../../../../../PLAT/prebuild/PLAT/lib/gcc/libusbbl_priv.a(usbc_int.o)
 .ARM.attributes
                0x00000c2c       0x2d ../../../../../../../PLAT/prebuild/PLAT/lib/gcc/libusbbl_priv.a(usbc_trace.o)
 .ARM.attributes
                0x00000c59       0x2d ../../../../../../../PLAT/prebuild/PLAT/lib/gcc/libusbbl_priv.a(usbpcd_proc.o)
 .ARM.attributes
                0x00000c86       0x2d ../../../../../../../PLAT/prebuild/PLAT/lib/gcc/libusbbl_priv.a(usbpcd_proc_api.o)
 .ARM.attributes
                0x00000cb3       0x2d ../../../../../../../PLAT/prebuild/PLAT/lib/gcc/libusbbl_priv.a(usbpcd_proc_req.o)
 .ARM.attributes
                0x00000ce0       0x2d ../../../../../../../PLAT/prebuild/PLAT/lib/gcc/libusbbl_priv.a(usbc_bsp.o)
 .ARM.attributes
                0x00000d0d       0x2d ../../../../../../../PLAT/prebuild/PLAT/lib/gcc/libusbbl_priv.a(innophy.o)
 .ARM.attributes
                0x00000d3a       0x2d e:/work/meig/ec618/ec618_sdk_rel_sdk/plat/tools/gcc/bin/../lib/gcc/arm-none-eabi/10.2.1/../../../../arm-none-eabi/lib/thumb/v7-m/nofp\libc_nano.a(lib_a-assert.o)
 .ARM.attributes
                0x00000d67       0x2d e:/work/meig/ec618/ec618_sdk_rel_sdk/plat/tools/gcc/bin/../lib/gcc/arm-none-eabi/10.2.1/../../../../arm-none-eabi/lib/thumb/v7-m/nofp\libc_nano.a(lib_a-fclose.o)
 .ARM.attributes
                0x00000d94       0x2d e:/work/meig/ec618/ec618_sdk_rel_sdk/plat/tools/gcc/bin/../lib/gcc/arm-none-eabi/10.2.1/../../../../arm-none-eabi/lib/thumb/v7-m/nofp\libc_nano.a(lib_a-fflush.o)
 .ARM.attributes
                0x00000dc1       0x2d e:/work/meig/ec618/ec618_sdk_rel_sdk/plat/tools/gcc/bin/../lib/gcc/arm-none-eabi/10.2.1/../../../../arm-none-eabi/lib/thumb/v7-m/nofp\libc_nano.a(lib_a-findfp.o)
 .ARM.attributes
                0x00000dee       0x2d e:/work/meig/ec618/ec618_sdk_rel_sdk/plat/tools/gcc/bin/../lib/gcc/arm-none-eabi/10.2.1/../../../../arm-none-eabi/lib/thumb/v7-m/nofp\libc_nano.a(lib_a-fprintf.o)
 .ARM.attributes
                0x00000e1b       0x2d e:/work/meig/ec618/ec618_sdk_rel_sdk/plat/tools/gcc/bin/../lib/gcc/arm-none-eabi/10.2.1/../../../../arm-none-eabi/lib/thumb/v7-m/nofp\libc_nano.a(lib_a-fputc.o)
 .ARM.attributes
                0x00000e48       0x2d e:/work/meig/ec618/ec618_sdk_rel_sdk/plat/tools/gcc/bin/../lib/gcc/arm-none-eabi/10.2.1/../../../../arm-none-eabi/lib/thumb/v7-m/nofp\libc_nano.a(lib_a-fputs.o)
 .ARM.attributes
                0x00000e75       0x2d e:/work/meig/ec618/ec618_sdk_rel_sdk/plat/tools/gcc/bin/../lib/gcc/arm-none-eabi/10.2.1/../../../../arm-none-eabi/lib/thumb/v7-m/nofp\libc_nano.a(lib_a-fwalk.o)
 .ARM.attributes
                0x00000ea2       0x2d e:/work/meig/ec618/ec618_sdk_rel_sdk/plat/tools/gcc/bin/../lib/gcc/arm-none-eabi/10.2.1/../../../../arm-none-eabi/lib/thumb/v7-m/nofp\libc_nano.a(lib_a-lock.o)
 .ARM.attributes
                0x00000ecf       0x2d e:/work/meig/ec618/ec618_sdk_rel_sdk/plat/tools/gcc/bin/../lib/gcc/arm-none-eabi/10.2.1/../../../../arm-none-eabi/lib/thumb/v7-m/nofp\libc_nano.a(lib_a-malloc.o)
 .ARM.attributes
                0x00000efc       0x2d e:/work/meig/ec618/ec618_sdk_rel_sdk/plat/tools/gcc/bin/../lib/gcc/arm-none-eabi/10.2.1/../../../../arm-none-eabi/lib/thumb/v7-m/nofp\libc_nano.a(lib_a-memcmp.o)
 .ARM.attributes
                0x00000f29       0x2d e:/work/meig/ec618/ec618_sdk_rel_sdk/plat/tools/gcc/bin/../lib/gcc/arm-none-eabi/10.2.1/../../../../arm-none-eabi/lib/thumb/v7-m/nofp\libc_nano.a(lib_a-memmove.o)
 .ARM.attributes
                0x00000f56       0x2d e:/work/meig/ec618/ec618_sdk_rel_sdk/plat/tools/gcc/bin/../lib/gcc/arm-none-eabi/10.2.1/../../../../arm-none-eabi/lib/thumb/v7-m/nofp\libc_nano.a(lib_a-nano-freer.o)
 .ARM.attributes
                0x00000f83       0x2d e:/work/meig/ec618/ec618_sdk_rel_sdk/plat/tools/gcc/bin/../lib/gcc/arm-none-eabi/10.2.1/../../../../arm-none-eabi/lib/thumb/v7-m/nofp\libc_nano.a(lib_a-nano-mallocr.o)
 .ARM.attributes
                0x00000fb0       0x2d e:/work/meig/ec618/ec618_sdk_rel_sdk/plat/tools/gcc/bin/../lib/gcc/arm-none-eabi/10.2.1/../../../../arm-none-eabi/lib/thumb/v7-m/nofp\libc_nano.a(lib_a-nano-vfprintf.o)
 .ARM.attributes
                0x00000fdd       0x2d e:/work/meig/ec618/ec618_sdk_rel_sdk/plat/tools/gcc/bin/../lib/gcc/arm-none-eabi/10.2.1/../../../../arm-none-eabi/lib/thumb/v7-m/nofp\libc_nano.a(lib_a-nano-vfprintf_i.o)
 .ARM.attributes
                0x0000100a       0x2d e:/work/meig/ec618/ec618_sdk_rel_sdk/plat/tools/gcc/bin/../lib/gcc/arm-none-eabi/10.2.1/../../../../arm-none-eabi/lib/thumb/v7-m/nofp\libc_nano.a(lib_a-printf.o)
 .ARM.attributes
                0x00001037       0x2d e:/work/meig/ec618/ec618_sdk_rel_sdk/plat/tools/gcc/bin/../lib/gcc/arm-none-eabi/10.2.1/../../../../arm-none-eabi/lib/thumb/v7-m/nofp\libc_nano.a(lib_a-putc.o)
 .ARM.attributes
                0x00001064       0x2d e:/work/meig/ec618/ec618_sdk_rel_sdk/plat/tools/gcc/bin/../lib/gcc/arm-none-eabi/10.2.1/../../../../arm-none-eabi/lib/thumb/v7-m/nofp\libc_nano.a(lib_a-puts.o)
 .ARM.attributes
                0x00001091       0x2d e:/work/meig/ec618/ec618_sdk_rel_sdk/plat/tools/gcc/bin/../lib/gcc/arm-none-eabi/10.2.1/../../../../arm-none-eabi/lib/thumb/v7-m/nofp\libc_nano.a(lib_a-rand.o)
 .ARM.attributes
                0x000010be       0x2d e:/work/meig/ec618/ec618_sdk_rel_sdk/plat/tools/gcc/bin/../lib/gcc/arm-none-eabi/10.2.1/../../../../arm-none-eabi/lib/thumb/v7-m/nofp\libc_nano.a(lib_a-sbrkr.o)
 .ARM.attributes
                0x000010eb       0x2d e:/work/meig/ec618/ec618_sdk_rel_sdk/plat/tools/gcc/bin/../lib/gcc/arm-none-eabi/10.2.1/../../../../arm-none-eabi/lib/thumb/v7-m/nofp\libc_nano.a(lib_a-setvbuf.o)
 .ARM.attributes
                0x00001118       0x2d e:/work/meig/ec618/ec618_sdk_rel_sdk/plat/tools/gcc/bin/../lib/gcc/arm-none-eabi/10.2.1/../../../../arm-none-eabi/lib/thumb/v7-m/nofp\libc_nano.a(lib_a-sprintf.o)
 .ARM.attributes
                0x00001145       0x2d e:/work/meig/ec618/ec618_sdk_rel_sdk/plat/tools/gcc/bin/../lib/gcc/arm-none-eabi/10.2.1/../../../../arm-none-eabi/lib/thumb/v7-m/nofp\libc_nano.a(lib_a-stdio.o)
 .ARM.attributes
                0x00001172       0x2d e:/work/meig/ec618/ec618_sdk_rel_sdk/plat/tools/gcc/bin/../lib/gcc/arm-none-eabi/10.2.1/../../../../arm-none-eabi/lib/thumb/v7-m/nofp\libc_nano.a(lib_a-strcat.o)
 .ARM.attributes
                0x0000119f       0x1b e:/work/meig/ec618/ec618_sdk_rel_sdk/plat/tools/gcc/bin/../lib/gcc/arm-none-eabi/10.2.1/../../../../arm-none-eabi/lib/thumb/v7-m/nofp\libc_nano.a(lib_a-strcmp.o)
 .ARM.attributes
                0x000011ba       0x2d e:/work/meig/ec618/ec618_sdk_rel_sdk/plat/tools/gcc/bin/../lib/gcc/arm-none-eabi/10.2.1/../../../../arm-none-eabi/lib/thumb/v7-m/nofp\libc_nano.a(lib_a-strcpy.o)
 .ARM.attributes
                0x000011e7       0x17 e:/work/meig/ec618/ec618_sdk_rel_sdk/plat/tools/gcc/bin/../lib/gcc/arm-none-eabi/10.2.1/../../../../arm-none-eabi/lib/thumb/v7-m/nofp\libc_nano.a(lib_a-strlen.o)
 .ARM.attributes
                0x000011fe       0x2d e:/work/meig/ec618/ec618_sdk_rel_sdk/plat/tools/gcc/bin/../lib/gcc/arm-none-eabi/10.2.1/../../../../arm-none-eabi/lib/thumb/v7-m/nofp\libc_nano.a(lib_a-strncmp.o)
 .ARM.attributes
                0x0000122b       0x2d e:/work/meig/ec618/ec618_sdk_rel_sdk/plat/tools/gcc/bin/../lib/gcc/arm-none-eabi/10.2.1/../../../../arm-none-eabi/lib/thumb/v7-m/nofp\libc_nano.a(lib_a-wbuf.o)
 .ARM.attributes
                0x00001258       0x2d e:/work/meig/ec618/ec618_sdk_rel_sdk/plat/tools/gcc/bin/../lib/gcc/arm-none-eabi/10.2.1/../../../../arm-none-eabi/lib/thumb/v7-m/nofp\libc_nano.a(lib_a-writer.o)
 .ARM.attributes
                0x00001285       0x2d e:/work/meig/ec618/ec618_sdk_rel_sdk/plat/tools/gcc/bin/../lib/gcc/arm-none-eabi/10.2.1/../../../../arm-none-eabi/lib/thumb/v7-m/nofp\libc_nano.a(lib_a-wsetup.o)
 .ARM.attributes
                0x000012b2       0x2d e:/work/meig/ec618/ec618_sdk_rel_sdk/plat/tools/gcc/bin/../lib/gcc/arm-none-eabi/10.2.1/../../../../arm-none-eabi/lib/thumb/v7-m/nofp\libc_nano.a(lib_a-abort.o)
 .ARM.attributes
                0x000012df       0x2d e:/work/meig/ec618/ec618_sdk_rel_sdk/plat/tools/gcc/bin/../lib/gcc/arm-none-eabi/10.2.1/../../../../arm-none-eabi/lib/thumb/v7-m/nofp\libc_nano.a(lib_a-closer.o)
 .ARM.attributes
                0x0000130c       0x2d e:/work/meig/ec618/ec618_sdk_rel_sdk/plat/tools/gcc/bin/../lib/gcc/arm-none-eabi/10.2.1/../../../../arm-none-eabi/lib/thumb/v7-m/nofp\libc_nano.a(lib_a-lseekr.o)
 .ARM.attributes
                0x00001339       0x2d e:/work/meig/ec618/ec618_sdk_rel_sdk/plat/tools/gcc/bin/../lib/gcc/arm-none-eabi/10.2.1/../../../../arm-none-eabi/lib/thumb/v7-m/nofp\libc_nano.a(lib_a-makebuf.o)
 .ARM.attributes
                0x00001366       0x2d e:/work/meig/ec618/ec618_sdk_rel_sdk/plat/tools/gcc/bin/../lib/gcc/arm-none-eabi/10.2.1/../../../../arm-none-eabi/lib/thumb/v7-m/nofp\libc_nano.a(lib_a-memchr-stub.o)
 .ARM.attributes
                0x00001393       0x2d e:/work/meig/ec618/ec618_sdk_rel_sdk/plat/tools/gcc/bin/../lib/gcc/arm-none-eabi/10.2.1/../../../../arm-none-eabi/lib/thumb/v7-m/nofp\libc_nano.a(lib_a-mlock.o)
 .ARM.attributes
                0x000013c0       0x2d e:/work/meig/ec618/ec618_sdk_rel_sdk/plat/tools/gcc/bin/../lib/gcc/arm-none-eabi/10.2.1/../../../../arm-none-eabi/lib/thumb/v7-m/nofp\libc_nano.a(lib_a-nano-reallocr.o)
 .ARM.attributes
                0x000013ed       0x2d e:/work/meig/ec618/ec618_sdk_rel_sdk/plat/tools/gcc/bin/../lib/gcc/arm-none-eabi/10.2.1/../../../../arm-none-eabi/lib/thumb/v7-m/nofp\libc_nano.a(lib_a-nano-svfprintf.o)
 .ARM.attributes
                0x0000141a       0x2d e:/work/meig/ec618/ec618_sdk_rel_sdk/plat/tools/gcc/bin/../lib/gcc/arm-none-eabi/10.2.1/../../../../arm-none-eabi/lib/thumb/v7-m/nofp\libc_nano.a(lib_a-readr.o)
 .ARM.attributes
                0x00001447       0x2d e:/work/meig/ec618/ec618_sdk_rel_sdk/plat/tools/gcc/bin/../lib/gcc/arm-none-eabi/10.2.1/../../../../arm-none-eabi/lib/thumb/v7-m/nofp\libc_nano.a(lib_a-reent.o)
 .ARM.attributes
                0x00001474       0x2d e:/work/meig/ec618/ec618_sdk_rel_sdk/plat/tools/gcc/bin/../lib/gcc/arm-none-eabi/10.2.1/../../../../arm-none-eabi/lib/thumb/v7-m/nofp\libc_nano.a(lib_a-signal.o)
 .ARM.attributes
                0x000014a1       0x2d e:/work/meig/ec618/ec618_sdk_rel_sdk/plat/tools/gcc/bin/../lib/gcc/arm-none-eabi/10.2.1/../../../../arm-none-eabi/lib/thumb/v7-m/nofp\libc_nano.a(lib_a-signalr.o)
 .ARM.attributes
                0x000014ce       0x2d e:/work/meig/ec618/ec618_sdk_rel_sdk/plat/tools/gcc/bin/../lib/gcc/arm-none-eabi/10.2.1/../../../../arm-none-eabi/lib/thumb/v7-m/nofp\libc_nano.a(lib_a-fstatr.o)
 .ARM.attributes
                0x000014fb       0x2d e:/work/meig/ec618/ec618_sdk_rel_sdk/plat/tools/gcc/bin/../lib/gcc/arm-none-eabi/10.2.1/../../../../arm-none-eabi/lib/thumb/v7-m/nofp\libc_nano.a(lib_a-isattyr.o)
 .ARM.attributes
                0x00001528       0x2d e:/work/meig/ec618/ec618_sdk_rel_sdk/plat/tools/gcc/bin/../lib/gcc/arm-none-eabi/10.2.1/../../../../arm-none-eabi/lib/thumb/v7-m/nofp\libc_nano.a(lib_a-nano-msizer.o)

.comment        0x00000000       0x4d
 .comment       0x00000000       0x4d ../../../../../../../PLAT/gccout/ec618_0h00/ap/bootloader/PLAT/project/ec618_0h00/ap/apps/bootloader/code/main/ec_main.o
                                 0x4e (size before relaxing)
 .comment       0x0000004d       0x4e ../../../../../../../PLAT/gccout/ec618_0h00/ap/bootloader/PLAT/project/ec618_0h00/ap/apps/bootloader/code/main/stub_os.o
 .comment       0x0000004d       0x4e ../../../../../../../PLAT/gccout/ec618_0h00/ap/bootloader/PLAT/middleware/developed/fota/custom/src/fota_entry.o
 .comment       0x0000004d       0x4e ../../../../../../../PLAT/gccout/ec618_0h00/ap/bootloader/PLAT/middleware/developed/fota/custom/src/fota_utils.o
 .comment       0x0000004d       0x4e ../../../../../../../PLAT/gccout/ec618_0h00/ap/bootloader/PLAT/middleware/developed/fota/custom/src/fota_nvm.o
 .comment       0x0000004d       0x4e ../../../../../../../PLAT/gccout/ec618_0h00/ap/bootloader/PLAT/middleware/developed/fota/custom/src/fota_mem.o
 .comment       0x0000004d       0x4e ../../../../../../../PLAT/gccout/ec618_0h00/ap/bootloader/PLAT/middleware/developed/fota/custom/src/fota_chksum.o
 .comment       0x0000004d       0x4e ../../../../../../../PLAT/gccout/ec618_0h00/ap/bootloader/PLAT/middleware/developed/fota/custom/src/fota_custom.o
 .comment       0x0000004d       0x4e ../../../../../../../PLAT/gccout/ec618_0h00/ap/bootloader/lib/libstartup.a(prec_init.o)
 .comment       0x0000004d       0x4e ../../../../../../../PLAT/gccout/ec618_0h00/ap/bootloader/lib/libstartup.a(syscalls.o)
 .comment       0x0000004d       0x4e ../../../../../../../PLAT/gccout/ec618_0h00/ap/bootloader/lib/libstartup.a(system_ec618.o)
 .comment       0x0000004d       0x4e ../../../../../../../PLAT/gccout/ec618_0h00/ap/bootloader/lib/libdriver.a(plat_config.o)
 .comment       0x0000004d       0x4e ../../../../../../../PLAT/gccout/ec618_0h00/ap/bootloader/lib/libdriver.a(hal_misc.o)
 .comment       0x0000004d       0x4e ../../../../../../../PLAT/gccout/ec618_0h00/ap/bootloader/lib/libdriver.a(bsp_usart.o)
 .comment       0x0000004d       0x4e ../../../../../../../PLAT/gccout/ec618_0h00/ap/bootloader/lib/libdriver.a(pad.o)
 .comment       0x0000004d       0x4e ../../../../../../../PLAT/gccout/ec618_0h00/ap/bootloader/lib/libdriver.a(wdt.o)
 .comment       0x0000004d       0x4e ../../../../../../../PLAT/gccout/ec618_0h00/ap/bootloader/lib/libdriver.a(clock.o)
 .comment       0x0000004d       0x4e ../../../../../../../PLAT/gccout/ec618_0h00/ap/bootloader/lib/libdriver.a(usbd_proc_cb_custom.o)
 .comment       0x0000004d       0x4e ../../../../../../../PLAT/gccout/ec618_0h00/ap/bootloader/lib/libdriver.a(usbd_multi_usrcfg_custom.o)
 .comment       0x0000004d       0x4e ../../../../../../../PLAT/gccout/ec618_0h00/ap/bootloader/lib/libdriver.a(usb_bl_api.o)
 .comment       0x0000004d       0x4e ../../../../../../../PLAT/gccout/ec618_0h00/ap/bootloader/lib/libdriver.a(rndis_protocol.o)
 .comment       0x0000004d       0x4e ../../../../../../../PLAT/gccout/ec618_0h00/ap/bootloader/lib/libdriver.a(function_vcom_inherent.o)
 .comment       0x0000004d       0x4e ../../../../../../../PLAT/prebuild/PLAT/lib/gcc/libbootloader.a(image.o)
 .comment       0x0000004d       0x4e ../../../../../../../PLAT/prebuild/PLAT/lib/gcc/libbootloader.a(sha256.o)
 .comment       0x0000004d       0x4e ../../../../../../../PLAT/prebuild/PLAT/lib/gcc/libbootloader.a(bl_bsp.o)
 .comment       0x0000004d       0x4e ../../../../../../../PLAT/prebuild/PLAT/lib/gcc/libdeltapatch.a(bzlib.o)
 .comment       0x0000004d       0x4e ../../../../../../../PLAT/prebuild/PLAT/lib/gcc/libdeltapatch.a(crctable.o)
 .comment       0x0000004d       0x4e ../../../../../../../PLAT/prebuild/PLAT/lib/gcc/libdeltapatch.a(decompress.o)
 .comment       0x0000004d       0x4e ../../../../../../../PLAT/prebuild/PLAT/lib/gcc/libdeltapatch.a(huffman.o)
 .comment       0x0000004d       0x4e ../../../../../../../PLAT/prebuild/PLAT/lib/gcc/libdeltapatch.a(randtable.o)
 .comment       0x0000004d       0x4e ../../../../../../../PLAT/prebuild/PLAT/lib/gcc/libdeltapatch.a(patch_main.o)
 .comment       0x0000004d       0x4e ../../../../../../../PLAT/prebuild/PLAT/lib/gcc/libdeltapatch.a(fakefs.o)
 .comment       0x0000004d       0x4e ../../../../../../../PLAT/prebuild/PLAT/lib/gcc/libfota.a(fota_man.o)
 .comment       0x0000004d       0x4e ../../../../../../../PLAT/prebuild/PLAT/lib/gcc/libfota.a(fota_patch.o)
 .comment       0x0000004d       0x4e ../../../../../../../PLAT/prebuild/PLAT/lib/gcc/libfota.a(fota_callbacks.o)
 .comment       0x0000004d       0x4e ../../../../../../../PLAT/prebuild/PLAT/lib/gcc/libfota.a(fota_parchive.o)
 .comment       0x0000004d       0x4e ../../../../../../../PLAT/prebuild/PLAT/lib/gcc/libfota.a(fota_hub.o)
 .comment       0x0000004d       0x4e ../../../../../../../PLAT/prebuild/PLAT/lib/gcc/libdriver_private_bl.a(hal_trim.o)
 .comment       0x0000004d       0x4e ../../../../../../../PLAT/prebuild/PLAT/lib/gcc/libdriver_private_bl.a(pwrkey.o)
 .comment       0x0000004d       0x4e ../../../../../../../PLAT/prebuild/PLAT/lib/gcc/libdriver_private_bl.a(cpxip.o)
 .comment       0x0000004d       0x4e ../../../../../../../PLAT/prebuild/PLAT/lib/gcc/libdriver_private_bl.a(efuse.o)
 .comment       0x0000004d       0x4e ../../../../../../../PLAT/prebuild/PLAT/lib/gcc/libdriver_private_bl.a(cache.o)
 .comment       0x0000004d       0x4e ../../../../../../../PLAT/prebuild/PLAT/lib/gcc/libdriver_private_bl.a(qspi.o)
 .comment       0x0000004d       0x4e ../../../../../../../PLAT/prebuild/PLAT/lib/gcc/libdriver_private_bl.a(flash.o)
 .comment       0x0000004d       0x4e ../../../../../../../PLAT/prebuild/PLAT/lib/gcc/libdriver_private_bl.a(ic.o)
 .comment       0x0000004d       0x4e ../../../../../../../PLAT/prebuild/PLAT/lib/gcc/libdriver_private_bl.a(gpr.o)
 .comment       0x0000004d       0x4e ../../../../../../../PLAT/prebuild/PLAT/lib/gcc/libdriver_private_bl.a(dma.o)
 .comment       0x0000004d       0x4e ../../../../../../../PLAT/prebuild/PLAT/lib/gcc/libdriver_private_bl.a(aonreg.o)
 .comment       0x0000004d       0x4e ../../../../../../../PLAT/prebuild/PLAT/lib/gcc/libusbbl_priv.a(usbd_clsdev.o)
 .comment       0x0000004d       0x4e ../../../../../../../PLAT/prebuild/PLAT/lib/gcc/libusbbl_priv.a(usbd_funclib.o)
 .comment       0x0000004d       0x4e ../../../../../../../PLAT/prebuild/PLAT/lib/gcc/libusbbl_priv.a(usbd_multi.o)
 .comment       0x0000004d       0x4e ../../../../../../../PLAT/prebuild/PLAT/lib/gcc/libusbbl_priv.a(usbd_multi_usrcfg_lib.o)
 .comment       0x0000004d       0x4e ../../../../../../../PLAT/prebuild/PLAT/lib/gcc/libusbbl_priv.a(usbd_proc_cb_lib.o)
 .comment       0x0000004d       0x4e ../../../../../../../PLAT/prebuild/PLAT/lib/gcc/libusbbl_priv.a(device_vcom.o)
 .comment       0x0000004d       0x4e ../../../../../../../PLAT/prebuild/PLAT/lib/gcc/libusbbl_priv.a(device_rndis.o)
 .comment       0x0000004d       0x4e ../../../../../../../PLAT/prebuild/PLAT/lib/gcc/libusbbl_priv.a(device_ecm.o)
 .comment       0x0000004d       0x4e ../../../../../../../PLAT/prebuild/PLAT/lib/gcc/libusbbl_priv.a(lib_rbuf.o)
 .comment       0x0000004d       0x4e ../../../../../../../PLAT/prebuild/PLAT/lib/gcc/libusbbl_priv.a(func_dbg.o)
 .comment       0x0000004d       0x4e ../../../../../../../PLAT/prebuild/PLAT/lib/gcc/libusbbl_priv.a(function_vcom_tpl.o)
 .comment       0x0000004d       0x4e ../../../../../../../PLAT/prebuild/PLAT/lib/gcc/libusbbl_priv.a(function_ecm.o)
 .comment       0x0000004d       0x4e ../../../../../../../PLAT/prebuild/PLAT/lib/gcc/libusbbl_priv.a(function_rndis.o)
 .comment       0x0000004d       0x4e ../../../../../../../PLAT/prebuild/PLAT/lib/gcc/libusbbl_priv.a(usb_bl_cmsis_support.o)
 .comment       0x0000004d       0x4e ../../../../../../../PLAT/prebuild/PLAT/lib/gcc/libusbbl_priv.a(usbc_ctrl.o)
 .comment       0x0000004d       0x4e ../../../../../../../PLAT/prebuild/PLAT/lib/gcc/libusbbl_priv.a(usbc_dev_if.o)
 .comment       0x0000004d       0x4e ../../../../../../../PLAT/prebuild/PLAT/lib/gcc/libusbbl_priv.a(usbc_int.o)
 .comment       0x0000004d       0x4e ../../../../../../../PLAT/prebuild/PLAT/lib/gcc/libusbbl_priv.a(usbc_trace.o)
 .comment       0x0000004d       0x4e ../../../../../../../PLAT/prebuild/PLAT/lib/gcc/libusbbl_priv.a(usbpcd_proc.o)
 .comment       0x0000004d       0x4e ../../../../../../../PLAT/prebuild/PLAT/lib/gcc/libusbbl_priv.a(usbpcd_proc_api.o)
 .comment       0x0000004d       0x4e ../../../../../../../PLAT/prebuild/PLAT/lib/gcc/libusbbl_priv.a(usbpcd_proc_req.o)
 .comment       0x0000004d       0x4e ../../../../../../../PLAT/prebuild/PLAT/lib/gcc/libusbbl_priv.a(usbc_bsp.o)
 .comment       0x0000004d       0x4e ../../../../../../../PLAT/prebuild/PLAT/lib/gcc/libusbbl_priv.a(innophy.o)

.debug_frame    0x00000000     0x2f14
 .debug_frame   0x00000000       0x20 e:/work/meig/ec618/ec618_sdk_rel_sdk/plat/tools/gcc/bin/../lib/gcc/arm-none-eabi/10.2.1/../../../../arm-none-eabi/lib/thumb/v7-m/nofp\libc_nano.a(lib_a-memset.o)
 .debug_frame   0x00000020       0xe4 ../../../../../../../PLAT/gccout/ec618_0h00/ap/bootloader/PLAT/project/ec618_0h00/ap/apps/bootloader/code/main/ec_main.o
 .debug_frame   0x00000104      0x100 ../../../../../../../PLAT/gccout/ec618_0h00/ap/bootloader/PLAT/project/ec618_0h00/ap/apps/bootloader/code/main/stub_os.o
 .debug_frame   0x00000204       0x68 ../../../../../../../PLAT/gccout/ec618_0h00/ap/bootloader/PLAT/middleware/developed/fota/custom/src/fota_entry.o
 .debug_frame   0x0000026c       0x9c ../../../../../../../PLAT/gccout/ec618_0h00/ap/bootloader/PLAT/middleware/developed/fota/custom/src/fota_utils.o
 .debug_frame   0x00000308      0x224 ../../../../../../../PLAT/gccout/ec618_0h00/ap/bootloader/PLAT/middleware/developed/fota/custom/src/fota_nvm.o
 .debug_frame   0x0000052c       0x40 ../../../../../../../PLAT/gccout/ec618_0h00/ap/bootloader/PLAT/middleware/developed/fota/custom/src/fota_mem.o
 .debug_frame   0x0000056c       0x88 ../../../../../../../PLAT/gccout/ec618_0h00/ap/bootloader/PLAT/middleware/developed/fota/custom/src/fota_chksum.o
 .debug_frame   0x000005f4       0x84 ../../../../../../../PLAT/gccout/ec618_0h00/ap/bootloader/PLAT/middleware/developed/fota/custom/src/fota_custom.o
 .debug_frame   0x00000678       0xa0 ../../../../../../../PLAT/gccout/ec618_0h00/ap/bootloader/lib/libstartup.a(prec_init.o)
 .debug_frame   0x00000718       0xcc ../../../../../../../PLAT/gccout/ec618_0h00/ap/bootloader/lib/libstartup.a(syscalls.o)
 .debug_frame   0x000007e4       0xac ../../../../../../../PLAT/gccout/ec618_0h00/ap/bootloader/lib/libstartup.a(system_ec618.o)
 .debug_frame   0x00000890       0xe8 ../../../../../../../PLAT/gccout/ec618_0h00/ap/bootloader/lib/libdriver.a(plat_config.o)
 .debug_frame   0x00000978       0x70 ../../../../../../../PLAT/gccout/ec618_0h00/ap/bootloader/lib/libdriver.a(hal_misc.o)
 .debug_frame   0x000009e8      0x46c ../../../../../../../PLAT/gccout/ec618_0h00/ap/bootloader/lib/libdriver.a(bsp_usart.o)
 .debug_frame   0x00000e54       0xd8 ../../../../../../../PLAT/gccout/ec618_0h00/ap/bootloader/lib/libdriver.a(pad.o)
 .debug_frame   0x00000f2c       0xfc ../../../../../../../PLAT/gccout/ec618_0h00/ap/bootloader/lib/libdriver.a(wdt.o)
 .debug_frame   0x00001028      0x1b8 ../../../../../../../PLAT/gccout/ec618_0h00/ap/bootloader/lib/libdriver.a(clock.o)
 .debug_frame   0x000011e0      0x130 ../../../../../../../PLAT/gccout/ec618_0h00/ap/bootloader/lib/libdriver.a(usbd_proc_cb_custom.o)
 .debug_frame   0x00001310       0xe8 ../../../../../../../PLAT/gccout/ec618_0h00/ap/bootloader/lib/libdriver.a(usbd_multi_usrcfg_custom.o)
 .debug_frame   0x000013f8       0xc0 ../../../../../../../PLAT/gccout/ec618_0h00/ap/bootloader/lib/libdriver.a(usb_bl_api.o)
 .debug_frame   0x000014b8       0xec ../../../../../../../PLAT/gccout/ec618_0h00/ap/bootloader/lib/libdriver.a(rndis_protocol.o)
 .debug_frame   0x000015a4       0xc4 ../../../../../../../PLAT/gccout/ec618_0h00/ap/bootloader/lib/libdriver.a(function_vcom_inherent.o)
 .debug_frame   0x00001668      0x25c ../../../../../../../PLAT/prebuild/PLAT/lib/gcc/libdeltapatch.a(bzlib.o)
 .debug_frame   0x000018c4       0x44 ../../../../../../../PLAT/prebuild/PLAT/lib/gcc/libdeltapatch.a(decompress.o)
 .debug_frame   0x00001908       0x88 ../../../../../../../PLAT/prebuild/PLAT/lib/gcc/libdeltapatch.a(huffman.o)
 .debug_frame   0x00001990      0x378 ../../../../../../../PLAT/prebuild/PLAT/lib/gcc/libdeltapatch.a(patch_main.o)
 .debug_frame   0x00001d08      0x460 ../../../../../../../PLAT/prebuild/PLAT/lib/gcc/libdeltapatch.a(fakefs.o)
 .debug_frame   0x00002168       0x40 e:/work/meig/ec618/ec618_sdk_rel_sdk/plat/tools/gcc/bin/../lib/gcc/arm-none-eabi/10.2.1/../../../../arm-none-eabi/lib/thumb/v7-m/nofp\libc_nano.a(lib_a-assert.o)
 .debug_frame   0x000021a8       0x3c e:/work/meig/ec618/ec618_sdk_rel_sdk/plat/tools/gcc/bin/../lib/gcc/arm-none-eabi/10.2.1/../../../../arm-none-eabi/lib/thumb/v7-m/nofp\libc_nano.a(lib_a-fclose.o)
 .debug_frame   0x000021e4       0x5c e:/work/meig/ec618/ec618_sdk_rel_sdk/plat/tools/gcc/bin/../lib/gcc/arm-none-eabi/10.2.1/../../../../arm-none-eabi/lib/thumb/v7-m/nofp\libc_nano.a(lib_a-fflush.o)
 .debug_frame   0x00002240      0x14c e:/work/meig/ec618/ec618_sdk_rel_sdk/plat/tools/gcc/bin/../lib/gcc/arm-none-eabi/10.2.1/../../../../arm-none-eabi/lib/thumb/v7-m/nofp\libc_nano.a(lib_a-findfp.o)
 .debug_frame   0x0000238c       0x64 e:/work/meig/ec618/ec618_sdk_rel_sdk/plat/tools/gcc/bin/../lib/gcc/arm-none-eabi/10.2.1/../../../../arm-none-eabi/lib/thumb/v7-m/nofp\libc_nano.a(lib_a-fprintf.o)
 .debug_frame   0x000023f0       0x3c e:/work/meig/ec618/ec618_sdk_rel_sdk/plat/tools/gcc/bin/../lib/gcc/arm-none-eabi/10.2.1/../../../../arm-none-eabi/lib/thumb/v7-m/nofp\libc_nano.a(lib_a-fputc.o)
 .debug_frame   0x0000242c       0x3c e:/work/meig/ec618/ec618_sdk_rel_sdk/plat/tools/gcc/bin/../lib/gcc/arm-none-eabi/10.2.1/../../../../arm-none-eabi/lib/thumb/v7-m/nofp\libc_nano.a(lib_a-fputs.o)
 .debug_frame   0x00002468       0x54 e:/work/meig/ec618/ec618_sdk_rel_sdk/plat/tools/gcc/bin/../lib/gcc/arm-none-eabi/10.2.1/../../../../arm-none-eabi/lib/thumb/v7-m/nofp\libc_nano.a(lib_a-fwalk.o)
 .debug_frame   0x000024bc       0xb0 e:/work/meig/ec618/ec618_sdk_rel_sdk/plat/tools/gcc/bin/../lib/gcc/arm-none-eabi/10.2.1/../../../../arm-none-eabi/lib/thumb/v7-m/nofp\libc_nano.a(lib_a-lock.o)
 .debug_frame   0x0000256c       0x30 e:/work/meig/ec618/ec618_sdk_rel_sdk/plat/tools/gcc/bin/../lib/gcc/arm-none-eabi/10.2.1/../../../../arm-none-eabi/lib/thumb/v7-m/nofp\libc_nano.a(lib_a-malloc.o)
 .debug_frame   0x0000259c       0x28 e:/work/meig/ec618/ec618_sdk_rel_sdk/plat/tools/gcc/bin/../lib/gcc/arm-none-eabi/10.2.1/../../../../arm-none-eabi/lib/thumb/v7-m/nofp\libc_nano.a(lib_a-memcmp.o)
 .debug_frame   0x000025c4       0x28 e:/work/meig/ec618/ec618_sdk_rel_sdk/plat/tools/gcc/bin/../lib/gcc/arm-none-eabi/10.2.1/../../../../arm-none-eabi/lib/thumb/v7-m/nofp\libc_nano.a(lib_a-memmove.o)
 .debug_frame   0x000025ec       0x38 e:/work/meig/ec618/ec618_sdk_rel_sdk/plat/tools/gcc/bin/../lib/gcc/arm-none-eabi/10.2.1/../../../../arm-none-eabi/lib/thumb/v7-m/nofp\libc_nano.a(lib_a-nano-freer.o)
 .debug_frame   0x00002624       0x30 e:/work/meig/ec618/ec618_sdk_rel_sdk/plat/tools/gcc/bin/../lib/gcc/arm-none-eabi/10.2.1/../../../../arm-none-eabi/lib/thumb/v7-m/nofp\libc_nano.a(lib_a-nano-mallocr.o)
 .debug_frame   0x00002654       0xac e:/work/meig/ec618/ec618_sdk_rel_sdk/plat/tools/gcc/bin/../lib/gcc/arm-none-eabi/10.2.1/../../../../arm-none-eabi/lib/thumb/v7-m/nofp\libc_nano.a(lib_a-nano-vfprintf.o)
 .debug_frame   0x00002700       0x60 e:/work/meig/ec618/ec618_sdk_rel_sdk/plat/tools/gcc/bin/../lib/gcc/arm-none-eabi/10.2.1/../../../../arm-none-eabi/lib/thumb/v7-m/nofp\libc_nano.a(lib_a-nano-vfprintf_i.o)
 .debug_frame   0x00002760       0x74 e:/work/meig/ec618/ec618_sdk_rel_sdk/plat/tools/gcc/bin/../lib/gcc/arm-none-eabi/10.2.1/../../../../arm-none-eabi/lib/thumb/v7-m/nofp\libc_nano.a(lib_a-printf.o)
 .debug_frame   0x000027d4       0x3c e:/work/meig/ec618/ec618_sdk_rel_sdk/plat/tools/gcc/bin/../lib/gcc/arm-none-eabi/10.2.1/../../../../arm-none-eabi/lib/thumb/v7-m/nofp\libc_nano.a(lib_a-putc.o)
 .debug_frame   0x00002810       0x3c e:/work/meig/ec618/ec618_sdk_rel_sdk/plat/tools/gcc/bin/../lib/gcc/arm-none-eabi/10.2.1/../../../../arm-none-eabi/lib/thumb/v7-m/nofp\libc_nano.a(lib_a-puts.o)
 .debug_frame   0x0000284c       0x44 e:/work/meig/ec618/ec618_sdk_rel_sdk/plat/tools/gcc/bin/../lib/gcc/arm-none-eabi/10.2.1/../../../../arm-none-eabi/lib/thumb/v7-m/nofp\libc_nano.a(lib_a-rand.o)
 .debug_frame   0x00002890       0x2c e:/work/meig/ec618/ec618_sdk_rel_sdk/plat/tools/gcc/bin/../lib/gcc/arm-none-eabi/10.2.1/../../../../arm-none-eabi/lib/thumb/v7-m/nofp\libc_nano.a(lib_a-sbrkr.o)
 .debug_frame   0x000028bc       0x38 e:/work/meig/ec618/ec618_sdk_rel_sdk/plat/tools/gcc/bin/../lib/gcc/arm-none-eabi/10.2.1/../../../../arm-none-eabi/lib/thumb/v7-m/nofp\libc_nano.a(lib_a-setvbuf.o)
 .debug_frame   0x000028f4       0x6c e:/work/meig/ec618/ec618_sdk_rel_sdk/plat/tools/gcc/bin/../lib/gcc/arm-none-eabi/10.2.1/../../../../arm-none-eabi/lib/thumb/v7-m/nofp\libc_nano.a(lib_a-sprintf.o)
 .debug_frame   0x00002960       0x88 e:/work/meig/ec618/ec618_sdk_rel_sdk/plat/tools/gcc/bin/../lib/gcc/arm-none-eabi/10.2.1/../../../../arm-none-eabi/lib/thumb/v7-m/nofp\libc_nano.a(lib_a-stdio.o)
 .debug_frame   0x000029e8       0x28 e:/work/meig/ec618/ec618_sdk_rel_sdk/plat/tools/gcc/bin/../lib/gcc/arm-none-eabi/10.2.1/../../../../arm-none-eabi/lib/thumb/v7-m/nofp\libc_nano.a(lib_a-strcat.o)
 .debug_frame   0x00002a10       0x20 e:/work/meig/ec618/ec618_sdk_rel_sdk/plat/tools/gcc/bin/../lib/gcc/arm-none-eabi/10.2.1/../../../../arm-none-eabi/lib/thumb/v7-m/nofp\libc_nano.a(lib_a-strcmp.o)
 .debug_frame   0x00002a30       0x20 e:/work/meig/ec618/ec618_sdk_rel_sdk/plat/tools/gcc/bin/../lib/gcc/arm-none-eabi/10.2.1/../../../../arm-none-eabi/lib/thumb/v7-m/nofp\libc_nano.a(lib_a-strcpy.o)
 .debug_frame   0x00002a50       0x28 e:/work/meig/ec618/ec618_sdk_rel_sdk/plat/tools/gcc/bin/../lib/gcc/arm-none-eabi/10.2.1/../../../../arm-none-eabi/lib/thumb/v7-m/nofp\libc_nano.a(lib_a-strncmp.o)
 .debug_frame   0x00002a78       0x40 e:/work/meig/ec618/ec618_sdk_rel_sdk/plat/tools/gcc/bin/../lib/gcc/arm-none-eabi/10.2.1/../../../../arm-none-eabi/lib/thumb/v7-m/nofp\libc_nano.a(lib_a-wbuf.o)
 .debug_frame   0x00002ab8       0x2c e:/work/meig/ec618/ec618_sdk_rel_sdk/plat/tools/gcc/bin/../lib/gcc/arm-none-eabi/10.2.1/../../../../arm-none-eabi/lib/thumb/v7-m/nofp\libc_nano.a(lib_a-writer.o)
 .debug_frame   0x00002ae4       0x2c e:/work/meig/ec618/ec618_sdk_rel_sdk/plat/tools/gcc/bin/../lib/gcc/arm-none-eabi/10.2.1/../../../../arm-none-eabi/lib/thumb/v7-m/nofp\libc_nano.a(lib_a-wsetup.o)
 .debug_frame   0x00002b10       0x28 e:/work/meig/ec618/ec618_sdk_rel_sdk/plat/tools/gcc/bin/../lib/gcc/arm-none-eabi/10.2.1/../../../../arm-none-eabi/lib/thumb/v7-m/nofp\libc_nano.a(lib_a-abort.o)
 .debug_frame   0x00002b38       0x2c e:/work/meig/ec618/ec618_sdk_rel_sdk/plat/tools/gcc/bin/../lib/gcc/arm-none-eabi/10.2.1/../../../../arm-none-eabi/lib/thumb/v7-m/nofp\libc_nano.a(lib_a-closer.o)
 .debug_frame   0x00002b64       0x2c e:/work/meig/ec618/ec618_sdk_rel_sdk/plat/tools/gcc/bin/../lib/gcc/arm-none-eabi/10.2.1/../../../../arm-none-eabi/lib/thumb/v7-m/nofp\libc_nano.a(lib_a-lseekr.o)
 .debug_frame   0x00002b90       0x58 e:/work/meig/ec618/ec618_sdk_rel_sdk/plat/tools/gcc/bin/../lib/gcc/arm-none-eabi/10.2.1/../../../../arm-none-eabi/lib/thumb/v7-m/nofp\libc_nano.a(lib_a-makebuf.o)
 .debug_frame   0x00002be8       0x28 e:/work/meig/ec618/ec618_sdk_rel_sdk/plat/tools/gcc/bin/../lib/gcc/arm-none-eabi/10.2.1/../../../../arm-none-eabi/lib/thumb/v7-m/nofp\libc_nano.a(lib_a-memchr-stub.o)
 .debug_frame   0x00002c10       0x30 e:/work/meig/ec618/ec618_sdk_rel_sdk/plat/tools/gcc/bin/../lib/gcc/arm-none-eabi/10.2.1/../../../../arm-none-eabi/lib/thumb/v7-m/nofp\libc_nano.a(lib_a-mlock.o)
 .debug_frame   0x00002c40       0x3c e:/work/meig/ec618/ec618_sdk_rel_sdk/plat/tools/gcc/bin/../lib/gcc/arm-none-eabi/10.2.1/../../../../arm-none-eabi/lib/thumb/v7-m/nofp\libc_nano.a(lib_a-nano-reallocr.o)
 .debug_frame   0x00002c7c       0x90 e:/work/meig/ec618/ec618_sdk_rel_sdk/plat/tools/gcc/bin/../lib/gcc/arm-none-eabi/10.2.1/../../../../arm-none-eabi/lib/thumb/v7-m/nofp\libc_nano.a(lib_a-nano-svfprintf.o)
 .debug_frame   0x00002d0c       0x2c e:/work/meig/ec618/ec618_sdk_rel_sdk/plat/tools/gcc/bin/../lib/gcc/arm-none-eabi/10.2.1/../../../../arm-none-eabi/lib/thumb/v7-m/nofp\libc_nano.a(lib_a-readr.o)
 .debug_frame   0x00002d38       0x5c e:/work/meig/ec618/ec618_sdk_rel_sdk/plat/tools/gcc/bin/../lib/gcc/arm-none-eabi/10.2.1/../../../../arm-none-eabi/lib/thumb/v7-m/nofp\libc_nano.a(lib_a-reent.o)
 .debug_frame   0x00002d94       0xcc e:/work/meig/ec618/ec618_sdk_rel_sdk/plat/tools/gcc/bin/../lib/gcc/arm-none-eabi/10.2.1/../../../../arm-none-eabi/lib/thumb/v7-m/nofp\libc_nano.a(lib_a-signal.o)
 .debug_frame   0x00002e60       0x3c e:/work/meig/ec618/ec618_sdk_rel_sdk/plat/tools/gcc/bin/../lib/gcc/arm-none-eabi/10.2.1/../../../../arm-none-eabi/lib/thumb/v7-m/nofp\libc_nano.a(lib_a-signalr.o)
 .debug_frame   0x00002e9c       0x2c e:/work/meig/ec618/ec618_sdk_rel_sdk/plat/tools/gcc/bin/../lib/gcc/arm-none-eabi/10.2.1/../../../../arm-none-eabi/lib/thumb/v7-m/nofp\libc_nano.a(lib_a-fstatr.o)
 .debug_frame   0x00002ec8       0x2c e:/work/meig/ec618/ec618_sdk_rel_sdk/plat/tools/gcc/bin/../lib/gcc/arm-none-eabi/10.2.1/../../../../arm-none-eabi/lib/thumb/v7-m/nofp\libc_nano.a(lib_a-isattyr.o)
 .debug_frame   0x00002ef4       0x20 e:/work/meig/ec618/ec618_sdk_rel_sdk/plat/tools/gcc/bin/../lib/gcc/arm-none-eabi/10.2.1/../../../../arm-none-eabi/lib/thumb/v7-m/nofp\libc_nano.a(lib_a-nano-msizer.o)

.debug_info     0x00000000    0x198e0
 .debug_info    0x00000000      0x9ac ../../../../../../../PLAT/gccout/ec618_0h00/ap/bootloader/PLAT/project/ec618_0h00/ap/apps/bootloader/code/main/ec_main.o
 .debug_info    0x000009ac      0x725 ../../../../../../../PLAT/gccout/ec618_0h00/ap/bootloader/PLAT/project/ec618_0h00/ap/apps/bootloader/code/main/stub_os.o
 .debug_info    0x000010d1      0x7fd ../../../../../../../PLAT/gccout/ec618_0h00/ap/bootloader/PLAT/middleware/developed/fota/custom/src/fota_entry.o
 .debug_info    0x000018ce      0x678 ../../../../../../../PLAT/gccout/ec618_0h00/ap/bootloader/PLAT/middleware/developed/fota/custom/src/fota_utils.o
 .debug_info    0x00001f46     0x15f4 ../../../../../../../PLAT/gccout/ec618_0h00/ap/bootloader/PLAT/middleware/developed/fota/custom/src/fota_nvm.o
 .debug_info    0x0000353a      0x1ae ../../../../../../../PLAT/gccout/ec618_0h00/ap/bootloader/PLAT/middleware/developed/fota/custom/src/fota_mem.o
 .debug_info    0x000036e8      0x4e4 ../../../../../../../PLAT/gccout/ec618_0h00/ap/bootloader/PLAT/middleware/developed/fota/custom/src/fota_chksum.o
 .debug_info    0x00003bcc      0x59c ../../../../../../../PLAT/gccout/ec618_0h00/ap/bootloader/PLAT/middleware/developed/fota/custom/src/fota_custom.o
 .debug_info    0x00004168      0x447 ../../../../../../../PLAT/gccout/ec618_0h00/ap/bootloader/lib/libstartup.a(prec_init.o)
 .debug_info    0x000045af      0x600 ../../../../../../../PLAT/gccout/ec618_0h00/ap/bootloader/lib/libstartup.a(syscalls.o)
 .debug_info    0x00004baf      0xac4 ../../../../../../../PLAT/gccout/ec618_0h00/ap/bootloader/lib/libstartup.a(system_ec618.o)
 .debug_info    0x00005673       0x26 ../../../../../../../PLAT/gccout/ec618_0h00/ap/bootloader/lib/libstartup.a(startup_ec618_gcc.o)
 .debug_info    0x00005699      0x97b ../../../../../../../PLAT/gccout/ec618_0h00/ap/bootloader/lib/libdriver.a(plat_config.o)
 .debug_info    0x00006014      0x567 ../../../../../../../PLAT/gccout/ec618_0h00/ap/bootloader/lib/libdriver.a(hal_misc.o)
 .debug_info    0x0000657b     0x3818 ../../../../../../../PLAT/gccout/ec618_0h00/ap/bootloader/lib/libdriver.a(bsp_usart.o)
 .debug_info    0x00009d93      0x903 ../../../../../../../PLAT/gccout/ec618_0h00/ap/bootloader/lib/libdriver.a(pad.o)
 .debug_info    0x0000a696      0xbc0 ../../../../../../../PLAT/gccout/ec618_0h00/ap/bootloader/lib/libdriver.a(wdt.o)
 .debug_info    0x0000b256     0x1888 ../../../../../../../PLAT/gccout/ec618_0h00/ap/bootloader/lib/libdriver.a(clock.o)
 .debug_info    0x0000cade      0x2cb ../../../../../../../PLAT/gccout/ec618_0h00/ap/bootloader/lib/libdriver.a(usbd_proc_cb_custom.o)
 .debug_info    0x0000cda9      0xe66 ../../../../../../../PLAT/gccout/ec618_0h00/ap/bootloader/lib/libdriver.a(usbd_multi_usrcfg_custom.o)
 .debug_info    0x0000dc0f      0x65f ../../../../../../../PLAT/gccout/ec618_0h00/ap/bootloader/lib/libdriver.a(usb_bl_api.o)
 .debug_info    0x0000e26e      0xe60 ../../../../../../../PLAT/gccout/ec618_0h00/ap/bootloader/lib/libdriver.a(rndis_protocol.o)
 .debug_info    0x0000f0ce      0xf81 ../../../../../../../PLAT/gccout/ec618_0h00/ap/bootloader/lib/libdriver.a(function_vcom_inherent.o)
 .debug_info    0x0001004f       0x26 ../../../../../../../PLAT/gccout/ec618_0h00/ap/bootloader/lib/libdriver.a(memcpy-armv7m.o)
 .debug_info    0x00010075     0x25ac ../../../../../../../PLAT/prebuild/PLAT/lib/gcc/libdeltapatch.a(bzlib.o)
 .debug_info    0x00012621       0xa8 ../../../../../../../PLAT/prebuild/PLAT/lib/gcc/libdeltapatch.a(crctable.o)
 .debug_info    0x000126c9     0x1a03 ../../../../../../../PLAT/prebuild/PLAT/lib/gcc/libdeltapatch.a(decompress.o)
 .debug_info    0x000140cc      0x4d6 ../../../../../../../PLAT/prebuild/PLAT/lib/gcc/libdeltapatch.a(huffman.o)
 .debug_info    0x000145a2       0xa9 ../../../../../../../PLAT/prebuild/PLAT/lib/gcc/libdeltapatch.a(randtable.o)
 .debug_info    0x0001464b     0x2be3 ../../../../../../../PLAT/prebuild/PLAT/lib/gcc/libdeltapatch.a(patch_main.o)
 .debug_info    0x0001722e     0x26b2 ../../../../../../../PLAT/prebuild/PLAT/lib/gcc/libdeltapatch.a(fakefs.o)

.debug_abbrev   0x00000000     0x46ad
 .debug_abbrev  0x00000000      0x2e3 ../../../../../../../PLAT/gccout/ec618_0h00/ap/bootloader/PLAT/project/ec618_0h00/ap/apps/bootloader/code/main/ec_main.o
 .debug_abbrev  0x000002e3      0x1d5 ../../../../../../../PLAT/gccout/ec618_0h00/ap/bootloader/PLAT/project/ec618_0h00/ap/apps/bootloader/code/main/stub_os.o
 .debug_abbrev  0x000004b8      0x17d ../../../../../../../PLAT/gccout/ec618_0h00/ap/bootloader/PLAT/middleware/developed/fota/custom/src/fota_entry.o
 .debug_abbrev  0x00000635      0x1c5 ../../../../../../../PLAT/gccout/ec618_0h00/ap/bootloader/PLAT/middleware/developed/fota/custom/src/fota_utils.o
 .debug_abbrev  0x000007fa      0x282 ../../../../../../../PLAT/gccout/ec618_0h00/ap/bootloader/PLAT/middleware/developed/fota/custom/src/fota_nvm.o
 .debug_abbrev  0x00000a7c       0xef ../../../../../../../PLAT/gccout/ec618_0h00/ap/bootloader/PLAT/middleware/developed/fota/custom/src/fota_mem.o
 .debug_abbrev  0x00000b6b      0x1e8 ../../../../../../../PLAT/gccout/ec618_0h00/ap/bootloader/PLAT/middleware/developed/fota/custom/src/fota_chksum.o
 .debug_abbrev  0x00000d53      0x1d9 ../../../../../../../PLAT/gccout/ec618_0h00/ap/bootloader/PLAT/middleware/developed/fota/custom/src/fota_custom.o
 .debug_abbrev  0x00000f2c      0x112 ../../../../../../../PLAT/gccout/ec618_0h00/ap/bootloader/lib/libstartup.a(prec_init.o)
 .debug_abbrev  0x0000103e      0x1c5 ../../../../../../../PLAT/gccout/ec618_0h00/ap/bootloader/lib/libstartup.a(syscalls.o)
 .debug_abbrev  0x00001203      0x2aa ../../../../../../../PLAT/gccout/ec618_0h00/ap/bootloader/lib/libstartup.a(system_ec618.o)
 .debug_abbrev  0x000014ad       0x14 ../../../../../../../PLAT/gccout/ec618_0h00/ap/bootloader/lib/libstartup.a(startup_ec618_gcc.o)
 .debug_abbrev  0x000014c1      0x350 ../../../../../../../PLAT/gccout/ec618_0h00/ap/bootloader/lib/libdriver.a(plat_config.o)
 .debug_abbrev  0x00001811      0x18a ../../../../../../../PLAT/gccout/ec618_0h00/ap/bootloader/lib/libdriver.a(hal_misc.o)
 .debug_abbrev  0x0000199b      0x5f9 ../../../../../../../PLAT/gccout/ec618_0h00/ap/bootloader/lib/libdriver.a(bsp_usart.o)
 .debug_abbrev  0x00001f94      0x1d7 ../../../../../../../PLAT/gccout/ec618_0h00/ap/bootloader/lib/libdriver.a(pad.o)
 .debug_abbrev  0x0000216b      0x315 ../../../../../../../PLAT/gccout/ec618_0h00/ap/bootloader/lib/libdriver.a(wdt.o)
 .debug_abbrev  0x00002480      0x497 ../../../../../../../PLAT/gccout/ec618_0h00/ap/bootloader/lib/libdriver.a(clock.o)
 .debug_abbrev  0x00002917       0xe0 ../../../../../../../PLAT/gccout/ec618_0h00/ap/bootloader/lib/libdriver.a(usbd_proc_cb_custom.o)
 .debug_abbrev  0x000029f7      0x22c ../../../../../../../PLAT/gccout/ec618_0h00/ap/bootloader/lib/libdriver.a(usbd_multi_usrcfg_custom.o)
 .debug_abbrev  0x00002c23      0x152 ../../../../../../../PLAT/gccout/ec618_0h00/ap/bootloader/lib/libdriver.a(usb_bl_api.o)
 .debug_abbrev  0x00002d75      0x279 ../../../../../../../PLAT/gccout/ec618_0h00/ap/bootloader/lib/libdriver.a(rndis_protocol.o)
 .debug_abbrev  0x00002fee      0x29a ../../../../../../../PLAT/gccout/ec618_0h00/ap/bootloader/lib/libdriver.a(function_vcom_inherent.o)
 .debug_abbrev  0x00003288       0x14 ../../../../../../../PLAT/gccout/ec618_0h00/ap/bootloader/lib/libdriver.a(memcpy-armv7m.o)
 .debug_abbrev  0x0000329c      0x5e3 ../../../../../../../PLAT/prebuild/PLAT/lib/gcc/libdeltapatch.a(bzlib.o)
 .debug_abbrev  0x0000387f       0x69 ../../../../../../../PLAT/prebuild/PLAT/lib/gcc/libdeltapatch.a(crctable.o)
 .debug_abbrev  0x000038e8      0x378 ../../../../../../../PLAT/prebuild/PLAT/lib/gcc/libdeltapatch.a(decompress.o)
 .debug_abbrev  0x00003c60      0x133 ../../../../../../../PLAT/prebuild/PLAT/lib/gcc/libdeltapatch.a(huffman.o)
 .debug_abbrev  0x00003d93       0x69 ../../../../../../../PLAT/prebuild/PLAT/lib/gcc/libdeltapatch.a(randtable.o)
 .debug_abbrev  0x00003dfc      0x456 ../../../../../../../PLAT/prebuild/PLAT/lib/gcc/libdeltapatch.a(patch_main.o)
 .debug_abbrev  0x00004252      0x45b ../../../../../../../PLAT/prebuild/PLAT/lib/gcc/libdeltapatch.a(fakefs.o)

.debug_loc      0x00000000     0xed01
 .debug_loc     0x00000000      0x242 ../../../../../../../PLAT/gccout/ec618_0h00/ap/bootloader/PLAT/project/ec618_0h00/ap/apps/bootloader/code/main/ec_main.o
 .debug_loc     0x00000242      0x151 ../../../../../../../PLAT/gccout/ec618_0h00/ap/bootloader/PLAT/project/ec618_0h00/ap/apps/bootloader/code/main/stub_os.o
 .debug_loc     0x00000393       0xee ../../../../../../../PLAT/gccout/ec618_0h00/ap/bootloader/PLAT/middleware/developed/fota/custom/src/fota_entry.o
 .debug_loc     0x00000481      0x48f ../../../../../../../PLAT/gccout/ec618_0h00/ap/bootloader/PLAT/middleware/developed/fota/custom/src/fota_utils.o
 .debug_loc     0x00000910     0x1015 ../../../../../../../PLAT/gccout/ec618_0h00/ap/bootloader/PLAT/middleware/developed/fota/custom/src/fota_nvm.o
 .debug_loc     0x00001925       0x7c ../../../../../../../PLAT/gccout/ec618_0h00/ap/bootloader/PLAT/middleware/developed/fota/custom/src/fota_mem.o
 .debug_loc     0x000019a1      0x33e ../../../../../../../PLAT/gccout/ec618_0h00/ap/bootloader/PLAT/middleware/developed/fota/custom/src/fota_chksum.o
 .debug_loc     0x00001cdf      0x226 ../../../../../../../PLAT/gccout/ec618_0h00/ap/bootloader/PLAT/middleware/developed/fota/custom/src/fota_custom.o
 .debug_loc     0x00001f05       0x40 ../../../../../../../PLAT/gccout/ec618_0h00/ap/bootloader/lib/libstartup.a(prec_init.o)
 .debug_loc     0x00001f45      0x259 ../../../../../../../PLAT/gccout/ec618_0h00/ap/bootloader/lib/libstartup.a(syscalls.o)
 .debug_loc     0x0000219e      0x15c ../../../../../../../PLAT/gccout/ec618_0h00/ap/bootloader/lib/libstartup.a(system_ec618.o)
 .debug_loc     0x000022fa      0x655 ../../../../../../../PLAT/gccout/ec618_0h00/ap/bootloader/lib/libdriver.a(plat_config.o)
 .debug_loc     0x0000294f       0xcd ../../../../../../../PLAT/gccout/ec618_0h00/ap/bootloader/lib/libdriver.a(hal_misc.o)
 .debug_loc     0x00002a1c     0x17f2 ../../../../../../../PLAT/gccout/ec618_0h00/ap/bootloader/lib/libdriver.a(bsp_usart.o)
 .debug_loc     0x0000420e      0x35e ../../../../../../../PLAT/gccout/ec618_0h00/ap/bootloader/lib/libdriver.a(pad.o)
 .debug_loc     0x0000456c      0x2fe ../../../../../../../PLAT/gccout/ec618_0h00/ap/bootloader/lib/libdriver.a(wdt.o)
 .debug_loc     0x0000486a      0xa6c ../../../../../../../PLAT/gccout/ec618_0h00/ap/bootloader/lib/libdriver.a(clock.o)
 .debug_loc     0x000052d6      0x470 ../../../../../../../PLAT/gccout/ec618_0h00/ap/bootloader/lib/libdriver.a(usbd_multi_usrcfg_custom.o)
 .debug_loc     0x00005746      0x68e ../../../../../../../PLAT/gccout/ec618_0h00/ap/bootloader/lib/libdriver.a(usb_bl_api.o)
 .debug_loc     0x00005dd4      0x2c9 ../../../../../../../PLAT/gccout/ec618_0h00/ap/bootloader/lib/libdriver.a(rndis_protocol.o)
 .debug_loc     0x0000609d      0x464 ../../../../../../../PLAT/gccout/ec618_0h00/ap/bootloader/lib/libdriver.a(function_vcom_inherent.o)
 .debug_loc     0x00006501     0x1718 ../../../../../../../PLAT/prebuild/PLAT/lib/gcc/libdeltapatch.a(bzlib.o)
 .debug_loc     0x00007c19     0x248d ../../../../../../../PLAT/prebuild/PLAT/lib/gcc/libdeltapatch.a(decompress.o)
 .debug_loc     0x0000a0a6      0x77e ../../../../../../../PLAT/prebuild/PLAT/lib/gcc/libdeltapatch.a(huffman.o)
 .debug_loc     0x0000a824     0x251e ../../../../../../../PLAT/prebuild/PLAT/lib/gcc/libdeltapatch.a(patch_main.o)
 .debug_loc     0x0000cd42     0x1fbf ../../../../../../../PLAT/prebuild/PLAT/lib/gcc/libdeltapatch.a(fakefs.o)

.debug_aranges  0x00000000      0xaa8
 .debug_aranges
                0x00000000       0x60 ../../../../../../../PLAT/gccout/ec618_0h00/ap/bootloader/PLAT/project/ec618_0h00/ap/apps/bootloader/code/main/ec_main.o
 .debug_aranges
                0x00000060       0x78 ../../../../../../../PLAT/gccout/ec618_0h00/ap/bootloader/PLAT/project/ec618_0h00/ap/apps/bootloader/code/main/stub_os.o
 .debug_aranges
                0x000000d8       0x30 ../../../../../../../PLAT/gccout/ec618_0h00/ap/bootloader/PLAT/middleware/developed/fota/custom/src/fota_entry.o
 .debug_aranges
                0x00000108       0x38 ../../../../../../../PLAT/gccout/ec618_0h00/ap/bootloader/PLAT/middleware/developed/fota/custom/src/fota_utils.o
 .debug_aranges
                0x00000140       0xc0 ../../../../../../../PLAT/gccout/ec618_0h00/ap/bootloader/PLAT/middleware/developed/fota/custom/src/fota_nvm.o
 .debug_aranges
                0x00000200       0x30 ../../../../../../../PLAT/gccout/ec618_0h00/ap/bootloader/PLAT/middleware/developed/fota/custom/src/fota_mem.o
 .debug_aranges
                0x00000230       0x38 ../../../../../../../PLAT/gccout/ec618_0h00/ap/bootloader/PLAT/middleware/developed/fota/custom/src/fota_chksum.o
 .debug_aranges
                0x00000268       0x40 ../../../../../../../PLAT/gccout/ec618_0h00/ap/bootloader/PLAT/middleware/developed/fota/custom/src/fota_custom.o
 .debug_aranges
                0x000002a8       0x58 ../../../../../../../PLAT/gccout/ec618_0h00/ap/bootloader/lib/libstartup.a(prec_init.o)
 .debug_aranges
                0x00000300       0x70 ../../../../../../../PLAT/gccout/ec618_0h00/ap/bootloader/lib/libstartup.a(syscalls.o)
 .debug_aranges
                0x00000370       0x50 ../../../../../../../PLAT/gccout/ec618_0h00/ap/bootloader/lib/libstartup.a(system_ec618.o)
 .debug_aranges
                0x000003c0       0x20 ../../../../../../../PLAT/gccout/ec618_0h00/ap/bootloader/lib/libstartup.a(startup_ec618_gcc.o)
 .debug_aranges
                0x000003e0       0x58 ../../../../../../../PLAT/gccout/ec618_0h00/ap/bootloader/lib/libdriver.a(plat_config.o)
 .debug_aranges
                0x00000438       0x48 ../../../../../../../PLAT/gccout/ec618_0h00/ap/bootloader/lib/libdriver.a(hal_misc.o)
 .debug_aranges
                0x00000480      0x1d8 ../../../../../../../PLAT/gccout/ec618_0h00/ap/bootloader/lib/libdriver.a(bsp_usart.o)
 .debug_aranges
                0x00000658       0x48 ../../../../../../../PLAT/gccout/ec618_0h00/ap/bootloader/lib/libdriver.a(pad.o)
 .debug_aranges
                0x000006a0       0x70 ../../../../../../../PLAT/gccout/ec618_0h00/ap/bootloader/lib/libdriver.a(wdt.o)
 .debug_aranges
                0x00000710       0xb8 ../../../../../../../PLAT/gccout/ec618_0h00/ap/bootloader/lib/libdriver.a(clock.o)
 .debug_aranges
                0x000007c8       0x80 ../../../../../../../PLAT/gccout/ec618_0h00/ap/bootloader/lib/libdriver.a(usbd_proc_cb_custom.o)
 .debug_aranges
                0x00000848       0x68 ../../../../../../../PLAT/gccout/ec618_0h00/ap/bootloader/lib/libdriver.a(usbd_multi_usrcfg_custom.o)
 .debug_aranges
                0x000008b0       0x48 ../../../../../../../PLAT/gccout/ec618_0h00/ap/bootloader/lib/libdriver.a(usb_bl_api.o)
 .debug_aranges
                0x000008f8       0x70 ../../../../../../../PLAT/gccout/ec618_0h00/ap/bootloader/lib/libdriver.a(rndis_protocol.o)
 .debug_aranges
                0x00000968       0x50 ../../../../../../../PLAT/gccout/ec618_0h00/ap/bootloader/lib/libdriver.a(function_vcom_inherent.o)
 .debug_aranges
                0x000009b8       0x20 ../../../../../../../PLAT/gccout/ec618_0h00/ap/bootloader/lib/libdriver.a(memcpy-armv7m.o)
 .debug_aranges
                0x000009d8       0x20 ../../../../../../../PLAT/prebuild/PLAT/lib/gcc/libdeltapatch.a(bzlib.o)
 .debug_aranges
                0x000009f8       0x18 ../../../../../../../PLAT/prebuild/PLAT/lib/gcc/libdeltapatch.a(crctable.o)
 .debug_aranges
                0x00000a10       0x20 ../../../../../../../PLAT/prebuild/PLAT/lib/gcc/libdeltapatch.a(decompress.o)
 .debug_aranges
                0x00000a30       0x20 ../../../../../../../PLAT/prebuild/PLAT/lib/gcc/libdeltapatch.a(huffman.o)
 .debug_aranges
                0x00000a50       0x18 ../../../../../../../PLAT/prebuild/PLAT/lib/gcc/libdeltapatch.a(randtable.o)
 .debug_aranges
                0x00000a68       0x20 ../../../../../../../PLAT/prebuild/PLAT/lib/gcc/libdeltapatch.a(patch_main.o)
 .debug_aranges
                0x00000a88       0x20 ../../../../../../../PLAT/prebuild/PLAT/lib/gcc/libdeltapatch.a(fakefs.o)

.debug_ranges   0x00000000     0x13e8
 .debug_ranges  0x00000000       0x50 ../../../../../../../PLAT/gccout/ec618_0h00/ap/bootloader/PLAT/project/ec618_0h00/ap/apps/bootloader/code/main/ec_main.o
 .debug_ranges  0x00000050       0x68 ../../../../../../../PLAT/gccout/ec618_0h00/ap/bootloader/PLAT/project/ec618_0h00/ap/apps/bootloader/code/main/stub_os.o
 .debug_ranges  0x000000b8       0x20 ../../../../../../../PLAT/gccout/ec618_0h00/ap/bootloader/PLAT/middleware/developed/fota/custom/src/fota_entry.o
 .debug_ranges  0x000000d8       0x28 ../../../../../../../PLAT/gccout/ec618_0h00/ap/bootloader/PLAT/middleware/developed/fota/custom/src/fota_utils.o
 .debug_ranges  0x00000100       0xb0 ../../../../../../../PLAT/gccout/ec618_0h00/ap/bootloader/PLAT/middleware/developed/fota/custom/src/fota_nvm.o
 .debug_ranges  0x000001b0       0x20 ../../../../../../../PLAT/gccout/ec618_0h00/ap/bootloader/PLAT/middleware/developed/fota/custom/src/fota_mem.o
 .debug_ranges  0x000001d0       0x28 ../../../../../../../PLAT/gccout/ec618_0h00/ap/bootloader/PLAT/middleware/developed/fota/custom/src/fota_chksum.o
 .debug_ranges  0x000001f8       0x30 ../../../../../../../PLAT/gccout/ec618_0h00/ap/bootloader/PLAT/middleware/developed/fota/custom/src/fota_custom.o
 .debug_ranges  0x00000228       0x48 ../../../../../../../PLAT/gccout/ec618_0h00/ap/bootloader/lib/libstartup.a(prec_init.o)
 .debug_ranges  0x00000270       0x60 ../../../../../../../PLAT/gccout/ec618_0h00/ap/bootloader/lib/libstartup.a(syscalls.o)
 .debug_ranges  0x000002d0       0x40 ../../../../../../../PLAT/gccout/ec618_0h00/ap/bootloader/lib/libstartup.a(system_ec618.o)
 .debug_ranges  0x00000310       0x48 ../../../../../../../PLAT/gccout/ec618_0h00/ap/bootloader/lib/libdriver.a(plat_config.o)
 .debug_ranges  0x00000358       0x38 ../../../../../../../PLAT/gccout/ec618_0h00/ap/bootloader/lib/libdriver.a(hal_misc.o)
 .debug_ranges  0x00000390      0x2b8 ../../../../../../../PLAT/gccout/ec618_0h00/ap/bootloader/lib/libdriver.a(bsp_usart.o)
 .debug_ranges  0x00000648       0x38 ../../../../../../../PLAT/gccout/ec618_0h00/ap/bootloader/lib/libdriver.a(pad.o)
 .debug_ranges  0x00000680      0x1c0 ../../../../../../../PLAT/gccout/ec618_0h00/ap/bootloader/lib/libdriver.a(wdt.o)
 .debug_ranges  0x00000840      0x200 ../../../../../../../PLAT/gccout/ec618_0h00/ap/bootloader/lib/libdriver.a(clock.o)
 .debug_ranges  0x00000a40       0x70 ../../../../../../../PLAT/gccout/ec618_0h00/ap/bootloader/lib/libdriver.a(usbd_proc_cb_custom.o)
 .debug_ranges  0x00000ab0       0x58 ../../../../../../../PLAT/gccout/ec618_0h00/ap/bootloader/lib/libdriver.a(usbd_multi_usrcfg_custom.o)
 .debug_ranges  0x00000b08       0x50 ../../../../../../../PLAT/gccout/ec618_0h00/ap/bootloader/lib/libdriver.a(usb_bl_api.o)
 .debug_ranges  0x00000b58       0x60 ../../../../../../../PLAT/gccout/ec618_0h00/ap/bootloader/lib/libdriver.a(rndis_protocol.o)
 .debug_ranges  0x00000bb8       0x40 ../../../../../../../PLAT/gccout/ec618_0h00/ap/bootloader/lib/libdriver.a(function_vcom_inherent.o)
 .debug_ranges  0x00000bf8       0xc8 ../../../../../../../PLAT/prebuild/PLAT/lib/gcc/libdeltapatch.a(bzlib.o)
 .debug_ranges  0x00000cc0      0x3a0 ../../../../../../../PLAT/prebuild/PLAT/lib/gcc/libdeltapatch.a(decompress.o)
 .debug_ranges  0x00001060       0x90 ../../../../../../../PLAT/prebuild/PLAT/lib/gcc/libdeltapatch.a(huffman.o)
 .debug_ranges  0x000010f0      0x220 ../../../../../../../PLAT/prebuild/PLAT/lib/gcc/libdeltapatch.a(patch_main.o)
 .debug_ranges  0x00001310       0xd8 ../../../../../../../PLAT/prebuild/PLAT/lib/gcc/libdeltapatch.a(fakefs.o)

.debug_macro    0x00000000    0x198c6
 .debug_macro   0x00000000      0x44c ../../../../../../../PLAT/gccout/ec618_0h00/ap/bootloader/PLAT/project/ec618_0h00/ap/apps/bootloader/code/main/ec_main.o
 .debug_macro   0x0000044c      0xac6 ../../../../../../../PLAT/gccout/ec618_0h00/ap/bootloader/PLAT/project/ec618_0h00/ap/apps/bootloader/code/main/ec_main.o
 .debug_macro   0x00000f12       0x22 ../../../../../../../PLAT/gccout/ec618_0h00/ap/bootloader/PLAT/project/ec618_0h00/ap/apps/bootloader/code/main/ec_main.o
 .debug_macro   0x00000f34       0x8e ../../../../../../../PLAT/gccout/ec618_0h00/ap/bootloader/PLAT/project/ec618_0h00/ap/apps/bootloader/code/main/ec_main.o
 .debug_macro   0x00000fc2       0x51 ../../../../../../../PLAT/gccout/ec618_0h00/ap/bootloader/PLAT/project/ec618_0h00/ap/apps/bootloader/code/main/ec_main.o
 .debug_macro   0x00001013      0x103 ../../../../../../../PLAT/gccout/ec618_0h00/ap/bootloader/PLAT/project/ec618_0h00/ap/apps/bootloader/code/main/ec_main.o
 .debug_macro   0x00001116       0x6a ../../../../../../../PLAT/gccout/ec618_0h00/ap/bootloader/PLAT/project/ec618_0h00/ap/apps/bootloader/code/main/ec_main.o
 .debug_macro   0x00001180      0x1df ../../../../../../../PLAT/gccout/ec618_0h00/ap/bootloader/PLAT/project/ec618_0h00/ap/apps/bootloader/code/main/ec_main.o
 .debug_macro   0x0000135f       0xb7 ../../../../../../../PLAT/gccout/ec618_0h00/ap/bootloader/PLAT/project/ec618_0h00/ap/apps/bootloader/code/main/ec_main.o
 .debug_macro   0x00001416       0x10 ../../../../../../../PLAT/gccout/ec618_0h00/ap/bootloader/PLAT/project/ec618_0h00/ap/apps/bootloader/code/main/ec_main.o
 .debug_macro   0x00001426       0x22 ../../../../../../../PLAT/gccout/ec618_0h00/ap/bootloader/PLAT/project/ec618_0h00/ap/apps/bootloader/code/main/ec_main.o
 .debug_macro   0x00001448       0x2d ../../../../../../../PLAT/gccout/ec618_0h00/ap/bootloader/PLAT/project/ec618_0h00/ap/apps/bootloader/code/main/ec_main.o
 .debug_macro   0x00001475       0x1c ../../../../../../../PLAT/gccout/ec618_0h00/ap/bootloader/PLAT/project/ec618_0h00/ap/apps/bootloader/code/main/ec_main.o
 .debug_macro   0x00001491      0xe21 ../../../../../../../PLAT/gccout/ec618_0h00/ap/bootloader/PLAT/project/ec618_0h00/ap/apps/bootloader/code/main/ec_main.o
 .debug_macro   0x000022b2       0xe2 ../../../../../../../PLAT/gccout/ec618_0h00/ap/bootloader/PLAT/project/ec618_0h00/ap/apps/bootloader/code/main/ec_main.o
 .debug_macro   0x00002394       0x1c ../../../../../../../PLAT/gccout/ec618_0h00/ap/bootloader/PLAT/project/ec618_0h00/ap/apps/bootloader/code/main/ec_main.o
 .debug_macro   0x000023b0     0x2286 ../../../../../../../PLAT/gccout/ec618_0h00/ap/bootloader/PLAT/project/ec618_0h00/ap/apps/bootloader/code/main/ec_main.o
 .debug_macro   0x00004636       0x52 ../../../../../../../PLAT/gccout/ec618_0h00/ap/bootloader/PLAT/project/ec618_0h00/ap/apps/bootloader/code/main/ec_main.o
 .debug_macro   0x00004688       0x18 ../../../../../../../PLAT/gccout/ec618_0h00/ap/bootloader/PLAT/project/ec618_0h00/ap/apps/bootloader/code/main/ec_main.o
 .debug_macro   0x000046a0       0x3c ../../../../../../../PLAT/gccout/ec618_0h00/ap/bootloader/PLAT/project/ec618_0h00/ap/apps/bootloader/code/main/ec_main.o
 .debug_macro   0x000046dc       0x34 ../../../../../../../PLAT/gccout/ec618_0h00/ap/bootloader/PLAT/project/ec618_0h00/ap/apps/bootloader/code/main/ec_main.o
 .debug_macro   0x00004710       0x16 ../../../../../../../PLAT/gccout/ec618_0h00/ap/bootloader/PLAT/project/ec618_0h00/ap/apps/bootloader/code/main/ec_main.o
 .debug_macro   0x00004726       0x97 ../../../../../../../PLAT/gccout/ec618_0h00/ap/bootloader/PLAT/project/ec618_0h00/ap/apps/bootloader/code/main/ec_main.o
 .debug_macro   0x000047bd      0x356 ../../../../../../../PLAT/gccout/ec618_0h00/ap/bootloader/PLAT/project/ec618_0h00/ap/apps/bootloader/code/main/ec_main.o
 .debug_macro   0x00004b13       0xf6 ../../../../../../../PLAT/gccout/ec618_0h00/ap/bootloader/PLAT/project/ec618_0h00/ap/apps/bootloader/code/main/ec_main.o
 .debug_macro   0x00004c09       0x10 ../../../../../../../PLAT/gccout/ec618_0h00/ap/bootloader/PLAT/project/ec618_0h00/ap/apps/bootloader/code/main/ec_main.o
 .debug_macro   0x00004c19       0x16 ../../../../../../../PLAT/gccout/ec618_0h00/ap/bootloader/PLAT/project/ec618_0h00/ap/apps/bootloader/code/main/ec_main.o
 .debug_macro   0x00004c2f       0x43 ../../../../../../../PLAT/gccout/ec618_0h00/ap/bootloader/PLAT/project/ec618_0h00/ap/apps/bootloader/code/main/ec_main.o
 .debug_macro   0x00004c72       0x34 ../../../../../../../PLAT/gccout/ec618_0h00/ap/bootloader/PLAT/project/ec618_0h00/ap/apps/bootloader/code/main/ec_main.o
 .debug_macro   0x00004ca6       0x10 ../../../../../../../PLAT/gccout/ec618_0h00/ap/bootloader/PLAT/project/ec618_0h00/ap/apps/bootloader/code/main/ec_main.o
 .debug_macro   0x00004cb6       0x58 ../../../../../../../PLAT/gccout/ec618_0h00/ap/bootloader/PLAT/project/ec618_0h00/ap/apps/bootloader/code/main/ec_main.o
 .debug_macro   0x00004d0e       0x71 ../../../../../../../PLAT/gccout/ec618_0h00/ap/bootloader/PLAT/project/ec618_0h00/ap/apps/bootloader/code/main/ec_main.o
 .debug_macro   0x00004d7f       0x16 ../../../../../../../PLAT/gccout/ec618_0h00/ap/bootloader/PLAT/project/ec618_0h00/ap/apps/bootloader/code/main/ec_main.o
 .debug_macro   0x00004d95      0x12a ../../../../../../../PLAT/gccout/ec618_0h00/ap/bootloader/PLAT/project/ec618_0h00/ap/apps/bootloader/code/main/ec_main.o
 .debug_macro   0x00004ebf       0x10 ../../../../../../../PLAT/gccout/ec618_0h00/ap/bootloader/PLAT/project/ec618_0h00/ap/apps/bootloader/code/main/ec_main.o
 .debug_macro   0x00004ecf       0x1c ../../../../../../../PLAT/gccout/ec618_0h00/ap/bootloader/PLAT/project/ec618_0h00/ap/apps/bootloader/code/main/ec_main.o
 .debug_macro   0x00004eeb       0x52 ../../../../../../../PLAT/gccout/ec618_0h00/ap/bootloader/PLAT/project/ec618_0h00/ap/apps/bootloader/code/main/ec_main.o
 .debug_macro   0x00004f3d       0x22 ../../../../../../../PLAT/gccout/ec618_0h00/ap/bootloader/PLAT/project/ec618_0h00/ap/apps/bootloader/code/main/ec_main.o
 .debug_macro   0x00004f5f       0x10 ../../../../../../../PLAT/gccout/ec618_0h00/ap/bootloader/PLAT/project/ec618_0h00/ap/apps/bootloader/code/main/ec_main.o
 .debug_macro   0x00004f6f       0x40 ../../../../../../../PLAT/gccout/ec618_0h00/ap/bootloader/PLAT/project/ec618_0h00/ap/apps/bootloader/code/main/ec_main.o
 .debug_macro   0x00004faf       0xd5 ../../../../../../../PLAT/gccout/ec618_0h00/ap/bootloader/PLAT/project/ec618_0h00/ap/apps/bootloader/code/main/ec_main.o
 .debug_macro   0x00005084       0x1c ../../../../../../../PLAT/gccout/ec618_0h00/ap/bootloader/PLAT/project/ec618_0h00/ap/apps/bootloader/code/main/ec_main.o
 .debug_macro   0x000050a0       0x3d ../../../../../../../PLAT/gccout/ec618_0h00/ap/bootloader/PLAT/project/ec618_0h00/ap/apps/bootloader/code/main/ec_main.o
 .debug_macro   0x000050dd       0x16 ../../../../../../../PLAT/gccout/ec618_0h00/ap/bootloader/PLAT/project/ec618_0h00/ap/apps/bootloader/code/main/ec_main.o
 .debug_macro   0x000050f3      0x145 ../../../../../../../PLAT/gccout/ec618_0h00/ap/bootloader/PLAT/project/ec618_0h00/ap/apps/bootloader/code/main/ec_main.o
 .debug_macro   0x00005238       0xe8 ../../../../../../../PLAT/gccout/ec618_0h00/ap/bootloader/PLAT/project/ec618_0h00/ap/apps/bootloader/code/main/ec_main.o
 .debug_macro   0x00005320       0x1c ../../../../../../../PLAT/gccout/ec618_0h00/ap/bootloader/PLAT/project/ec618_0h00/ap/apps/bootloader/code/main/ec_main.o
 .debug_macro   0x0000533c       0x1c ../../../../../../../PLAT/gccout/ec618_0h00/ap/bootloader/PLAT/project/ec618_0h00/ap/apps/bootloader/code/main/ec_main.o
 .debug_macro   0x00005358      0x18e ../../../../../../../PLAT/gccout/ec618_0h00/ap/bootloader/PLAT/project/ec618_0h00/ap/apps/bootloader/code/main/ec_main.o
 .debug_macro   0x000054e6       0x64 ../../../../../../../PLAT/gccout/ec618_0h00/ap/bootloader/PLAT/project/ec618_0h00/ap/apps/bootloader/code/main/ec_main.o
 .debug_macro   0x0000554a       0x16 ../../../../../../../PLAT/gccout/ec618_0h00/ap/bootloader/PLAT/project/ec618_0h00/ap/apps/bootloader/code/main/ec_main.o
 .debug_macro   0x00005560       0x35 ../../../../../../../PLAT/gccout/ec618_0h00/ap/bootloader/PLAT/project/ec618_0h00/ap/apps/bootloader/code/main/ec_main.o
 .debug_macro   0x00005595       0x22 ../../../../../../../PLAT/gccout/ec618_0h00/ap/bootloader/PLAT/project/ec618_0h00/ap/apps/bootloader/code/main/ec_main.o
 .debug_macro   0x000055b7       0x10 ../../../../../../../PLAT/gccout/ec618_0h00/ap/bootloader/PLAT/project/ec618_0h00/ap/apps/bootloader/code/main/ec_main.o
 .debug_macro   0x000055c7       0x9a ../../../../../../../PLAT/gccout/ec618_0h00/ap/bootloader/PLAT/project/ec618_0h00/ap/apps/bootloader/code/main/ec_main.o
 .debug_macro   0x00005661       0x52 ../../../../../../../PLAT/gccout/ec618_0h00/ap/bootloader/PLAT/project/ec618_0h00/ap/apps/bootloader/code/main/ec_main.o
 .debug_macro   0x000056b3       0x2e ../../../../../../../PLAT/gccout/ec618_0h00/ap/bootloader/PLAT/project/ec618_0h00/ap/apps/bootloader/code/main/ec_main.o
 .debug_macro   0x000056e1       0x7c ../../../../../../../PLAT/gccout/ec618_0h00/ap/bootloader/PLAT/project/ec618_0h00/ap/apps/bootloader/code/main/ec_main.o
 .debug_macro   0x0000575d      0x12d ../../../../../../../PLAT/gccout/ec618_0h00/ap/bootloader/PLAT/project/ec618_0h00/ap/apps/bootloader/code/main/ec_main.o
 .debug_macro   0x0000588a      0x1fb ../../../../../../../PLAT/gccout/ec618_0h00/ap/bootloader/PLAT/project/ec618_0h00/ap/apps/bootloader/code/main/ec_main.o
 .debug_macro   0x00005a85      0x287 ../../../../../../../PLAT/gccout/ec618_0h00/ap/bootloader/PLAT/project/ec618_0h00/ap/apps/bootloader/code/main/ec_main.o
 .debug_macro   0x00005d0c       0x28 ../../../../../../../PLAT/gccout/ec618_0h00/ap/bootloader/PLAT/project/ec618_0h00/ap/apps/bootloader/code/main/ec_main.o
 .debug_macro   0x00005d34       0x47 ../../../../../../../PLAT/gccout/ec618_0h00/ap/bootloader/PLAT/project/ec618_0h00/ap/apps/bootloader/code/main/ec_main.o
 .debug_macro   0x00005d7b       0xeb ../../../../../../../PLAT/gccout/ec618_0h00/ap/bootloader/PLAT/project/ec618_0h00/ap/apps/bootloader/code/main/ec_main.o
 .debug_macro   0x00005e66       0x2e ../../../../../../../PLAT/gccout/ec618_0h00/ap/bootloader/PLAT/project/ec618_0h00/ap/apps/bootloader/code/main/ec_main.o
 .debug_macro   0x00005e94       0x3a ../../../../../../../PLAT/gccout/ec618_0h00/ap/bootloader/PLAT/project/ec618_0h00/ap/apps/bootloader/code/main/ec_main.o
 .debug_macro   0x00005ece       0x10 ../../../../../../../PLAT/gccout/ec618_0h00/ap/bootloader/PLAT/project/ec618_0h00/ap/apps/bootloader/code/main/ec_main.o
 .debug_macro   0x00005ede      0x146 ../../../../../../../PLAT/gccout/ec618_0h00/ap/bootloader/PLAT/project/ec618_0h00/ap/apps/bootloader/code/main/ec_main.o
 .debug_macro   0x00006024      0x14e ../../../../../../../PLAT/gccout/ec618_0h00/ap/bootloader/PLAT/project/ec618_0h00/ap/apps/bootloader/code/main/ec_main.o
 .debug_macro   0x00006172       0xbb ../../../../../../../PLAT/gccout/ec618_0h00/ap/bootloader/PLAT/project/ec618_0h00/ap/apps/bootloader/code/main/ec_main.o
 .debug_macro   0x0000622d       0x10 ../../../../../../../PLAT/gccout/ec618_0h00/ap/bootloader/PLAT/project/ec618_0h00/ap/apps/bootloader/code/main/ec_main.o
 .debug_macro   0x0000623d       0x1f ../../../../../../../PLAT/gccout/ec618_0h00/ap/bootloader/PLAT/project/ec618_0h00/ap/apps/bootloader/code/main/ec_main.o
 .debug_macro   0x0000625c       0x12 ../../../../../../../PLAT/gccout/ec618_0h00/ap/bootloader/PLAT/project/ec618_0h00/ap/apps/bootloader/code/main/ec_main.o
 .debug_macro   0x0000626e      0x29f ../../../../../../../PLAT/gccout/ec618_0h00/ap/bootloader/PLAT/project/ec618_0h00/ap/apps/bootloader/code/main/ec_main.o
 .debug_macro   0x0000650d      0x3e4 ../../../../../../../PLAT/gccout/ec618_0h00/ap/bootloader/PLAT/project/ec618_0h00/ap/apps/bootloader/code/main/ec_main.o
 .debug_macro   0x000068f1       0xb5 ../../../../../../../PLAT/gccout/ec618_0h00/ap/bootloader/PLAT/project/ec618_0h00/ap/apps/bootloader/code/main/ec_main.o
 .debug_macro   0x000069a6       0x8c ../../../../../../../PLAT/gccout/ec618_0h00/ap/bootloader/PLAT/project/ec618_0h00/ap/apps/bootloader/code/main/ec_main.o
 .debug_macro   0x00006a32       0x91 ../../../../../../../PLAT/gccout/ec618_0h00/ap/bootloader/PLAT/project/ec618_0h00/ap/apps/bootloader/code/main/ec_main.o
 .debug_macro   0x00006ac3       0x88 ../../../../../../../PLAT/gccout/ec618_0h00/ap/bootloader/PLAT/project/ec618_0h00/ap/apps/bootloader/code/main/ec_main.o
 .debug_macro   0x00006b4b       0x3a ../../../../../../../PLAT/gccout/ec618_0h00/ap/bootloader/PLAT/project/ec618_0h00/ap/apps/bootloader/code/main/ec_main.o
 .debug_macro   0x00006b85       0x10 ../../../../../../../PLAT/gccout/ec618_0h00/ap/bootloader/PLAT/project/ec618_0h00/ap/apps/bootloader/code/main/ec_main.o
 .debug_macro   0x00006b95       0x39 ../../../../../../../PLAT/gccout/ec618_0h00/ap/bootloader/PLAT/project/ec618_0h00/ap/apps/bootloader/code/main/ec_main.o
 .debug_macro   0x00006bce      0x385 ../../../../../../../PLAT/gccout/ec618_0h00/ap/bootloader/PLAT/project/ec618_0h00/ap/apps/bootloader/code/main/stub_os.o
 .debug_macro   0x00006f53      0xac6 ../../../../../../../PLAT/gccout/ec618_0h00/ap/bootloader/PLAT/project/ec618_0h00/ap/apps/bootloader/code/main/stub_os.o
 .debug_macro   0x00007a19      0x16d ../../../../../../../PLAT/gccout/ec618_0h00/ap/bootloader/PLAT/project/ec618_0h00/ap/apps/bootloader/code/main/stub_os.o
 .debug_macro   0x00007b86       0x10 ../../../../../../../PLAT/gccout/ec618_0h00/ap/bootloader/PLAT/project/ec618_0h00/ap/apps/bootloader/code/main/stub_os.o
 .debug_macro   0x00007b96       0x10 ../../../../../../../PLAT/gccout/ec618_0h00/ap/bootloader/PLAT/project/ec618_0h00/ap/apps/bootloader/code/main/stub_os.o
 .debug_macro   0x00007ba6       0x74 ../../../../../../../PLAT/gccout/ec618_0h00/ap/bootloader/PLAT/project/ec618_0h00/ap/apps/bootloader/code/main/stub_os.o
 .debug_macro   0x00007c1a       0x1c ../../../../../../../PLAT/gccout/ec618_0h00/ap/bootloader/PLAT/project/ec618_0h00/ap/apps/bootloader/code/main/stub_os.o
 .debug_macro   0x00007c36       0xb1 ../../../../../../../PLAT/gccout/ec618_0h00/ap/bootloader/PLAT/project/ec618_0h00/ap/apps/bootloader/code/main/stub_os.o
 .debug_macro   0x00007ce7       0x9b ../../../../../../../PLAT/gccout/ec618_0h00/ap/bootloader/PLAT/project/ec618_0h00/ap/apps/bootloader/code/main/stub_os.o
 .debug_macro   0x00007d82       0x93 ../../../../../../../PLAT/gccout/ec618_0h00/ap/bootloader/PLAT/project/ec618_0h00/ap/apps/bootloader/code/main/stub_os.o
 .debug_macro   0x00007e15       0x8a ../../../../../../../PLAT/gccout/ec618_0h00/ap/bootloader/PLAT/project/ec618_0h00/ap/apps/bootloader/code/main/stub_os.o
 .debug_macro   0x00007e9f       0x76 ../../../../../../../PLAT/gccout/ec618_0h00/ap/bootloader/PLAT/project/ec618_0h00/ap/apps/bootloader/code/main/stub_os.o
 .debug_macro   0x00007f15       0x33 ../../../../../../../PLAT/gccout/ec618_0h00/ap/bootloader/PLAT/project/ec618_0h00/ap/apps/bootloader/code/main/stub_os.o
 .debug_macro   0x00007f48      0x425 ../../../../../../../PLAT/gccout/ec618_0h00/ap/bootloader/PLAT/middleware/developed/fota/custom/src/fota_entry.o
 .debug_macro   0x0000836d      0xac6 ../../../../../../../PLAT/gccout/ec618_0h00/ap/bootloader/PLAT/middleware/developed/fota/custom/src/fota_entry.o
 .debug_macro   0x00008e33       0xd9 ../../../../../../../PLAT/gccout/ec618_0h00/ap/bootloader/PLAT/middleware/developed/fota/custom/src/fota_entry.o
 .debug_macro   0x00008f0c       0x22 ../../../../../../../PLAT/gccout/ec618_0h00/ap/bootloader/PLAT/middleware/developed/fota/custom/src/fota_entry.o
 .debug_macro   0x00008f2e      0x2c6 ../../../../../../../PLAT/gccout/ec618_0h00/ap/bootloader/PLAT/middleware/developed/fota/custom/src/fota_utils.o
 .debug_macro   0x000091f4      0xac6 ../../../../../../../PLAT/gccout/ec618_0h00/ap/bootloader/PLAT/middleware/developed/fota/custom/src/fota_utils.o
 .debug_macro   0x00009cba       0x16 ../../../../../../../PLAT/gccout/ec618_0h00/ap/bootloader/PLAT/middleware/developed/fota/custom/src/fota_utils.o
 .debug_macro   0x00009cd0       0x46 ../../../../../../../PLAT/gccout/ec618_0h00/ap/bootloader/PLAT/middleware/developed/fota/custom/src/fota_utils.o
 .debug_macro   0x00009d16       0x46 ../../../../../../../PLAT/gccout/ec618_0h00/ap/bootloader/PLAT/middleware/developed/fota/custom/src/fota_utils.o
 .debug_macro   0x00009d5c      0x328 ../../../../../../../PLAT/gccout/ec618_0h00/ap/bootloader/PLAT/middleware/developed/fota/custom/src/fota_nvm.o
 .debug_macro   0x0000a084      0xac6 ../../../../../../../PLAT/gccout/ec618_0h00/ap/bootloader/PLAT/middleware/developed/fota/custom/src/fota_nvm.o
 .debug_macro   0x0000ab4a       0x28 ../../../../../../../PLAT/gccout/ec618_0h00/ap/bootloader/PLAT/middleware/developed/fota/custom/src/fota_nvm.o
 .debug_macro   0x0000ab72      0x13e ../../../../../../../PLAT/gccout/ec618_0h00/ap/bootloader/PLAT/middleware/developed/fota/custom/src/fota_mem.o
 .debug_macro   0x0000acb0      0xac6 ../../../../../../../PLAT/gccout/ec618_0h00/ap/bootloader/PLAT/middleware/developed/fota/custom/src/fota_mem.o
 .debug_macro   0x0000b776       0x16 ../../../../../../../PLAT/gccout/ec618_0h00/ap/bootloader/PLAT/middleware/developed/fota/custom/src/fota_mem.o
 .debug_macro   0x0000b78c      0x10e ../../../../../../../PLAT/gccout/ec618_0h00/ap/bootloader/PLAT/middleware/developed/fota/custom/src/fota_mem.o
 .debug_macro   0x0000b89a       0x86 ../../../../../../../PLAT/gccout/ec618_0h00/ap/bootloader/PLAT/middleware/developed/fota/custom/src/fota_mem.o
 .debug_macro   0x0000b920       0x16 ../../../../../../../PLAT/gccout/ec618_0h00/ap/bootloader/PLAT/middleware/developed/fota/custom/src/fota_mem.o
 .debug_macro   0x0000b936       0x29 ../../../../../../../PLAT/gccout/ec618_0h00/ap/bootloader/PLAT/middleware/developed/fota/custom/src/fota_mem.o
 .debug_macro   0x0000b95f      0x2d9 ../../../../../../../PLAT/gccout/ec618_0h00/ap/bootloader/PLAT/middleware/developed/fota/custom/src/fota_chksum.o
 .debug_macro   0x0000bc38      0xac6 ../../../../../../../PLAT/gccout/ec618_0h00/ap/bootloader/PLAT/middleware/developed/fota/custom/src/fota_chksum.o
 .debug_macro   0x0000c6fe       0x32 ../../../../../../../PLAT/gccout/ec618_0h00/ap/bootloader/PLAT/middleware/developed/fota/custom/src/fota_chksum.o
 .debug_macro   0x0000c730      0x2d7 ../../../../../../../PLAT/gccout/ec618_0h00/ap/bootloader/PLAT/middleware/developed/fota/custom/src/fota_custom.o
 .debug_macro   0x0000ca07      0xac6 ../../../../../../../PLAT/gccout/ec618_0h00/ap/bootloader/PLAT/middleware/developed/fota/custom/src/fota_custom.o
 .debug_macro   0x0000d4cd      0x1a0 ../../../../../../../PLAT/gccout/ec618_0h00/ap/bootloader/lib/libstartup.a(prec_init.o)
 .debug_macro   0x0000d66d      0xac6 ../../../../../../../PLAT/gccout/ec618_0h00/ap/bootloader/lib/libstartup.a(prec_init.o)
 .debug_macro   0x0000e133      0x1a8 ../../../../../../../PLAT/gccout/ec618_0h00/ap/bootloader/lib/libstartup.a(syscalls.o)
 .debug_macro   0x0000e2db      0xac6 ../../../../../../../PLAT/gccout/ec618_0h00/ap/bootloader/lib/libstartup.a(syscalls.o)
 .debug_macro   0x0000eda1       0x10 ../../../../../../../PLAT/gccout/ec618_0h00/ap/bootloader/lib/libstartup.a(syscalls.o)
 .debug_macro   0x0000edb1       0x10 ../../../../../../../PLAT/gccout/ec618_0h00/ap/bootloader/lib/libstartup.a(syscalls.o)
 .debug_macro   0x0000edc1       0x10 ../../../../../../../PLAT/gccout/ec618_0h00/ap/bootloader/lib/libstartup.a(syscalls.o)
 .debug_macro   0x0000edd1       0x35 ../../../../../../../PLAT/gccout/ec618_0h00/ap/bootloader/lib/libstartup.a(syscalls.o)
 .debug_macro   0x0000ee06      0x12c ../../../../../../../PLAT/gccout/ec618_0h00/ap/bootloader/lib/libstartup.a(syscalls.o)
 .debug_macro   0x0000ef32      0x405 ../../../../../../../PLAT/gccout/ec618_0h00/ap/bootloader/lib/libstartup.a(system_ec618.o)
 .debug_macro   0x0000f337      0xac6 ../../../../../../../PLAT/gccout/ec618_0h00/ap/bootloader/lib/libstartup.a(system_ec618.o)
 .debug_macro   0x0000fdfd       0x52 ../../../../../../../PLAT/gccout/ec618_0h00/ap/bootloader/lib/libstartup.a(system_ec618.o)
 .debug_macro   0x0000fe4f      0x2de ../../../../../../../PLAT/gccout/ec618_0h00/ap/bootloader/lib/libdriver.a(plat_config.o)
 .debug_macro   0x0001012d      0xac6 ../../../../../../../PLAT/gccout/ec618_0h00/ap/bootloader/lib/libdriver.a(plat_config.o)
 .debug_macro   0x00010bf3       0x22 ../../../../../../../PLAT/gccout/ec618_0h00/ap/bootloader/lib/libdriver.a(plat_config.o)
 .debug_macro   0x00010c15       0x7b ../../../../../../../PLAT/gccout/ec618_0h00/ap/bootloader/lib/libdriver.a(plat_config.o)
 .debug_macro   0x00010c90       0x33 ../../../../../../../PLAT/gccout/ec618_0h00/ap/bootloader/lib/libdriver.a(plat_config.o)
 .debug_macro   0x00010cc3       0x1c ../../../../../../../PLAT/gccout/ec618_0h00/ap/bootloader/lib/libdriver.a(plat_config.o)
 .debug_macro   0x00010cdf      0x16e ../../../../../../../PLAT/gccout/ec618_0h00/ap/bootloader/lib/libdriver.a(hal_misc.o)
 .debug_macro   0x00010e4d      0xac6 ../../../../../../../PLAT/gccout/ec618_0h00/ap/bootloader/lib/libdriver.a(hal_misc.o)
 .debug_macro   0x00011913       0x52 ../../../../../../../PLAT/gccout/ec618_0h00/ap/bootloader/lib/libdriver.a(hal_misc.o)
 .debug_macro   0x00011965      0x433 ../../../../../../../PLAT/gccout/ec618_0h00/ap/bootloader/lib/libdriver.a(bsp_usart.o)
 .debug_macro   0x00011d98      0xac6 ../../../../../../../PLAT/gccout/ec618_0h00/ap/bootloader/lib/libdriver.a(bsp_usart.o)
 .debug_macro   0x0001285e       0x46 ../../../../../../../PLAT/gccout/ec618_0h00/ap/bootloader/lib/libdriver.a(bsp_usart.o)
 .debug_macro   0x000128a4      0x181 ../../../../../../../PLAT/gccout/ec618_0h00/ap/bootloader/lib/libdriver.a(pad.o)
 .debug_macro   0x00012a25      0xac6 ../../../../../../../PLAT/gccout/ec618_0h00/ap/bootloader/lib/libdriver.a(pad.o)
 .debug_macro   0x000134eb      0x181 ../../../../../../../PLAT/gccout/ec618_0h00/ap/bootloader/lib/libdriver.a(wdt.o)
 .debug_macro   0x0001366c      0xac6 ../../../../../../../PLAT/gccout/ec618_0h00/ap/bootloader/lib/libdriver.a(wdt.o)
 .debug_macro   0x00014132      0x1fa ../../../../../../../PLAT/gccout/ec618_0h00/ap/bootloader/lib/libdriver.a(clock.o)
 .debug_macro   0x0001432c      0xac6 ../../../../../../../PLAT/gccout/ec618_0h00/ap/bootloader/lib/libdriver.a(clock.o)
 .debug_macro   0x00014df2      0x221 ../../../../../../../PLAT/gccout/ec618_0h00/ap/bootloader/lib/libdriver.a(usbd_proc_cb_custom.o)
 .debug_macro   0x00015013      0xac6 ../../../../../../../PLAT/gccout/ec618_0h00/ap/bootloader/lib/libdriver.a(usbd_proc_cb_custom.o)
 .debug_macro   0x00015ad9      0x392 ../../../../../../../PLAT/gccout/ec618_0h00/ap/bootloader/lib/libdriver.a(usbd_multi_usrcfg_custom.o)
 .debug_macro   0x00015e6b      0xac6 ../../../../../../../PLAT/gccout/ec618_0h00/ap/bootloader/lib/libdriver.a(usbd_multi_usrcfg_custom.o)
 .debug_macro   0x00016931       0x2e ../../../../../../../PLAT/gccout/ec618_0h00/ap/bootloader/lib/libdriver.a(usbd_multi_usrcfg_custom.o)
 .debug_macro   0x0001695f       0x87 ../../../../../../../PLAT/gccout/ec618_0h00/ap/bootloader/lib/libdriver.a(usbd_multi_usrcfg_custom.o)
 .debug_macro   0x000169e6      0x24e ../../../../../../../PLAT/gccout/ec618_0h00/ap/bootloader/lib/libdriver.a(usb_bl_api.o)
 .debug_macro   0x00016c34      0xac6 ../../../../../../../PLAT/gccout/ec618_0h00/ap/bootloader/lib/libdriver.a(usb_bl_api.o)
 .debug_macro   0x000176fa       0x3a ../../../../../../../PLAT/gccout/ec618_0h00/ap/bootloader/lib/libdriver.a(usb_bl_api.o)
 .debug_macro   0x00017734      0x43b ../../../../../../../PLAT/gccout/ec618_0h00/ap/bootloader/lib/libdriver.a(rndis_protocol.o)
 .debug_macro   0x00017b6f      0xac6 ../../../../../../../PLAT/gccout/ec618_0h00/ap/bootloader/lib/libdriver.a(rndis_protocol.o)
 .debug_macro   0x00018635       0xa8 ../../../../../../../PLAT/gccout/ec618_0h00/ap/bootloader/lib/libdriver.a(rndis_protocol.o)
 .debug_macro   0x000186dd      0x453 ../../../../../../../PLAT/gccout/ec618_0h00/ap/bootloader/lib/libdriver.a(rndis_protocol.o)
 .debug_macro   0x00018b30       0x4a ../../../../../../../PLAT/gccout/ec618_0h00/ap/bootloader/lib/libdriver.a(rndis_protocol.o)
 .debug_macro   0x00018b7a       0x46 ../../../../../../../PLAT/gccout/ec618_0h00/ap/bootloader/lib/libdriver.a(rndis_protocol.o)
 .debug_macro   0x00018bc0      0x198 ../../../../../../../PLAT/gccout/ec618_0h00/ap/bootloader/lib/libdriver.a(function_vcom_inherent.o)
 .debug_macro   0x00018d58      0xac6 ../../../../../../../PLAT/gccout/ec618_0h00/ap/bootloader/lib/libdriver.a(function_vcom_inherent.o)
 .debug_macro   0x0001981e       0x22 ../../../../../../../PLAT/gccout/ec618_0h00/ap/bootloader/lib/libdriver.a(function_vcom_inherent.o)
 .debug_macro   0x00019840       0x64 ../../../../../../../PLAT/gccout/ec618_0h00/ap/bootloader/lib/libdriver.a(function_vcom_inherent.o)
 .debug_macro   0x000198a4       0x22 ../../../../../../../PLAT/gccout/ec618_0h00/ap/bootloader/lib/libdriver.a(function_vcom_inherent.o)

.debug_line     0x00000000    0x15729
 .debug_line    0x00000000      0xc82 ../../../../../../../PLAT/gccout/ec618_0h00/ap/bootloader/PLAT/project/ec618_0h00/ap/apps/bootloader/code/main/ec_main.o
 .debug_line    0x00000c82      0x965 ../../../../../../../PLAT/gccout/ec618_0h00/ap/bootloader/PLAT/project/ec618_0h00/ap/apps/bootloader/code/main/stub_os.o
 .debug_line    0x000015e7      0xb73 ../../../../../../../PLAT/gccout/ec618_0h00/ap/bootloader/PLAT/middleware/developed/fota/custom/src/fota_entry.o
 .debug_line    0x0000215a      0x898 ../../../../../../../PLAT/gccout/ec618_0h00/ap/bootloader/PLAT/middleware/developed/fota/custom/src/fota_utils.o
 .debug_line    0x000029f2      0xf2f ../../../../../../../PLAT/gccout/ec618_0h00/ap/bootloader/PLAT/middleware/developed/fota/custom/src/fota_nvm.o
 .debug_line    0x00003921      0x3b0 ../../../../../../../PLAT/gccout/ec618_0h00/ap/bootloader/PLAT/middleware/developed/fota/custom/src/fota_mem.o
 .debug_line    0x00003cd1      0x795 ../../../../../../../PLAT/gccout/ec618_0h00/ap/bootloader/PLAT/middleware/developed/fota/custom/src/fota_chksum.o
 .debug_line    0x00004466      0x7c8 ../../../../../../../PLAT/gccout/ec618_0h00/ap/bootloader/PLAT/middleware/developed/fota/custom/src/fota_custom.o
 .debug_line    0x00004c2e      0x621 ../../../../../../../PLAT/gccout/ec618_0h00/ap/bootloader/lib/libstartup.a(prec_init.o)
 .debug_line    0x0000524f      0x526 ../../../../../../../PLAT/gccout/ec618_0h00/ap/bootloader/lib/libstartup.a(syscalls.o)
 .debug_line    0x00005775      0xb93 ../../../../../../../PLAT/gccout/ec618_0h00/ap/bootloader/lib/libstartup.a(system_ec618.o)
 .debug_line    0x00006308       0x9d ../../../../../../../PLAT/gccout/ec618_0h00/ap/bootloader/lib/libstartup.a(startup_ec618_gcc.o)
 .debug_line    0x000063a5      0xc66 ../../../../../../../PLAT/gccout/ec618_0h00/ap/bootloader/lib/libdriver.a(plat_config.o)
 .debug_line    0x0000700b      0x5b4 ../../../../../../../PLAT/gccout/ec618_0h00/ap/bootloader/lib/libdriver.a(hal_misc.o)
 .debug_line    0x000075bf     0x2198 ../../../../../../../PLAT/gccout/ec618_0h00/ap/bootloader/lib/libdriver.a(bsp_usart.o)
 .debug_line    0x00009757      0x6b7 ../../../../../../../PLAT/gccout/ec618_0h00/ap/bootloader/lib/libdriver.a(pad.o)
 .debug_line    0x00009e0e      0x90a ../../../../../../../PLAT/gccout/ec618_0h00/ap/bootloader/lib/libdriver.a(wdt.o)
 .debug_line    0x0000a718      0xd0c ../../../../../../../PLAT/gccout/ec618_0h00/ap/bootloader/lib/libdriver.a(clock.o)
 .debug_line    0x0000b424      0x50a ../../../../../../../PLAT/gccout/ec618_0h00/ap/bootloader/lib/libdriver.a(usbd_proc_cb_custom.o)
 .debug_line    0x0000b92e      0xd2d ../../../../../../../PLAT/gccout/ec618_0h00/ap/bootloader/lib/libdriver.a(usbd_multi_usrcfg_custom.o)
 .debug_line    0x0000c65b      0x7c0 ../../../../../../../PLAT/gccout/ec618_0h00/ap/bootloader/lib/libdriver.a(usb_bl_api.o)
 .debug_line    0x0000ce1b      0xc4b ../../../../../../../PLAT/gccout/ec618_0h00/ap/bootloader/lib/libdriver.a(rndis_protocol.o)
 .debug_line    0x0000da66      0x918 ../../../../../../../PLAT/gccout/ec618_0h00/ap/bootloader/lib/libdriver.a(function_vcom_inherent.o)
 .debug_line    0x0000e37e       0xc5 ../../../../../../../PLAT/gccout/ec618_0h00/ap/bootloader/lib/libdriver.a(memcpy-armv7m.o)
 .debug_line    0x0000e443     0x1840 ../../../../../../../PLAT/prebuild/PLAT/lib/gcc/libdeltapatch.a(bzlib.o)
 .debug_line    0x0000fc83       0x4f ../../../../../../../PLAT/prebuild/PLAT/lib/gcc/libdeltapatch.a(crctable.o)
 .debug_line    0x0000fcd2     0x2877 ../../../../../../../PLAT/prebuild/PLAT/lib/gcc/libdeltapatch.a(decompress.o)
 .debug_line    0x00012549      0x66a ../../../../../../../PLAT/prebuild/PLAT/lib/gcc/libdeltapatch.a(huffman.o)
 .debug_line    0x00012bb3       0x50 ../../../../../../../PLAT/prebuild/PLAT/lib/gcc/libdeltapatch.a(randtable.o)
 .debug_line    0x00012c03     0x185b ../../../../../../../PLAT/prebuild/PLAT/lib/gcc/libdeltapatch.a(patch_main.o)
 .debug_line    0x0001445e     0x12cb ../../../../../../../PLAT/prebuild/PLAT/lib/gcc/libdeltapatch.a(fakefs.o)

.debug_str      0x00000000    0x35e51
 .debug_str     0x00000000    0x26898 ../../../../../../../PLAT/gccout/ec618_0h00/ap/bootloader/PLAT/project/ec618_0h00/ap/apps/bootloader/code/main/ec_main.o
                              0x26e6d (size before relaxing)
 .debug_str     0x00026898     0x230a ../../../../../../../PLAT/gccout/ec618_0h00/ap/bootloader/PLAT/project/ec618_0h00/ap/apps/bootloader/code/main/stub_os.o
                              0x23fe0 (size before relaxing)
 .debug_str     0x00028ba2      0x978 ../../../../../../../PLAT/gccout/ec618_0h00/ap/bootloader/PLAT/middleware/developed/fota/custom/src/fota_entry.o
                              0x26b28 (size before relaxing)
 .debug_str     0x0002951a      0x6dc ../../../../../../../PLAT/gccout/ec618_0h00/ap/bootloader/PLAT/middleware/developed/fota/custom/src/fota_utils.o
                              0x1cfbb (size before relaxing)
 .debug_str     0x00029bf6      0x89c ../../../../../../../PLAT/gccout/ec618_0h00/ap/bootloader/PLAT/middleware/developed/fota/custom/src/fota_nvm.o
                              0x1e267 (size before relaxing)
 .debug_str     0x0002a492      0x157 ../../../../../../../PLAT/gccout/ec618_0h00/ap/bootloader/PLAT/middleware/developed/fota/custom/src/fota_mem.o
                               0x7050 (size before relaxing)
 .debug_str     0x0002a5e9      0x1d3 ../../../../../../../PLAT/gccout/ec618_0h00/ap/bootloader/PLAT/middleware/developed/fota/custom/src/fota_chksum.o
                              0x1cc55 (size before relaxing)
 .debug_str     0x0002a7bc      0x1e1 ../../../../../../../PLAT/gccout/ec618_0h00/ap/bootloader/PLAT/middleware/developed/fota/custom/src/fota_custom.o
                              0x1d60c (size before relaxing)
 .debug_str     0x0002a99d      0x42f ../../../../../../../PLAT/gccout/ec618_0h00/ap/bootloader/lib/libstartup.a(prec_init.o)
                              0x1b6d5 (size before relaxing)
 .debug_str     0x0002adcc      0x728 ../../../../../../../PLAT/gccout/ec618_0h00/ap/bootloader/lib/libstartup.a(syscalls.o)
                               0x759f (size before relaxing)
 .debug_str     0x0002b4f4      0x2f9 ../../../../../../../PLAT/gccout/ec618_0h00/ap/bootloader/lib/libstartup.a(system_ec618.o)
                              0x26b04 (size before relaxing)
 .debug_str     0x0002b7ed       0x66 ../../../../../../../PLAT/gccout/ec618_0h00/ap/bootloader/lib/libstartup.a(startup_ec618_gcc.o)
                                 0xba (size before relaxing)
 .debug_str     0x0002b853      0xe86 ../../../../../../../PLAT/gccout/ec618_0h00/ap/bootloader/lib/libdriver.a(plat_config.o)
                              0x1f9b3 (size before relaxing)
 .debug_str     0x0002c6d9      0x13c ../../../../../../../PLAT/gccout/ec618_0h00/ap/bootloader/lib/libdriver.a(hal_misc.o)
                              0x1a0b5 (size before relaxing)
 .debug_str     0x0002c815     0x215c ../../../../../../../PLAT/gccout/ec618_0h00/ap/bootloader/lib/libdriver.a(bsp_usart.o)
                              0x28cb1 (size before relaxing)
 .debug_str     0x0002e971      0x153 ../../../../../../../PLAT/gccout/ec618_0h00/ap/bootloader/lib/libdriver.a(pad.o)
                              0x1afc2 (size before relaxing)
 .debug_str     0x0002eac4      0x142 ../../../../../../../PLAT/gccout/ec618_0h00/ap/bootloader/lib/libdriver.a(wdt.o)
                              0x1af17 (size before relaxing)
 .debug_str     0x0002ec06      0x9ff ../../../../../../../PLAT/gccout/ec618_0h00/ap/bootloader/lib/libdriver.a(clock.o)
                              0x1d3f2 (size before relaxing)
 .debug_str     0x0002f605      0x51c ../../../../../../../PLAT/gccout/ec618_0h00/ap/bootloader/lib/libdriver.a(usbd_proc_cb_custom.o)
                               0x791a (size before relaxing)
 .debug_str     0x0002fb21      0xeae ../../../../../../../PLAT/gccout/ec618_0h00/ap/bootloader/lib/libdriver.a(usbd_multi_usrcfg_custom.o)
                              0x22078 (size before relaxing)
 .debug_str     0x000309cf      0x30b ../../../../../../../PLAT/gccout/ec618_0h00/ap/bootloader/lib/libdriver.a(usb_bl_api.o)
                               0x849b (size before relaxing)
 .debug_str     0x00030cda     0x279c ../../../../../../../PLAT/gccout/ec618_0h00/ap/bootloader/lib/libdriver.a(rndis_protocol.o)
                              0x28869 (size before relaxing)
 .debug_str     0x00033476      0xe01 ../../../../../../../PLAT/gccout/ec618_0h00/ap/bootloader/lib/libdriver.a(function_vcom_inherent.o)
                               0x862e (size before relaxing)
 .debug_str     0x00034277       0x47 ../../../../../../../PLAT/gccout/ec618_0h00/ap/bootloader/lib/libdriver.a(memcpy-armv7m.o)
                                 0xa9 (size before relaxing)
 .debug_str     0x000342be      0xb78 ../../../../../../../PLAT/prebuild/PLAT/lib/gcc/libdeltapatch.a(bzlib.o)
                                0xd9e (size before relaxing)
 .debug_str     0x00034e36       0x1c ../../../../../../../PLAT/prebuild/PLAT/lib/gcc/libdeltapatch.a(crctable.o)
                                0x19f (size before relaxing)
 .debug_str     0x00034e52       0x81 ../../../../../../../PLAT/prebuild/PLAT/lib/gcc/libdeltapatch.a(decompress.o)
                                0x9c7 (size before relaxing)
 .debug_str     0x00034ed3       0x6b ../../../../../../../PLAT/prebuild/PLAT/lib/gcc/libdeltapatch.a(huffman.o)
                                0x269 (size before relaxing)
 .debug_str     0x00034f3e       0x1d ../../../../../../../PLAT/prebuild/PLAT/lib/gcc/libdeltapatch.a(randtable.o)
                                0x19a (size before relaxing)
 .debug_str     0x00034f5b      0x92b ../../../../../../../PLAT/prebuild/PLAT/lib/gcc/libdeltapatch.a(patch_main.o)
                                0xc5b (size before relaxing)
 .debug_str     0x00035886      0x5cb ../../../../../../../PLAT/prebuild/PLAT/lib/gcc/libdeltapatch.a(fakefs.o)
                                0x9a7 (size before relaxing)

Cross Reference Table

Symbol                                            File
A2CIpcInit                                        ../../../../../../../PLAT/prebuild/PLAT/lib/gcc/libosa.a(ostask.o)
A2CSendIpcMsg                                     ../../../../../../../PLAT/prebuild/PLAT/lib/gcc/libdriver_private_bl.a(acmsgtype.o)
AON_StaticANA_USBPwrUpDly_QkWkupCfg               ../../../../../../../PLAT/prebuild/PLAT/lib/gcc/libusbbl_priv.a(usbc_bsp.o)
ARM_USART_GetVersion                              ../../../../../../../PLAT/gccout/ec618_0h00/ap/bootloader/lib/libdriver.a(bsp_usart.o)
AonRegBcLdCfg                                     ../../../../../../../PLAT/prebuild/PLAT/lib/gcc/libdriver_private_bl.a(aonreg.o)
AonRegChgnDivRatio                                ../../../../../../../PLAT/prebuild/PLAT/lib/gcc/libdriver_private_bl.a(aonreg.o)
AonRegForceAonLdoOffWithoutAONIO                  ../../../../../../../PLAT/prebuild/PLAT/lib/gcc/libdriver_private_bl.a(aonreg.o)
AonRegGetAONDeepSlpTimer                          ../../../../../../../PLAT/prebuild/PLAT/lib/gcc/libdriver_private_bl.a(aonreg.o)
AonRegGetAPLLBootFlag                             ../../../../../../../PLAT/prebuild/PLAT/lib/gcc/libdriver_private_bl.a(aonreg.o)
AonRegGetAonTimerInfo                             ../../../../../../../PLAT/prebuild/PLAT/lib/gcc/libdriver_private_bl.a(aonreg.o)
AonRegGetCPWakeupBCTarget                         ../../../../../../../PLAT/prebuild/PLAT/lib/gcc/libdriver_private_bl.a(aonreg.o)
AonRegGetPSCounter                                ../../../../../../../PLAT/prebuild/PLAT/lib/gcc/libdriver_private_bl.a(aonreg.o)
AonRegGetRamState                                 ../../../../../../../PLAT/prebuild/PLAT/lib/gcc/libdriver_private_bl.a(aonreg.o)
AonRegGetResetReason                              ../../../../../../../PLAT/prebuild/PLAT/lib/gcc/libdriver_private_bl.a(aonreg.o)
                                                  ../../../../../../../PLAT/prebuild/PLAT/lib/gcc/libdriver_private_bl.a(pwrkey.o)
AonRegGetSimLatchState                            ../../../../../../../PLAT/prebuild/PLAT/lib/gcc/libdriver_private_bl.a(aonreg.o)
AonRegGetWakeupPadEnable                          ../../../../../../../PLAT/prebuild/PLAT/lib/gcc/libdriver_private_bl.a(aonreg.o)
AonRegSetAONDeepSlpTimer                          ../../../../../../../PLAT/prebuild/PLAT/lib/gcc/libdriver_private_bl.a(aonreg.o)
AonRegSetAonTimerInfo                             ../../../../../../../PLAT/prebuild/PLAT/lib/gcc/libdriver_private_bl.a(aonreg.o)
AonRegSetCPWakeupBCTarget                         ../../../../../../../PLAT/prebuild/PLAT/lib/gcc/libdriver_private_bl.a(aonreg.o)
AonRegSetLdoSimCfg                                ../../../../../../../PLAT/prebuild/PLAT/lib/gcc/libdriver_private_bl.a(aonreg.o)
AonRegSetPSCounter                                ../../../../../../../PLAT/prebuild/PLAT/lib/gcc/libdriver_private_bl.a(aonreg.o)
AonRegSetRamState                                 ../../../../../../../PLAT/prebuild/PLAT/lib/gcc/libdriver_private_bl.a(aonreg.o)
AonRegSetScWakeup                                 ../../../../../../../PLAT/prebuild/PLAT/lib/gcc/libdriver_private_bl.a(aonreg.o)
AonRegSetSimLatchEnable                           ../../../../../../../PLAT/prebuild/PLAT/lib/gcc/libdriver_private_bl.a(aonreg.o)
AonRegSetWakeupPadEnable                          ../../../../../../../PLAT/prebuild/PLAT/lib/gcc/libdriver_private_bl.a(aonreg.o)
AonRegSlowcntRead                                 ../../../../../../../PLAT/prebuild/PLAT/lib/gcc/libdriver_private_bl.a(aonreg.o)
AonRegSlowcntReadFlash                            ../../../../../../../PLAT/prebuild/PLAT/lib/gcc/libdriver_private_bl.a(aonreg.o)
AonRegWakeupTimeConfig                            ../../../../../../../PLAT/prebuild/PLAT/lib/gcc/libdriver_private_bl.a(aonreg.o)
AsnDeAllocIEMemory                                ../../../../../../../PLAT/prebuild/PLAT/lib/gcc/libosa.a(asn1util.o)
AsnDeBackupExtensionEndPost                       ../../../../../../../PLAT/prebuild/PLAT/lib/gcc/libosa.a(asn1util.o)
AsnDeBitsValue                                    ../../../../../../../PLAT/prebuild/PLAT/lib/gcc/libosa.a(asn1util.o)
AsnDeChoiceTag                                    ../../../../../../../PLAT/prebuild/PLAT/lib/gcc/libosa.a(asn1util.o)
AsnDeConstLenBitStr                               ../../../../../../../PLAT/prebuild/PLAT/lib/gcc/libosa.a(asn1util.o)
AsnDeConstLenOctStr                               ../../../../../../../PLAT/prebuild/PLAT/lib/gcc/libosa.a(asn1util.o)
AsnDeEnumerated                                   ../../../../../../../PLAT/prebuild/PLAT/lib/gcc/libosa.a(asn1util.o)
AsnDeExtensionNum                                 ../../../../../../../PLAT/prebuild/PLAT/lib/gcc/libosa.a(asn1util.o)
AsnDeGotoExtensionEndPost                         ../../../../../../../PLAT/prebuild/PLAT/lib/gcc/libosa.a(asn1util.o)
AsnDeInteger                                      ../../../../../../../PLAT/prebuild/PLAT/lib/gcc/libosa.a(asn1util.o)
AsnDeLenWithLimitedRange                          ../../../../../../../PLAT/prebuild/PLAT/lib/gcc/libosa.a(asn1util.o)
AsnDeLenWithUnLimitedRange                        ../../../../../../../PLAT/prebuild/PLAT/lib/gcc/libosa.a(asn1util.o)
AsnDeLimitedLenBitStr                             ../../../../../../../PLAT/prebuild/PLAT/lib/gcc/libosa.a(asn1util.o)
AsnDeLimitedLenOctStr                             ../../../../../../../PLAT/prebuild/PLAT/lib/gcc/libosa.a(asn1util.o)
AsnDeSkipUnsupportedExtension                     ../../../../../../../PLAT/prebuild/PLAT/lib/gcc/libosa.a(asn1util.o)
AsnDeUnLimitedLenBitStr                           ../../../../../../../PLAT/prebuild/PLAT/lib/gcc/libosa.a(asn1util.o)
AsnDeUnLimitedLenOctStr                           ../../../../../../../PLAT/prebuild/PLAT/lib/gcc/libosa.a(asn1util.o)
AsnDeUnLimitedLenOctStrDedicatedInfoNAS           ../../../../../../../PLAT/prebuild/PLAT/lib/gcc/libosa.a(asn1util.o)
AsnDeUnsignedInteger                              ../../../../../../../PLAT/prebuild/PLAT/lib/gcc/libosa.a(asn1util.o)
AsnEnBitsValue                                    ../../../../../../../PLAT/prebuild/PLAT/lib/gcc/libosa.a(asn1util.o)
AsnEnChoiceTag                                    ../../../../../../../PLAT/prebuild/PLAT/lib/gcc/libosa.a(asn1util.o)
AsnEnConstLenBitStr                               ../../../../../../../PLAT/prebuild/PLAT/lib/gcc/libosa.a(asn1util.o)
AsnEnConstLenOctStr                               ../../../../../../../PLAT/prebuild/PLAT/lib/gcc/libosa.a(asn1util.o)
AsnEnEnumerated                                   ../../../../../../../PLAT/prebuild/PLAT/lib/gcc/libosa.a(asn1util.o)
AsnEnExtensionNum                                 ../../../../../../../PLAT/prebuild/PLAT/lib/gcc/libosa.a(asn1util.o)
AsnEnFillLenBufForExtension                       ../../../../../../../PLAT/prebuild/PLAT/lib/gcc/libosa.a(asn1util.o)
AsnEnFillPaddingForExtension                      ../../../../../../../PLAT/prebuild/PLAT/lib/gcc/libosa.a(asn1util.o)
AsnEnInteger                                      ../../../../../../../PLAT/prebuild/PLAT/lib/gcc/libosa.a(asn1util.o)
AsnEnLenWithLimitedRange                          ../../../../../../../PLAT/prebuild/PLAT/lib/gcc/libosa.a(asn1util.o)
AsnEnLenWithUnLimitedRange                        ../../../../../../../PLAT/prebuild/PLAT/lib/gcc/libosa.a(asn1util.o)
AsnEnLimitedLenBitStr                             ../../../../../../../PLAT/prebuild/PLAT/lib/gcc/libosa.a(asn1util.o)
AsnEnLimitedLenOctStr                             ../../../../../../../PLAT/prebuild/PLAT/lib/gcc/libosa.a(asn1util.o)
AsnEnRsvdLenBufForExtension                       ../../../../../../../PLAT/prebuild/PLAT/lib/gcc/libosa.a(asn1util.o)
AsnEnUnLimitedLenBitStr                           ../../../../../../../PLAT/prebuild/PLAT/lib/gcc/libosa.a(asn1util.o)
AsnEnUnLimitedLenOctStr                           ../../../../../../../PLAT/prebuild/PLAT/lib/gcc/libosa.a(asn1util.o)
AsnEnUnLimitedLenOctStrDedicatedInfoNAS           ../../../../../../../PLAT/prebuild/PLAT/lib/gcc/libosa.a(asn1util.o)
AsnEnUnsignedInteger                              ../../../../../../../PLAT/prebuild/PLAT/lib/gcc/libosa.a(asn1util.o)
AsnGetDecodeResult                                ../../../../../../../PLAT/prebuild/PLAT/lib/gcc/libosa.a(asn1util.o)
AsnGetEncodedData                                 ../../../../../../../PLAT/prebuild/PLAT/lib/gcc/libosa.a(asn1util.o)
AsnInitDecodeContext                              ../../../../../../../PLAT/prebuild/PLAT/lib/gcc/libosa.a(asn1util.o)
AsnInitEncodeContext                              ../../../../../../../PLAT/prebuild/PLAT/lib/gcc/libosa.a(asn1util.o)
BRInfoInit                                        ../../../../../../../PLAT/prebuild/PLAT/lib/gcc/libbootloader.a(bl_bsp.o)
BSP_CustomInit                                    ../../../../../../../PLAT/prebuild/PLAT/lib/gcc/libosa.a(ostask.o)
BSP_DeInit                                        ../../../../../../../PLAT/prebuild/PLAT/lib/gcc/libbootloader.a(bl_bsp.o)
                                                  ../../../../../../../PLAT/gccout/ec618_0h00/ap/bootloader/PLAT/project/ec618_0h00/ap/apps/bootloader/code/main/ec_main.o
BSP_FlashNVICSwReset                              ../../../../../../../PLAT/prebuild/PLAT/lib/gcc/libdriver_private_bl.a(flash.o)
BSP_FlashSetGvarforSlp2                           ../../../../../../../PLAT/prebuild/PLAT/lib/gcc/libdriver_private_bl.a(flash.o)
BSP_GetPlatConfigItemValue                        ../../../../../../../PLAT/gccout/ec618_0h00/ap/bootloader/lib/libdriver.a(plat_config.o)
                                                  ../../../../../../../PLAT/prebuild/PLAT/lib/gcc/libusbbl_priv.a(usbd_multi_usrcfg_lib.o)
                                                  ../../../../../../../PLAT/gccout/ec618_0h00/ap/bootloader/PLAT/project/ec618_0h00/ap/apps/bootloader/code/main/ec_main.o
BSP_GetRawFlashPlatConfig                         ../../../../../../../PLAT/gccout/ec618_0h00/ap/bootloader/lib/libdriver.a(plat_config.o)
BSP_Init                                          ../../../../../../../PLAT/prebuild/PLAT/lib/gcc/libbootloader.a(bl_bsp.o)
                                                  ../../../../../../../PLAT/gccout/ec618_0h00/ap/bootloader/PLAT/project/ec618_0h00/ap/apps/bootloader/code/main/ec_main.o
BSP_InitHook                                      ../../../../../../../PLAT/gccout/ec618_0h00/ap/bootloader/PLAT/project/ec618_0h00/ap/apps/bootloader/code/main/ec_main.o
                                                  ../../../../../../../PLAT/prebuild/PLAT/lib/gcc/libbootloader.a(bl_bsp.o)
BSP_LoadPlatConfigFromFs                          ../../../../../../../PLAT/prebuild/PLAT/lib/gcc/libosa.a(ostask.o)
BSP_LoadPlatConfigFromRawFlash                    ../../../../../../../PLAT/gccout/ec618_0h00/ap/bootloader/lib/libdriver.a(plat_config.o)
                                                  ../../../../../../../PLAT/gccout/ec618_0h00/ap/bootloader/PLAT/project/ec618_0h00/ap/apps/bootloader/code/main/ec_main.o
BSP_QSPI_Erase_64KBlock                           ../../../../../../../PLAT/prebuild/PLAT/lib/gcc/libdriver_private_bl.a(flash.o)
BSP_QSPI_Erase_Block                              ../../../../../../../PLAT/prebuild/PLAT/lib/gcc/libdriver_private_bl.a(flash.o)
BSP_QSPI_Erase_Chip                               ../../../../../../../PLAT/prebuild/PLAT/lib/gcc/libdriver_private_bl.a(flash.o)
BSP_QSPI_Erase_Cmd                                ../../../../../../../PLAT/prebuild/PLAT/lib/gcc/libdriver_private_bl.a(flash.o)
BSP_QSPI_Erase_Sector                             ../../../../../../../PLAT/prebuild/PLAT/lib/gcc/libdriver_private_bl.a(flash.o)
                                                  ../../../../../../../PLAT/prebuild/PLAT/lib/gcc/libdeltapatch.a(fakefs.o)
                                                  ../../../../../../../PLAT/gccout/ec618_0h00/ap/bootloader/lib/libdriver.a(plat_config.o)
BSP_QSPI_Erase_Sector_Safe                        ../../../../../../../PLAT/prebuild/PLAT/lib/gcc/libdriver_private_bl.a(flash.o)
                                                  ../../../../../../../PLAT/gccout/ec618_0h00/ap/bootloader/PLAT/middleware/developed/fota/custom/src/fota_nvm.o
BSP_QSPI_GetInfo                                  ../../../../../../../PLAT/prebuild/PLAT/lib/gcc/libdriver_private_bl.a(flash.o)
BSP_QSPI_GetStatus                                ../../../../../../../PLAT/prebuild/PLAT/lib/gcc/libdriver_private_bl.a(flash.o)
BSP_QSPI_Init                                     ../../../../../../../PLAT/prebuild/PLAT/lib/gcc/libdriver_private_bl.a(flash.o)
                                                  ../../../../../../../PLAT/prebuild/PLAT/lib/gcc/libbootloader.a(bl_bsp.o)
BSP_QSPI_Read                                     ../../../../../../../PLAT/prebuild/PLAT/lib/gcc/libdriver_private_bl.a(flash.o)
                                                  ../../../../../../../PLAT/prebuild/PLAT/lib/gcc/libbootloader.a(image.o)
BSP_QSPI_Read_Status_Reg                          ../../../../../../../PLAT/prebuild/PLAT/lib/gcc/libdriver_private_bl.a(flash.o)
BSP_QSPI_Reg_Operation_Cb                         ../../../../../../../PLAT/prebuild/PLAT/lib/gcc/libdriver_private_bl.a(flash.o)
BSP_QSPI_SWReset                                  ../../../../../../../PLAT/prebuild/PLAT/lib/gcc/libdriver_private_bl.a(flash.o)
                                                  ../../../../../../../PLAT/prebuild/PLAT/lib/gcc/libbootloader.a(bl_bsp.o)
BSP_QSPI_Set_Clk_68M                              ../../../../../../../PLAT/prebuild/PLAT/lib/gcc/libbootloader.a(bl_bsp.o)
BSP_QSPI_Write                                    ../../../../../../../PLAT/prebuild/PLAT/lib/gcc/libdriver_private_bl.a(flash.o)
                                                  ../../../../../../../PLAT/prebuild/PLAT/lib/gcc/libdeltapatch.a(fakefs.o)
                                                  ../../../../../../../PLAT/gccout/ec618_0h00/ap/bootloader/lib/libdriver.a(plat_config.o)
                                                  ../../../../../../../PLAT/gccout/ec618_0h00/ap/bootloader/PLAT/middleware/developed/fota/custom/src/fota_nvm.o
BSP_QSPI_Write_Exception                          ../../../../../../../PLAT/prebuild/PLAT/lib/gcc/libdriver_private_bl.a(flash.o)
BSP_QSPI_Write_Gran_Cmd                           ../../../../../../../PLAT/prebuild/PLAT/lib/gcc/libdriver_private_bl.a(flash.o)
BSP_QSPI_Write_Status_Reg                         ../../../../../../../PLAT/prebuild/PLAT/lib/gcc/libdriver_private_bl.a(flash.o)
BSP_QSPI_Write_Volatile_Status_Reg                ../../../../../../../PLAT/prebuild/PLAT/lib/gcc/libdriver_private_bl.a(flash.o)
BSP_QSPI_XIP_Mode_Disable                         ../../../../../../../PLAT/prebuild/PLAT/lib/gcc/libdriver_private_bl.a(flash.o)
BSP_QSPI_XIP_Mode_Enable                          ../../../../../../../PLAT/prebuild/PLAT/lib/gcc/libdriver_private_bl.a(flash.o)
                                                  ../../../../../../../PLAT/prebuild/PLAT/lib/gcc/libbootloader.a(bl_bsp.o)
BSP_QSPI_XIP_Read                                 ../../../../../../../PLAT/prebuild/PLAT/lib/gcc/libdriver_private_bl.a(flash.o)
                                                  ../../../../../../../PLAT/prebuild/PLAT/lib/gcc/libbootloader.a(image.o)
                                                  ../../../../../../../PLAT/gccout/ec618_0h00/ap/bootloader/PLAT/middleware/developed/fota/custom/src/fota_nvm.o
BSP_SavePlatConfigToRawFlash                      ../../../../../../../PLAT/gccout/ec618_0h00/ap/bootloader/lib/libdriver.a(plat_config.o)
BSP_SetFsPorDefaultValue                          ../../../../../../../PLAT/prebuild/PLAT/lib/gcc/libosa.a(ostask.o)
BSP_SetPlatConfigItemValue                        ../../../../../../../PLAT/gccout/ec618_0h00/ap/bootloader/lib/libdriver.a(plat_config.o)
BSP_URCSetCfg                                     ../../../../../../../PLAT/prebuild/PLAT/lib/gcc/libbootloader.a(bl_bsp.o)
                                                  ../../../../../../../PLAT/gccout/ec618_0h00/ap/bootloader/lib/libdriver.a(usb_bl_test.o)
                                                  ../../../../../../../PLAT/gccout/ec618_0h00/ap/bootloader/PLAT/project/ec618_0h00/ap/apps/bootloader/code/main/ec_main.o
BSP_UsbInit                                       ../../../../../../../PLAT/prebuild/PLAT/lib/gcc/libbootloader.a(bl_bsp.o)
                                                  ../../../../../../../PLAT/gccout/ec618_0h00/ap/bootloader/lib/libdriver.a(usb_bl_test.o)
                                                  ../../../../../../../PLAT/gccout/ec618_0h00/ap/bootloader/PLAT/middleware/developed/fota/custom/src/fota_entry.o
BSP_WdtInit                                       ../../../../../../../PLAT/prebuild/PLAT/lib/gcc/libbootloader.a(bl_bsp.o)
                                                  ../../../../../../../PLAT/gccout/ec618_0h00/ap/bootloader/PLAT/project/ec618_0h00/ap/apps/bootloader/code/except/exception_handler.o
BSP_WdtTimeCntCfg                                 ../../../../../../../PLAT/prebuild/PLAT/lib/gcc/libbootloader.a(bl_bsp.o)
                                                  ../../../../../../../PLAT/gccout/ec618_0h00/ap/bootloader/PLAT/project/ec618_0h00/ap/apps/bootloader/code/main/ec_main.o
BZ2_bzBuffToBuffDecompress                        ../../../../../../../PLAT/prebuild/PLAT/lib/gcc/libdeltapatch.a(bzlib.o)
BZ2_bzCompressInit                                ../../../../../../../PLAT/prebuild/PLAT/lib/gcc/libdeltapatch.a(bzlib.o)
BZ2_bzDecompress                                  ../../../../../../../PLAT/prebuild/PLAT/lib/gcc/libdeltapatch.a(bzlib.o)
BZ2_bzDecompressEnd                               ../../../../../../../PLAT/prebuild/PLAT/lib/gcc/libdeltapatch.a(bzlib.o)
BZ2_bzDecompressInit                              ../../../../../../../PLAT/prebuild/PLAT/lib/gcc/libdeltapatch.a(bzlib.o)
BZ2_bzRead                                        ../../../../../../../PLAT/prebuild/PLAT/lib/gcc/libdeltapatch.a(bzlib.o)
                                                  ../../../../../../../PLAT/prebuild/PLAT/lib/gcc/libdeltapatch.a(patch_main.o)
BZ2_bzReadClose                                   ../../../../../../../PLAT/prebuild/PLAT/lib/gcc/libdeltapatch.a(bzlib.o)
                                                  ../../../../../../../PLAT/prebuild/PLAT/lib/gcc/libdeltapatch.a(patch_main.o)
BZ2_bzReadGetUnused                               ../../../../../../../PLAT/prebuild/PLAT/lib/gcc/libdeltapatch.a(bzlib.o)
BZ2_bzReadOpen                                    ../../../../../../../PLAT/prebuild/PLAT/lib/gcc/libdeltapatch.a(bzlib.o)
                                                  ../../../../../../../PLAT/prebuild/PLAT/lib/gcc/libdeltapatch.a(patch_main.o)
BZ2_bz__AssertH__fail                             ../../../../../../../PLAT/prebuild/PLAT/lib/gcc/libdeltapatch.a(bzlib.o)
                                                  ../../../../../../../PLAT/prebuild/PLAT/lib/gcc/libdeltapatch.a(huffman.o)
                                                  ../../../../../../../PLAT/prebuild/PLAT/lib/gcc/libdeltapatch.a(decompress.o)
BZ2_bzclose                                       ../../../../../../../PLAT/prebuild/PLAT/lib/gcc/libdeltapatch.a(bzlib.o)
BZ2_bzdopen                                       ../../../../../../../PLAT/prebuild/PLAT/lib/gcc/libdeltapatch.a(bzlib.o)
BZ2_bzerror                                       ../../../../../../../PLAT/prebuild/PLAT/lib/gcc/libdeltapatch.a(bzlib.o)
BZ2_bzflush                                       ../../../../../../../PLAT/prebuild/PLAT/lib/gcc/libdeltapatch.a(bzlib.o)
BZ2_bzlibVersion                                  ../../../../../../../PLAT/prebuild/PLAT/lib/gcc/libdeltapatch.a(bzlib.o)
BZ2_bzopen                                        ../../../../../../../PLAT/prebuild/PLAT/lib/gcc/libdeltapatch.a(bzlib.o)
BZ2_bzread                                        ../../../../../../../PLAT/prebuild/PLAT/lib/gcc/libdeltapatch.a(bzlib.o)
BZ2_crc32Table                                    ../../../../../../../PLAT/prebuild/PLAT/lib/gcc/libdeltapatch.a(crctable.o)
                                                  ../../../../../../../PLAT/prebuild/PLAT/lib/gcc/libdeltapatch.a(bzlib.o)
BZ2_decompress                                    ../../../../../../../PLAT/prebuild/PLAT/lib/gcc/libdeltapatch.a(decompress.o)
                                                  ../../../../../../../PLAT/prebuild/PLAT/lib/gcc/libdeltapatch.a(bzlib.o)
BZ2_hbAssignCodes                                 ../../../../../../../PLAT/prebuild/PLAT/lib/gcc/libdeltapatch.a(huffman.o)
BZ2_hbCreateDecodeTables                          ../../../../../../../PLAT/prebuild/PLAT/lib/gcc/libdeltapatch.a(huffman.o)
                                                  ../../../../../../../PLAT/prebuild/PLAT/lib/gcc/libdeltapatch.a(decompress.o)
BZ2_hbMakeCodeLengths                             ../../../../../../../PLAT/prebuild/PLAT/lib/gcc/libdeltapatch.a(huffman.o)
BZ2_indexIntoF                                    ../../../../../../../PLAT/prebuild/PLAT/lib/gcc/libdeltapatch.a(bzlib.o)
                                                  ../../../../../../../PLAT/prebuild/PLAT/lib/gcc/libdeltapatch.a(decompress.o)
BZ2_rNums                                         ../../../../../../../PLAT/prebuild/PLAT/lib/gcc/libdeltapatch.a(randtable.o)
                                                  ../../../../../../../PLAT/prebuild/PLAT/lib/gcc/libdeltapatch.a(decompress.o)
                                                  ../../../../../../../PLAT/prebuild/PLAT/lib/gcc/libdeltapatch.a(bzlib.o)
Bltransfer_Control                                ../../../../../../../PLAT/gccout/ec618_0h00/ap/bootloader/PLAT/project/ec618_0h00/ap/apps/bootloader/code/main/ec_main.o
BsPatchIntegrateAppCaseInit                       ../../../../../../../PLAT/prebuild/PLAT/lib/gcc/libdeltapatch.a(patch_main.o)
BsPatchIntegrateCallbackTestInit                  ../../../../../../../PLAT/prebuild/PLAT/lib/gcc/libdeltapatch.a(patch_main.o)
BsPatchIntegrateHeadCaseInit                      ../../../../../../../PLAT/prebuild/PLAT/lib/gcc/libdeltapatch.a(patch_main.o)
BsPatchIntegrateLargeAppCaseInit                  ../../../../../../../PLAT/prebuild/PLAT/lib/gcc/libdeltapatch.a(patch_main.o)
BusFault_Handler                                  ../../../../../../../PLAT/gccout/ec618_0h00/ap/bootloader/lib/libstartup.a(startup_ec618_gcc.o)
CLOCK_AssertChkBeforeSlp                          ../../../../../../../PLAT/gccout/ec618_0h00/ap/bootloader/lib/libdriver.a(clock.o)
CLOCK_Trace                                       ../../../../../../../PLAT/gccout/ec618_0h00/ap/bootloader/lib/libdriver.a(clock.o)
CLOCK_bclkEnable                                  ../../../../../../../PLAT/gccout/ec618_0h00/ap/bootloader/lib/libdriver.a(clock.o)
                                                  ../../../../../../../PLAT/gccout/ec618_0h00/ap/bootloader/lib/libdriver.a(i2s.o)
CLOCK_checkClkID                                  ../../../../../../../PLAT/gccout/ec618_0h00/ap/bootloader/lib/libdriver.a(hal_misc.o)
CLOCK_clockDisable                                ../../../../../../../PLAT/gccout/ec618_0h00/ap/bootloader/lib/libdriver.a(clock.o)
                                                  ../../../../../../../PLAT/prebuild/PLAT/lib/gcc/libdriver_private_bl.a(dma.o)
                                                  ../../../../../../../PLAT/prebuild/PLAT/lib/gcc/libdriver_private_bl.a(rng.o)
                                                  ../../../../../../../PLAT/gccout/ec618_0h00/ap/bootloader/lib/libdriver.a(wdt.o)
                                                  ../../../../../../../PLAT/gccout/ec618_0h00/ap/bootloader/lib/libdriver.a(i2s.o)
                                                  ../../../../../../../PLAT/gccout/ec618_0h00/ap/bootloader/lib/libdriver.a(pad.o)
                                                  ../../../../../../../PLAT/gccout/ec618_0h00/ap/bootloader/lib/libdriver.a(gpio.o)
                                                  ../../../../../../../PLAT/gccout/ec618_0h00/ap/bootloader/lib/libdriver.a(bsp_usart.o)
CLOCK_clockEnable                                 ../../../../../../../PLAT/gccout/ec618_0h00/ap/bootloader/lib/libdriver.a(clock.o)
                                                  ../../../../../../../PLAT/prebuild/PLAT/lib/gcc/libdriver_private_bl.a(dma.o)
                                                  ../../../../../../../PLAT/prebuild/PLAT/lib/gcc/libdriver_private_bl.a(rng.o)
                                                  ../../../../../../../PLAT/prebuild/PLAT/lib/gcc/libdriver_private_bl.a(tls.o)
                                                  ../../../../../../../PLAT/gccout/ec618_0h00/ap/bootloader/lib/libdriver.a(wdt.o)
                                                  ../../../../../../../PLAT/gccout/ec618_0h00/ap/bootloader/lib/libdriver.a(i2s.o)
                                                  ../../../../../../../PLAT/gccout/ec618_0h00/ap/bootloader/lib/libdriver.a(pad.o)
                                                  ../../../../../../../PLAT/gccout/ec618_0h00/ap/bootloader/lib/libdriver.a(gpio.o)
                                                  ../../../../../../../PLAT/gccout/ec618_0h00/ap/bootloader/lib/libdriver.a(bsp_usart.o)
CLOCK_clockReset                                  ../../../../../../../PLAT/gccout/ec618_0h00/ap/bootloader/lib/libdriver.a(clock.o)
CLOCK_fracDivOutCLkEnable                         ../../../../../../../PLAT/gccout/ec618_0h00/ap/bootloader/lib/libdriver.a(clock.o)
                                                  ../../../../../../../PLAT/gccout/ec618_0h00/ap/bootloader/lib/libdriver.a(i2s.o)
CLOCK_fracDivOutClkDisable                        ../../../../../../../PLAT/gccout/ec618_0h00/ap/bootloader/lib/libdriver.a(clock.o)
CLOCK_getClockFreq                                ../../../../../../../PLAT/gccout/ec618_0h00/ap/bootloader/lib/libdriver.a(clock.o)
CLOCK_mclkDisable                                 ../../../../../../../PLAT/gccout/ec618_0h00/ap/bootloader/lib/libdriver.a(clock.o)
CLOCK_mclkEnable                                  ../../../../../../../PLAT/gccout/ec618_0h00/ap/bootloader/lib/libdriver.a(clock.o)
                                                  ../../../../../../../PLAT/gccout/ec618_0h00/ap/bootloader/lib/libdriver.a(i2s.o)
CLOCK_setBclkDiv                                  ../../../../../../../PLAT/gccout/ec618_0h00/ap/bootloader/lib/libdriver.a(clock.o)
                                                  ../../../../../../../PLAT/gccout/ec618_0h00/ap/bootloader/lib/libdriver.a(i2s.o)
CLOCK_setBclkSrc                                  ../../../../../../../PLAT/gccout/ec618_0h00/ap/bootloader/lib/libdriver.a(clock.o)
                                                  ../../../../../../../PLAT/gccout/ec618_0h00/ap/bootloader/lib/libdriver.a(i2s.o)
CLOCK_setClockDiv                                 ../../../../../../../PLAT/gccout/ec618_0h00/ap/bootloader/lib/libdriver.a(clock.o)
CLOCK_setClockSrc                                 ../../../../../../../PLAT/gccout/ec618_0h00/ap/bootloader/lib/libdriver.a(clock.o)
                                                  ../../../../../../../PLAT/gccout/ec618_0h00/ap/bootloader/lib/libdriver.a(i2s.o)
CLOCK_setFracDivConfig                            ../../../../../../../PLAT/gccout/ec618_0h00/ap/bootloader/lib/libdriver.a(clock.o)
                                                  ../../../../../../../PLAT/gccout/ec618_0h00/ap/bootloader/lib/libdriver.a(i2s.o)
CLOCK_setFracDivOutClkDiv                         ../../../../../../../PLAT/gccout/ec618_0h00/ap/bootloader/lib/libdriver.a(clock.o)
                                                  ../../../../../../../PLAT/gccout/ec618_0h00/ap/bootloader/lib/libdriver.a(i2s.o)
CLOCK_setMclkDiv                                  ../../../../../../../PLAT/gccout/ec618_0h00/ap/bootloader/lib/libdriver.a(clock.o)
CLOCK_setMclkSrc                                  ../../../../../../../PLAT/gccout/ec618_0h00/ap/bootloader/lib/libdriver.a(clock.o)
                                                  ../../../../../../../PLAT/gccout/ec618_0h00/ap/bootloader/lib/libdriver.a(i2s.o)
CLOCK_updateClockTreeElement                      ../../../../../../../PLAT/gccout/ec618_0h00/ap/bootloader/lib/libdriver.a(clock.o)
CPQSPI_Write_Volatile_Status_Reg                  ../../../../../../../PLAT/prebuild/PLAT/lib/gcc/libdriver_private_bl.a(cpxip.o)
CPXIP_DeInit                                      ../../../../../../../PLAT/prebuild/PLAT/lib/gcc/libdriver_private_bl.a(cpxip.o)
                                                  ../../../../../../../PLAT/gccout/ec618_0h00/ap/bootloader/PLAT/middleware/developed/fota/custom/src/fota_nvm.o
CPXIP_Enable                                      ../../../../../../../PLAT/prebuild/PLAT/lib/gcc/libdriver_private_bl.a(cpxip.o)
                                                  ../../../../../../../PLAT/prebuild/PLAT/lib/gcc/libbootloader.a(image.o)
                                                  ../../../../../../../PLAT/gccout/ec618_0h00/ap/bootloader/PLAT/middleware/developed/fota/custom/src/fota_nvm.o
CPXIP_QSPI_Config                                 ../../../../../../../PLAT/prebuild/PLAT/lib/gcc/libdriver_private_bl.a(cpxip.o)
CPXIP_QSPI_Erase_Sector                           ../../../../../../../PLAT/prebuild/PLAT/lib/gcc/libdriver_private_bl.a(cpxip.o)
                                                  ../../../../../../../PLAT/gccout/ec618_0h00/ap/bootloader/PLAT/middleware/developed/fota/custom/src/fota_nvm.o
CPXIP_QSPI_Init                                   ../../../../../../../PLAT/prebuild/PLAT/lib/gcc/libdriver_private_bl.a(cpxip.o)
CPXIP_QSPI_Read                                   ../../../../../../../PLAT/prebuild/PLAT/lib/gcc/libdriver_private_bl.a(cpxip.o)
                                                  ../../../../../../../PLAT/prebuild/PLAT/lib/gcc/libbootloader.a(image.o)
                                                  ../../../../../../../PLAT/gccout/ec618_0h00/ap/bootloader/PLAT/middleware/developed/fota/custom/src/fota_nvm.o
CPXIP_QSPI_Receive                                ../../../../../../../PLAT/prebuild/PLAT/lib/gcc/libdriver_private_bl.a(cpxip.o)
CPXIP_QSPI_Write                                  ../../../../../../../PLAT/prebuild/PLAT/lib/gcc/libdriver_private_bl.a(cpxip.o)
                                                  ../../../../../../../PLAT/gccout/ec618_0h00/ap/bootloader/PLAT/middleware/developed/fota/custom/src/fota_nvm.o
CPXIP_QSPI_XIP_Enable                             ../../../../../../../PLAT/prebuild/PLAT/lib/gcc/libdriver_private_bl.a(cpxip.o)
CPXIP_QSPI_XIP_Mode_Enable                        ../../../../../../../PLAT/prebuild/PLAT/lib/gcc/libdriver_private_bl.a(cpxip.o)
CPXIP_QfdrRegType1                                ../../../../../../../PLAT/prebuild/PLAT/lib/gcc/libdriver_private_bl.a(cpxip.o)
CPXIP_QfdrRegType2                                ../../../../../../../PLAT/prebuild/PLAT/lib/gcc/libdriver_private_bl.a(cpxip.o)
CPXIP_QfdrRegType5                                ../../../../../../../PLAT/prebuild/PLAT/lib/gcc/libdriver_private_bl.a(cpxip.o)
CPXIP_QfdrRegType6                                ../../../../../../../PLAT/prebuild/PLAT/lib/gcc/libdriver_private_bl.a(cpxip.o)
CPXIP_Quad_Init                                   ../../../../../../../PLAT/prebuild/PLAT/lib/gcc/libdriver_private_bl.a(cpxip.o)
CPXIP_Read_Status_Reg                             ../../../../../../../PLAT/prebuild/PLAT/lib/gcc/libdriver_private_bl.a(cpxip.o)
CPXIP_Write_Data                                  ../../../../../../../PLAT/prebuild/PLAT/lib/gcc/libdriver_private_bl.a(cpxip.o)
CPXIP_XIP_Mode_Disable                            ../../../../../../../PLAT/prebuild/PLAT/lib/gcc/libdriver_private_bl.a(cpxip.o)
CPXIP_XIP_Mode_Enable                             ../../../../../../../PLAT/prebuild/PLAT/lib/gcc/libdriver_private_bl.a(cpxip.o)
CPflash_ProtectCheck                              ../../../../../../../PLAT/prebuild/PLAT/lib/gcc/libdriver_private_bl.a(cpxip.o)
CPflash_RestoreProtect                            ../../../../../../../PLAT/prebuild/PLAT/lib/gcc/libdriver_private_bl.a(cpxip.o)
CatUpTaskEntry                                    ../../../../../../../PLAT/prebuild/PLAT/lib/gcc/libosa.a(ostask.o)
CcmTaskEntry                                      ../../../../../../../PLAT/prebuild/PLAT/lib/gcc/libosa.a(ostask.o)
CeNasTaskEntry                                    ../../../../../../../PLAT/prebuild/PLAT/lib/gcc/libosa.a(ostask.o)
CerrcMain                                         ../../../../../../../PLAT/prebuild/PLAT/lib/gcc/libosa.a(ostask.o)
CheckGetBurnPart                                  ../../../../../../../PLAT/prebuild/PLAT/lib/gcc/libdriver_private_bl.a(efuse.o)
CheckUSBNetEnumDis                                ../../../../../../../PLAT/prebuild/PLAT/lib/gcc/libusbbl_priv.a(usbd_multi_usrcfg_lib.o)
CheckUSBNetEnumMux                                ../../../../../../../PLAT/prebuild/PLAT/lib/gcc/libusbbl_priv.a(usbd_multi_usrcfg_lib.o)
CheckUsbPowerDown                                 ../../../../../../../PLAT/prebuild/PLAT/lib/gcc/libusbbl_priv.a(usbc_bsp.o)
CheckUsbPowerOn                                   ../../../../../../../PLAT/prebuild/PLAT/lib/gcc/libusbbl_priv.a(usbc_bsp.o)
ChrgPad_WakeupIntHandler                          ../../../../../../../PLAT/gccout/ec618_0h00/ap/bootloader/lib/libstartup.a(startup_ec618_gcc.o)
CleanBootRomResouce                               ../../../../../../../PLAT/prebuild/PLAT/lib/gcc/libbootloader.a(bl_bsp.o)
                                                  ../../../../../../../PLAT/gccout/ec618_0h00/ap/bootloader/PLAT/project/ec618_0h00/ap/apps/bootloader/code/main/ec_main.o
CmsTaskAndQCeate                                  ../../../../../../../PLAT/prebuild/PLAT/lib/gcc/libosa.a(ostask.o)
CmsTaskGetId                                      ../../../../../../../PLAT/prebuild/PLAT/lib/gcc/libosa.a(ostask.o)
CmsTaskIsCreated                                  ../../../../../../../PLAT/prebuild/PLAT/lib/gcc/libosa.a(ostask.o)
CommonFault_Handler                               ../../../../../../../PLAT/gccout/ec618_0h00/ap/bootloader/PLAT/project/ec618_0h00/ap/apps/bootloader/code/except/exception_handler.o
CopyDataRamtoImage                                ../../../../../../../PLAT/gccout/ec618_0h00/ap/bootloader/lib/libstartup.a(prec_init.o)
                                                  ../../../../../../../PLAT/gccout/ec618_0h00/ap/bootloader/lib/libstartup.a(system_ec618.o)
CopyPre1RamtoImage                                ../../../../../../../PLAT/gccout/ec618_0h00/ap/bootloader/lib/libstartup.a(prec_init.o)
                                                  ../../../../../../../PLAT/gccout/ec618_0h00/ap/bootloader/lib/libstartup.a(system_ec618.o)
CopyPre2RamtoImage                                ../../../../../../../PLAT/gccout/ec618_0h00/ap/bootloader/lib/libstartup.a(prec_init.o)
                                                  ../../../../../../../PLAT/gccout/ec618_0h00/ap/bootloader/lib/libstartup.a(system_ec618.o)
CopyRWDataFromBin                                 ../../../../../../../PLAT/gccout/ec618_0h00/ap/bootloader/lib/libstartup.a(prec_init.o)
                                                  ../../../../../../../PLAT/gccout/ec618_0h00/ap/bootloader/lib/libstartup.a(system_ec618.o)
CopyRamCodeAndDatForUsb                           ../../../../../../../PLAT/gccout/ec618_0h00/ap/bootloader/lib/libstartup.a(prec_init.o)
                                                  ../../../../../../../PLAT/gccout/ec618_0h00/ap/bootloader/PLAT/middleware/developed/fota/custom/src/fota_entry.o
CopyXipStartRwToImage                             ../../../../../../../PLAT/gccout/ec618_0h00/ap/bootloader/lib/libstartup.a(prec_init.o)
                                                  ../../../../../../../PLAT/gccout/ec618_0h00/ap/bootloader/lib/libstartup.a(system_ec618.o)
DMA_buildDescriptor                               ../../../../../../../PLAT/prebuild/PLAT/lib/gcc/libdriver_private_bl.a(dma.o)
                                                  ../../../../../../../PLAT/gccout/ec618_0h00/ap/bootloader/lib/libdriver.a(bsp_usart.o)
DMA_buildDescriptorChain                          ../../../../../../../PLAT/prebuild/PLAT/lib/gcc/libdriver_private_bl.a(dma.o)
                                                  ../../../../../../../PLAT/gccout/ec618_0h00/ap/bootloader/lib/libdriver.a(i2s.o)
DMA_closeChannel                                  ../../../../../../../PLAT/prebuild/PLAT/lib/gcc/libdriver_private_bl.a(dma.o)
                                                  ../../../../../../../PLAT/gccout/ec618_0h00/ap/bootloader/lib/libdriver.a(bsp_usart.o)
DMA_descriptorChainCtrol                          ../../../../../../../PLAT/prebuild/PLAT/lib/gcc/libdriver_private_bl.a(dma.o)
DMA_disableChannelInterrupts                      ../../../../../../../PLAT/prebuild/PLAT/lib/gcc/libdriver_private_bl.a(dma.o)
DMA_dumpChannelRegister                           ../../../../../../../PLAT/prebuild/PLAT/lib/gcc/libdriver_private_bl.a(dma.o)
DMA_enableChannelInterrupts                       ../../../../../../../PLAT/prebuild/PLAT/lib/gcc/libdriver_private_bl.a(dma.o)
                                                  ../../../../../../../PLAT/gccout/ec618_0h00/ap/bootloader/lib/libdriver.a(bsp_usart.o)
DMA_getChannelCount                               ../../../../../../../PLAT/prebuild/PLAT/lib/gcc/libdriver_private_bl.a(dma.o)
                                                  ../../../../../../../PLAT/gccout/ec618_0h00/ap/bootloader/lib/libdriver.a(bsp_usart.o)
DMA_getChannelCsr                                 ../../../../../../../PLAT/prebuild/PLAT/lib/gcc/libdriver_private_bl.a(dma.o)
DMA_getChannelCurrentTargetAddress                ../../../../../../../PLAT/prebuild/PLAT/lib/gcc/libdriver_private_bl.a(dma.o)
                                                  ../../../../../../../PLAT/gccout/ec618_0h00/ap/bootloader/lib/libdriver.a(bsp_usart.o)
DMA_getEnabledInterrupts                          ../../../../../../../PLAT/prebuild/PLAT/lib/gcc/libdriver_private_bl.a(dma.o)
DMA_init                                          ../../../../../../../PLAT/prebuild/PLAT/lib/gcc/libdriver_private_bl.a(dma.o)
                                                  ../../../../../../../PLAT/gccout/ec618_0h00/ap/bootloader/lib/libdriver.a(i2s.o)
DMA_loadChannelDescriptorAndRun                   ../../../../../../../PLAT/prebuild/PLAT/lib/gcc/libdriver_private_bl.a(dma.o)
                                                  ../../../../../../../PLAT/gccout/ec618_0h00/ap/bootloader/lib/libdriver.a(i2s.o)
                                                  ../../../../../../../PLAT/gccout/ec618_0h00/ap/bootloader/lib/libdriver.a(bsp_usart.o)
DMA_loadChannelFirstDescriptor                    ../../../../../../../PLAT/prebuild/PLAT/lib/gcc/libdriver_private_bl.a(dma.o)
DMA_openChannel                                   ../../../../../../../PLAT/prebuild/PLAT/lib/gcc/libdriver_private_bl.a(dma.o)
                                                  ../../../../../../../PLAT/gccout/ec618_0h00/ap/bootloader/lib/libdriver.a(i2s.o)
                                                  ../../../../../../../PLAT/gccout/ec618_0h00/ap/bootloader/lib/libdriver.a(bsp_usart.o)
DMA_resetChannel                                  ../../../../../../../PLAT/prebuild/PLAT/lib/gcc/libdriver_private_bl.a(dma.o)
                                                  ../../../../../../../PLAT/gccout/ec618_0h00/ap/bootloader/lib/libdriver.a(bsp_usart.o)
DMA_rigisterChannelCallback                       ../../../../../../../PLAT/prebuild/PLAT/lib/gcc/libdriver_private_bl.a(dma.o)
                                                  ../../../../../../../PLAT/gccout/ec618_0h00/ap/bootloader/lib/libdriver.a(i2s.o)
                                                  ../../../../../../../PLAT/gccout/ec618_0h00/ap/bootloader/lib/libdriver.a(bsp_usart.o)
DMA_setChannelRequestSource                       ../../../../../../../PLAT/prebuild/PLAT/lib/gcc/libdriver_private_bl.a(dma.o)
                                                  ../../../../../../../PLAT/gccout/ec618_0h00/ap/bootloader/lib/libdriver.a(i2s.o)
                                                  ../../../../../../../PLAT/gccout/ec618_0h00/ap/bootloader/lib/libdriver.a(bsp_usart.o)
DMA_setDescriptorTransferLen                      ../../../../../../../PLAT/prebuild/PLAT/lib/gcc/libdriver_private_bl.a(dma.o)
                                                  ../../../../../../../PLAT/gccout/ec618_0h00/ap/bootloader/lib/libdriver.a(bsp_usart.o)
DMA_startChannel                                  ../../../../../../../PLAT/prebuild/PLAT/lib/gcc/libdriver_private_bl.a(dma.o)
                                                  ../../../../../../../PLAT/gccout/ec618_0h00/ap/bootloader/lib/libdriver.a(bsp_usart.o)
DMA_stopChannel                                   ../../../../../../../PLAT/prebuild/PLAT/lib/gcc/libdriver_private_bl.a(dma.o)
                                                  ../../../../../../../PLAT/gccout/ec618_0h00/ap/bootloader/lib/libdriver.a(i2s.o)
                                                  ../../../../../../../PLAT/gccout/ec618_0h00/ap/bootloader/lib/libdriver.a(bsp_usart.o)
DMA_stopChannelNoWait                             ../../../../../../../PLAT/prebuild/PLAT/lib/gcc/libdriver_private_bl.a(dma.o)
                                                  ../../../../../../../PLAT/gccout/ec618_0h00/ap/bootloader/lib/libdriver.a(bsp_usart.o)
DMA_transferSetup                                 ../../../../../../../PLAT/prebuild/PLAT/lib/gcc/libdriver_private_bl.a(dma.o)
                                                  ../../../../../../../PLAT/gccout/ec618_0h00/ap/bootloader/lib/libdriver.a(bsp_usart.o)
DebugMon_Handler                                  ../../../../../../../PLAT/gccout/ec618_0h00/ap/bootloader/lib/libstartup.a(startup_ec618_gcc.o)
Default_Handler                                   ../../../../../../../PLAT/gccout/ec618_0h00/ap/bootloader/lib/libstartup.a(startup_ec618_gcc.o)
Delay                                             ../../../../../../../PLAT/gccout/ec618_0h00/ap/bootloader/PLAT/project/ec618_0h00/ap/apps/bootloader/code/main/ec_main.o
DisableICache                                     ../../../../../../../PLAT/prebuild/PLAT/lib/gcc/libdriver_private_bl.a(cache.o)
                                                  ../../../../../../../PLAT/gccout/ec618_0h00/ap/bootloader/lib/libstartup.a(system_ec618.o)
                                                  ../../../../../../../PLAT/gccout/ec618_0h00/ap/bootloader/PLAT/project/ec618_0h00/ap/apps/bootloader/code/main/ec_main.o
Driver_I2C1                                       ../../../../../../../PLAT/gccout/ec618_0h00/ap/bootloader/lib/libdriver.a(codecDrv.o)
Driver_USART0                                     ../../../../../../../PLAT/gccout/ec618_0h00/ap/bootloader/lib/libdriver.a(bsp_usart.o)
                                                  ../../../../../../../PLAT/prebuild/PLAT/lib/gcc/libbootloader.a(bl_bsp.o)
Driver_USART1                                     ../../../../../../../PLAT/gccout/ec618_0h00/ap/bootloader/lib/libdriver.a(bsp_usart.o)
                                                  ../../../../../../../PLAT/prebuild/PLAT/lib/gcc/libbootloader.a(bl_bsp.o)
EFuseAtePassed                                    ../../../../../../../PLAT/prebuild/PLAT/lib/gcc/libdriver_private_bl.a(efuse.o)
                                                  ../../../../../../../PLAT/prebuild/PLAT/lib/gcc/libdriver_private_bl.a(hal_trim.o)
EFuseCtrlFlagRead                                 ../../../../../../../PLAT/prebuild/PLAT/lib/gcc/libdriver_private_bl.a(efuse.o)
EFuseGetChipID                                    ../../../../../../../PLAT/prebuild/PLAT/lib/gcc/libdriver_private_bl.a(efuse.o)
EFuseGetDevVer                                    ../../../../../../../PLAT/prebuild/PLAT/lib/gcc/libdriver_private_bl.a(efuse.o)
EFusePORPlatBitsRead                              ../../../../../../../PLAT/prebuild/PLAT/lib/gcc/libdriver_private_bl.a(efuse.o)
EFusePORRead                                      ../../../../../../../PLAT/prebuild/PLAT/lib/gcc/libdriver_private_bl.a(efuse.o)
EFuseSWBurn                                       ../../../../../../../PLAT/prebuild/PLAT/lib/gcc/libdriver_private_bl.a(efuse.o)
EFuseSWRead                                       ../../../../../../../PLAT/prebuild/PLAT/lib/gcc/libdriver_private_bl.a(efuse.o)
EFuseSWReadSafePolling                            ../../../../../../../PLAT/prebuild/PLAT/lib/gcc/libdriver_private_bl.a(efuse.o)
EFuseSwPlatBitsRead                               ../../../../../../../PLAT/prebuild/PLAT/lib/gcc/libdriver_private_bl.a(efuse.o)
                                                  ../../../../../../../PLAT/prebuild/PLAT/lib/gcc/libbootloader.a(bl_bsp.o)
EcFotaBackupFlhOffstAddr                          ../../../../../../../PLAT/prebuild/PLAT/lib/gcc/libdeltapatch.a(fakefs_cfg.o)
EcFotaDeltaAreaFlhOffstAddr                       ../../../../../../../PLAT/prebuild/PLAT/lib/gcc/libdeltapatch.a(fakefs_cfg.o)
EfuseDeInit                                       ../../../../../../../PLAT/prebuild/PLAT/lib/gcc/libdriver_private_bl.a(efuse.o)
EfuseInit                                         ../../../../../../../PLAT/prebuild/PLAT/lib/gcc/libdriver_private_bl.a(efuse.o)
                                                  ../../../../../../../PLAT/prebuild/PLAT/lib/gcc/libbootloader.a(bl_bsp.o)
EfuseSemInit                                      ../../../../../../../PLAT/prebuild/PLAT/lib/gcc/libdriver_private_bl.a(efuse.o)
EfuseStatus                                       ../../../../../../../PLAT/prebuild/PLAT/lib/gcc/libdriver_private_bl.a(efuse.o)
EnableICache                                      ../../../../../../../PLAT/prebuild/PLAT/lib/gcc/libdriver_private_bl.a(cache.o)
                                                  ../../../../../../../PLAT/gccout/ec618_0h00/ap/bootloader/lib/libstartup.a(system_ec618.o)
                                                  ../../../../../../../PLAT/gccout/ec618_0h00/ap/bootloader/PLAT/project/ec618_0h00/ap/apps/bootloader/code/main/ec_main.o
FLASH_ChkSuspend                                  ../../../../../../../PLAT/prebuild/PLAT/lib/gcc/libdriver_private_bl.a(flash.o)
FLASH_ProtectCheck                                ../../../../../../../PLAT/prebuild/PLAT/lib/gcc/libdriver_private_bl.a(flash.o)
FLASH_RestoreProtect                              ../../../../../../../PLAT/prebuild/PLAT/lib/gcc/libdriver_private_bl.a(flash.o)
FOTA_cbAllocMem                                   ../../../../../../../PLAT/prebuild/PLAT/lib/gcc/libfota.a(fota_callbacks.o)
FOTA_cbCalcChksum                                 ../../../../../../../PLAT/prebuild/PLAT/lib/gcc/libfota.a(fota_callbacks.o)
FOTA_cbDeinitFlash                                ../../../../../../../PLAT/prebuild/PLAT/lib/gcc/libfota.a(fota_callbacks.o)
                                                  ../../../../../../../PLAT/prebuild/PLAT/lib/gcc/libfota.a(fota_man.o)
FOTA_cbDoExtension                                ../../../../../../../PLAT/prebuild/PLAT/lib/gcc/libfota.a(fota_callbacks.o)
                                                  ../../../../../../../PLAT/prebuild/PLAT/lib/gcc/libfota.a(fota_man.o)
FOTA_cbEraseFlash                                 ../../../../../../../PLAT/prebuild/PLAT/lib/gcc/libfota.a(fota_callbacks.o)
                                                  ../../../../../../../PLAT/prebuild/PLAT/lib/gcc/libdeltapatch.a(fakefs.o)
FOTA_cbFreeMem                                    ../../../../../../../PLAT/prebuild/PLAT/lib/gcc/libfota.a(fota_callbacks.o)
FOTA_cbGetFlashBase                               ../../../../../../../PLAT/prebuild/PLAT/lib/gcc/libfota.a(fota_callbacks.o)
                                                  ../../../../../../../PLAT/prebuild/PLAT/lib/gcc/libdeltapatch.a(patch_main.o)
FOTA_cbGetFlashSize                               ../../../../../../../PLAT/prebuild/PLAT/lib/gcc/libfota.a(fota_callbacks.o)
                                                  ../../../../../../../PLAT/prebuild/PLAT/lib/gcc/libfota.a(fota_man.o)
                                                  ../../../../../../../PLAT/prebuild/PLAT/lib/gcc/libdeltapatch.a(patch_main.o)
FOTA_cbGetFlashXipAddr                            ../../../../../../../PLAT/prebuild/PLAT/lib/gcc/libfota.a(fota_callbacks.o)
                                                  ../../../../../../../PLAT/prebuild/PLAT/lib/gcc/libdeltapatch.a(patch_main.o)
FOTA_cbInitChksum                                 ../../../../../../../PLAT/prebuild/PLAT/lib/gcc/libfota.a(fota_callbacks.o)
                                                  ../../../../../../../PLAT/prebuild/PLAT/lib/gcc/libfota.a(fota_parchive.o)
                                                  ../../../../../../../PLAT/prebuild/PLAT/lib/gcc/libfota.a(fota_man.o)
FOTA_cbInitFlash                                  ../../../../../../../PLAT/prebuild/PLAT/lib/gcc/libfota.a(fota_callbacks.o)
                                                  ../../../../../../../PLAT/prebuild/PLAT/lib/gcc/libfota.a(fota_man.o)
FOTA_cbInitMem                                    ../../../../../../../PLAT/prebuild/PLAT/lib/gcc/libfota.a(fota_callbacks.o)
                                                  ../../../../../../../PLAT/prebuild/PLAT/lib/gcc/libfota.a(fota_man.o)
FOTA_cbReadFlash                                  ../../../../../../../PLAT/prebuild/PLAT/lib/gcc/libfota.a(fota_callbacks.o)
                                                  ../../../../../../../PLAT/prebuild/PLAT/lib/gcc/libfota.a(fota_parchive.o)
                                                  ../../../../../../../PLAT/prebuild/PLAT/lib/gcc/libfota.a(fota_man.o)
                                                  ../../../../../../../PLAT/prebuild/PLAT/lib/gcc/libdeltapatch.a(fakefs.o)
                                                  ../../../../../../../PLAT/prebuild/PLAT/lib/gcc/libdeltapatch.a(patch_main.o)
FOTA_cbWriteFlash                                 ../../../../../../../PLAT/prebuild/PLAT/lib/gcc/libfota.a(fota_callbacks.o)
                                                  ../../../../../../../PLAT/prebuild/PLAT/lib/gcc/libfota.a(fota_man.o)
                                                  ../../../../../../../PLAT/prebuild/PLAT/lib/gcc/libdeltapatch.a(fakefs.o)
FOTA_checkDfuMission                              ../../../../../../../PLAT/prebuild/PLAT/lib/gcc/libfota.a(fota_man.o)
                                                  ../../../../../../../PLAT/gccout/ec618_0h00/ap/bootloader/PLAT/middleware/developed/fota/custom/src/fota_entry.o
FOTA_chksumFlashData                              ../../../../../../../PLAT/gccout/ec618_0h00/ap/bootloader/PLAT/middleware/developed/fota/custom/src/fota_utils.o
                                                  ../../../../../../../PLAT/prebuild/PLAT/lib/gcc/libfota.a(fota_parchive.o)
                                                  ../../../../../../../PLAT/prebuild/PLAT/lib/gcc/libfota.a(fota_man.o)
                                                  ../../../../../../../PLAT/gccout/ec618_0h00/ap/bootloader/PLAT/middleware/developed/fota/custom/src/fota_nvm.o
FOTA_convToFwAttr                                 ../../../../../../../PLAT/gccout/ec618_0h00/ap/bootloader/PLAT/middleware/developed/fota/custom/src/fota_utils.o
FOTA_convToZoneId                                 ../../../../../../../PLAT/gccout/ec618_0h00/ap/bootloader/PLAT/middleware/developed/fota/custom/src/fota_utils.o
                                                  ../../../../../../../PLAT/prebuild/PLAT/lib/gcc/libfota.a(fota_man.o)
                                                  ../../../../../../../PLAT/gccout/ec618_0h00/ap/bootloader/PLAT/middleware/developed/fota/custom/src/fota_nvm.o
FOTA_displayUrcInfo                               ../../../../../../../PLAT/gccout/ec618_0h00/ap/bootloader/PLAT/middleware/developed/fota/custom/src/fota_entry.o
                                                  ../../../../../../../PLAT/prebuild/PLAT/lib/gcc/libfota.a(fota_man.o)
FOTA_dumpOctets                                   ../../../../../../../PLAT/gccout/ec618_0h00/ap/bootloader/PLAT/middleware/developed/fota/custom/src/fota_utils.o
                                                  ../../../../../../../PLAT/prebuild/PLAT/lib/gcc/libfota.a(fota_parchive.o)
                                                  ../../../../../../../PLAT/prebuild/PLAT/lib/gcc/libfota.a(fota_man.o)
                                                  ../../../../../../../PLAT/gccout/ec618_0h00/ap/bootloader/PLAT/middleware/developed/fota/custom/src/fota_nvm.o
FOTA_execProc                                     ../../../../../../../PLAT/prebuild/PLAT/lib/gcc/libfota.a(fota_hub.o)
                                                  ../../../../../../../PLAT/gccout/ec618_0h00/ap/bootloader/PLAT/middleware/developed/fota/custom/src/fota_entry.o
FOTA_exitProc                                     ../../../../../../../PLAT/prebuild/PLAT/lib/gcc/libfota.a(fota_hub.o)
                                                  ../../../../../../../PLAT/gccout/ec618_0h00/ap/bootloader/PLAT/middleware/developed/fota/custom/src/fota_entry.o
FOTA_getDfuProgress                               ../../../../../../../PLAT/prebuild/PLAT/lib/gcc/libfota.a(fota_man.o)
                                                  ../../../../../../../PLAT/gccout/ec618_0h00/ap/bootloader/PLAT/middleware/developed/fota/custom/src/fota_custom.o
FOTA_getInterface                                 ../../../../../../../PLAT/prebuild/PLAT/lib/gcc/libfota.a(fota_man.o)
                                                  ../../../../../../../PLAT/prebuild/PLAT/lib/gcc/libfota.a(fota_hub.o)
FOTA_initCallbacks                                ../../../../../../../PLAT/prebuild/PLAT/lib/gcc/libfota.a(fota_callbacks.o)
                                                  ../../../../../../../PLAT/prebuild/PLAT/lib/gcc/libfota.a(fota_man.o)
FOTA_initProc                                     ../../../../../../../PLAT/prebuild/PLAT/lib/gcc/libfota.a(fota_hub.o)
                                                  ../../../../../../../PLAT/gccout/ec618_0h00/ap/bootloader/PLAT/middleware/developed/fota/custom/src/fota_entry.o
FOTA_mainProc                                     ../../../../../../../PLAT/prebuild/PLAT/lib/gcc/libfota.a(fota_hub.o)
FOTA_patchImage                                   ../../../../../../../PLAT/prebuild/PLAT/lib/gcc/libfota.a(fota_patch.o)
                                                  ../../../../../../../PLAT/prebuild/PLAT/lib/gcc/libfota.a(fota_man.o)
FOTA_queryArchiveHdr                              ../../../../../../../PLAT/prebuild/PLAT/lib/gcc/libfota.a(fota_parchive.o)
                                                  ../../../../../../../PLAT/prebuild/PLAT/lib/gcc/libfota.a(fota_man.o)
FOTA_queryPackageHdr                              ../../../../../../../PLAT/prebuild/PLAT/lib/gcc/libfota.a(fota_parchive.o)
                                                  ../../../../../../../PLAT/prebuild/PLAT/lib/gcc/libfota.a(fota_man.o)
FOTA_queryPkgHdrOption                            ../../../../../../../PLAT/prebuild/PLAT/lib/gcc/libfota.a(fota_parchive.o)
                                                  ../../../../../../../PLAT/prebuild/PLAT/lib/gcc/libfota.a(fota_man.o)
FOTA_setSchemOemName                              ../../../../../../../PLAT/prebuild/PLAT/lib/gcc/libfota.a(fota_man.o)
                                                  ../../../../../../../PLAT/gccout/ec618_0h00/ap/bootloader/PLAT/middleware/developed/fota/custom/src/fota_entry.o
FOTA_startWdt                                     ../../../../../../../PLAT/prebuild/PLAT/lib/gcc/libfota.a(fota_man.o)
FOTA_validateParchive                             ../../../../../../../PLAT/prebuild/PLAT/lib/gcc/libfota.a(fota_parchive.o)
FileBuffAppendLen                                 ../../../../../../../PLAT/prebuild/PLAT/lib/gcc/libdeltapatch.a(patch_main.o)
FileBuffCheckFlushAll                             ../../../../../../../PLAT/prebuild/PLAT/lib/gcc/libdeltapatch.a(patch_main.o)
FileBuffCheckFlushSec                             ../../../../../../../PLAT/prebuild/PLAT/lib/gcc/libdeltapatch.a(patch_main.o)
FileBuffClearAtStart                              ../../../../../../../PLAT/prebuild/PLAT/lib/gcc/libdeltapatch.a(patch_main.o)
FileBuffDeInit                                    ../../../../../../../PLAT/prebuild/PLAT/lib/gcc/libdeltapatch.a(patch_main.o)
FileBuffGetReadOnceMaxLen                         ../../../../../../../PLAT/prebuild/PLAT/lib/gcc/libdeltapatch.a(patch_main.o)
FileBuffGetSecRestLen                             ../../../../../../../PLAT/prebuild/PLAT/lib/gcc/libdeltapatch.a(patch_main.o)
FileBuffGetTailPtr                                ../../../../../../../PLAT/prebuild/PLAT/lib/gcc/libdeltapatch.a(patch_main.o)
FileBuffGetTotalRestLen                           ../../../../../../../PLAT/prebuild/PLAT/lib/gcc/libdeltapatch.a(patch_main.o)
FileBuffInit                                      ../../../../../../../PLAT/prebuild/PLAT/lib/gcc/libdeltapatch.a(patch_main.o)
FileBuffResetBuff                                 ../../../../../../../PLAT/prebuild/PLAT/lib/gcc/libdeltapatch.a(patch_main.o)
FileBuffSetFilePtr                                ../../../../../../../PLAT/prebuild/PLAT/lib/gcc/libdeltapatch.a(patch_main.o)
FlashDataBuff                                     ../../../../../../../PLAT/prebuild/PLAT/lib/gcc/libdeltapatch.a(fakefs.o)
FotaProcedure                                     ../../../../../../../PLAT/gccout/ec618_0h00/ap/bootloader/PLAT/middleware/developed/fota/custom/src/fota_entry.o
                                                  ../../../../../../../PLAT/gccout/ec618_0h00/ap/bootloader/PLAT/project/ec618_0h00/ap/apps/bootloader/code/main/ec_main.o
FuncRndisHaltNotify                               ../../../../../../../PLAT/gccout/ec618_0h00/ap/bootloader/lib/libdriver.a(rndis_protocol.o)
                                                  ../../../../../../../PLAT/prebuild/PLAT/lib/gcc/libusbbl_priv.a(function_rndis.o)
FuncRndisInitNotify                               ../../../../../../../PLAT/gccout/ec618_0h00/ap/bootloader/lib/libdriver.a(rndis_protocol.o)
                                                  ../../../../../../../PLAT/prebuild/PLAT/lib/gcc/libusbbl_priv.a(function_rndis.o)
FuncRndisResetNotify                              ../../../../../../../PLAT/gccout/ec618_0h00/ap/bootloader/lib/libdriver.a(rndis_protocol.o)
                                                  ../../../../../../../PLAT/prebuild/PLAT/lib/gcc/libusbbl_priv.a(function_rndis.o)
GBRInfo                                           ../../../../../../../PLAT/prebuild/PLAT/lib/gcc/libbootloader.a(bl_bsp.o)
GDownloadCtrl                                     ../../../../../../../PLAT/gccout/ec618_0h00/ap/bootloader/PLAT/project/ec618_0h00/ap/apps/bootloader/code/main/ec_main.o
GEFusePartInfo                                    ../../../../../../../PLAT/prebuild/PLAT/lib/gcc/libdriver_private_bl.a(efuse.o)
GImageHead                                        ../../../../../../../PLAT/prebuild/PLAT/lib/gcc/libbootloader.a(image.o)
GPIO_clearInterruptFlags                          ../../../../../../../PLAT/gccout/ec618_0h00/ap/bootloader/lib/libdriver.a(gpio.o)
                                                  ../../../../../../../PLAT/gccout/ec618_0h00/ap/bootloader/lib/libdriver.a(drv_odm_gpio.o)
GPIO_driverDeInit                                 ../../../../../../../PLAT/gccout/ec618_0h00/ap/bootloader/lib/libdriver.a(gpio.o)
                                                  ../../../../../../../PLAT/gccout/ec618_0h00/ap/bootloader/lib/libdriver.a(drv_odm_gpio.o)
GPIO_driverInit                                   ../../../../../../../PLAT/gccout/ec618_0h00/ap/bootloader/lib/libdriver.a(gpio.o)
GPIO_getInterruptFlags                            ../../../../../../../PLAT/gccout/ec618_0h00/ap/bootloader/lib/libdriver.a(gpio.o)
                                                  ../../../../../../../PLAT/gccout/ec618_0h00/ap/bootloader/lib/libdriver.a(drv_odm_gpio.o)
GPIO_interruptConfig                              ../../../../../../../PLAT/gccout/ec618_0h00/ap/bootloader/lib/libdriver.a(gpio.o)
GPIO_pinConfig                                    ../../../../../../../PLAT/gccout/ec618_0h00/ap/bootloader/lib/libdriver.a(gpio.o)
                                                  ../../../../../../../PLAT/gccout/ec618_0h00/ap/bootloader/lib/libdriver.a(drv_odm_gpio.o)
GPIO_pinRead                                      ../../../../../../../PLAT/gccout/ec618_0h00/ap/bootloader/lib/libdriver.a(gpio.o)
                                                  ../../../../../../../PLAT/gccout/ec618_0h00/ap/bootloader/lib/libdriver.a(drv_odm_gpio.o)
GPIO_pinWrite                                     ../../../../../../../PLAT/gccout/ec618_0h00/ap/bootloader/lib/libdriver.a(gpio.o)
                                                  ../../../../../../../PLAT/gccout/ec618_0h00/ap/bootloader/lib/libdriver.a(drv_odm_gpio.o)
GPIO_restoreIrqMask                               ../../../../../../../PLAT/gccout/ec618_0h00/ap/bootloader/lib/libdriver.a(gpio.o)
                                                  ../../../../../../../PLAT/gccout/ec618_0h00/ap/bootloader/lib/libdriver.a(drv_odm_gpio.o)
GPIO_saveAndSetIrqMask                            ../../../../../../../PLAT/gccout/ec618_0h00/ap/bootloader/lib/libdriver.a(gpio.o)
                                                  ../../../../../../../PLAT/gccout/ec618_0h00/ap/bootloader/lib/libdriver.a(drv_odm_gpio.o)
GPR_BclkEnable                                    ../../../../../../../PLAT/prebuild/PLAT/lib/gcc/libdriver_private_bl.a(gpr.o)
                                                  ../../../../../../../PLAT/gccout/ec618_0h00/ap/bootloader/lib/libdriver.a(clock.o)
GPR_Is51MClockInUse                               ../../../../../../../PLAT/prebuild/PLAT/lib/gcc/libdriver_private_bl.a(gpr.o)
GPR_SetSysTickClk                                 ../../../../../../../PLAT/prebuild/PLAT/lib/gcc/libbootloader.a(bl_bsp.o)
GPR_SetUartClk                                    ../../../../../../../PLAT/prebuild/PLAT/lib/gcc/libbootloader.a(bl_bsp.o)
GPR_USBCHRST_ResetReq_SetVal                      ../../../../../../../PLAT/prebuild/PLAT/lib/gcc/libusbbl_priv.a(usbc_bsp.o)
GPR_USBCPhy_ResetReq_SetVal                       ../../../../../../../PLAT/prebuild/PLAT/lib/gcc/libusbbl_priv.a(usbc_bsp.o)
GPR_USBPAPB_ResetReq_SetVal                       ../../../../../../../PLAT/prebuild/PLAT/lib/gcc/libusbbl_priv.a(usbc_bsp.o)
GPR_USBPPor_ResetReq_SetVal                       ../../../../../../../PLAT/prebuild/PLAT/lib/gcc/libusbbl_priv.a(usbc_bsp.o)
GPR_USBPUtmi_ResetReq_SetVal                      ../../../../../../../PLAT/prebuild/PLAT/lib/gcc/libusbbl_priv.a(usbc_bsp.o)
GPR_USB_DM_Ctrl_Disable_Rst                       ../../../../../../../PLAT/prebuild/PLAT/lib/gcc/libusbbl_priv.a(usbc_bsp.o)
GPR_USB_DM_Ctrl_Enable_Rst                        ../../../../../../../PLAT/prebuild/PLAT/lib/gcc/libusbbl_priv.a(usbc_bsp.o)
GPR_USB_DM_Ctrl_Enable_Usbcprst                   ../../../../../../../PLAT/prebuild/PLAT/lib/gcc/libusbbl_priv.a(usbc_bsp.o)
GPR_USB_DM_Ctrl_Enable_Without_Usbcprst           ../../../../../../../PLAT/prebuild/PLAT/lib/gcc/libusbbl_priv.a(usbc_bsp.o)
GPR_apAccessEnter                                 ../../../../../../../PLAT/prebuild/PLAT/lib/gcc/libdriver_private_bl.a(gpr.o)
                                                  ../../../../../../../PLAT/prebuild/PLAT/lib/gcc/libdriver_private_bl.a(shareinfo.o)
                                                  ../../../../../../../PLAT/prebuild/PLAT/lib/gcc/libdriver_private_bl.a(aonreg.o)
GPR_apAccessExit                                  ../../../../../../../PLAT/prebuild/PLAT/lib/gcc/libdriver_private_bl.a(gpr.o)
                                                  ../../../../../../../PLAT/prebuild/PLAT/lib/gcc/libdriver_private_bl.a(shareinfo.o)
                                                  ../../../../../../../PLAT/prebuild/PLAT/lib/gcc/libdriver_private_bl.a(aonreg.o)
GPR_apDFCVote4CP                                  ../../../../../../../PLAT/prebuild/PLAT/lib/gcc/libdriver_private_bl.a(gpr.o)
GPR_apDFCVoteIdle                                 ../../../../../../../PLAT/prebuild/PLAT/lib/gcc/libdriver_private_bl.a(gpr.o)
GPR_apGetRstSrc                                   ../../../../../../../PLAT/prebuild/PLAT/lib/gcc/libdriver_private_bl.a(gpr.o)
GPR_apSysClkForceOnControl                        ../../../../../../../PLAT/prebuild/PLAT/lib/gcc/libdriver_private_bl.a(gpr.o)
GPR_autoGateCtrl                                  ../../../../../../../PLAT/prebuild/PLAT/lib/gcc/libdriver_private_bl.a(gpr.o)
GPR_bootSetting                                   ../../../../../../../PLAT/prebuild/PLAT/lib/gcc/libdriver_private_bl.a(gpr.o)
GPR_cacheBypassCtrl                               ../../../../../../../PLAT/prebuild/PLAT/lib/gcc/libdriver_private_bl.a(gpr.o)
GPR_clockDisable                                  ../../../../../../../PLAT/prebuild/PLAT/lib/gcc/libdriver_private_bl.a(gpr.o)
                                                  ../../../../../../../PLAT/prebuild/PLAT/lib/gcc/libusbbl_priv.a(usbc_bsp.o)
                                                  ../../../../../../../PLAT/prebuild/PLAT/lib/gcc/libdriver_private_bl.a(ic.o)
                                                  ../../../../../../../PLAT/prebuild/PLAT/lib/gcc/libdriver_private_bl.a(efuse.o)
                                                  ../../../../../../../PLAT/prebuild/PLAT/lib/gcc/libdriver_private_bl.a(uart.o)
                                                  ../../../../../../../PLAT/prebuild/PLAT/lib/gcc/libbootloader.a(bl_bsp.o)
                                                  ../../../../../../../PLAT/gccout/ec618_0h00/ap/bootloader/lib/libdriver.a(clock.o)
                                                  ../../../../../../../PLAT/gccout/ec618_0h00/ap/bootloader/lib/libdriver.a(oneWire.o)
                                                  ../../../../../../../PLAT/gccout/ec618_0h00/ap/bootloader/lib/libdriver.a(hal_i2s.o)
GPR_clockEnable                                   ../../../../../../../PLAT/prebuild/PLAT/lib/gcc/libdriver_private_bl.a(gpr.o)
                                                  ../../../../../../../PLAT/prebuild/PLAT/lib/gcc/libusbbl_priv.a(usbc_bsp.o)
                                                  ../../../../../../../PLAT/prebuild/PLAT/lib/gcc/libdriver_private_bl.a(ic.o)
                                                  ../../../../../../../PLAT/prebuild/PLAT/lib/gcc/libdriver_private_bl.a(efuse.o)
                                                  ../../../../../../../PLAT/prebuild/PLAT/lib/gcc/libdriver_private_bl.a(cpxip.o)
                                                  ../../../../../../../PLAT/prebuild/PLAT/lib/gcc/libdriver_private_bl.a(uart.o)
                                                  ../../../../../../../PLAT/prebuild/PLAT/lib/gcc/libbootloader.a(bl_bsp.o)
                                                  ../../../../../../../PLAT/gccout/ec618_0h00/ap/bootloader/lib/libdriver.a(clock.o)
                                                  ../../../../../../../PLAT/gccout/ec618_0h00/ap/bootloader/lib/libdriver.a(oneWire.o)
                                                  ../../../../../../../PLAT/gccout/ec618_0h00/ap/bootloader/lib/libdriver.a(hal_i2s.o)
GPR_clockEnableCheck                              ../../../../../../../PLAT/prebuild/PLAT/lib/gcc/libdriver_private_bl.a(gpr.o)
                                                  ../../../../../../../PLAT/gccout/ec618_0h00/ap/bootloader/lib/libdriver.a(clock.o)
GPR_cpGetRstSrc                                   ../../../../../../../PLAT/prebuild/PLAT/lib/gcc/libdriver_private_bl.a(gpr.o)
GPR_cpResetCfgGet                                 ../../../../../../../PLAT/prebuild/PLAT/lib/gcc/libdriver_private_bl.a(gpr.o)
GPR_cpResetCfgSet                                 ../../../../../../../PLAT/prebuild/PLAT/lib/gcc/libdriver_private_bl.a(gpr.o)
GPR_csmbAccessEnter                               ../../../../../../../PLAT/prebuild/PLAT/lib/gcc/libdriver_private_bl.a(gpr.o)
GPR_csmbAccessExit                                ../../../../../../../PLAT/prebuild/PLAT/lib/gcc/libdriver_private_bl.a(gpr.o)
GPR_flashClockDisable                             ../../../../../../../PLAT/prebuild/PLAT/lib/gcc/libdriver_private_bl.a(gpr.o)
GPR_flashClockEnable                              ../../../../../../../PLAT/prebuild/PLAT/lib/gcc/libdriver_private_bl.a(gpr.o)
GPR_flashSWReset                                  ../../../../../../../PLAT/prebuild/PLAT/lib/gcc/libdriver_private_bl.a(gpr.o)
GPR_fracDivOutCLkEnable                           ../../../../../../../PLAT/prebuild/PLAT/lib/gcc/libdriver_private_bl.a(gpr.o)
                                                  ../../../../../../../PLAT/gccout/ec618_0h00/ap/bootloader/lib/libdriver.a(clock.o)
GPR_fracDivOutClkDisable                          ../../../../../../../PLAT/prebuild/PLAT/lib/gcc/libdriver_private_bl.a(gpr.o)
                                                  ../../../../../../../PLAT/gccout/ec618_0h00/ap/bootloader/lib/libdriver.a(clock.o)
GPR_getChipFullID                                 ../../../../../../../PLAT/prebuild/PLAT/lib/gcc/libdriver_private_bl.a(gpr.o)
                                                  ../../../../../../../PLAT/gccout/ec618_0h00/ap/bootloader/lib/libdriver.a(hal_misc.o)
GPR_getChipID                                     ../../../../../../../PLAT/prebuild/PLAT/lib/gcc/libdriver_private_bl.a(gpr.o)
                                                  ../../../../../../../PLAT/gccout/ec618_0h00/ap/bootloader/lib/libdriver.a(hal_misc.o)
GPR_getChipRevID                                  ../../../../../../../PLAT/prebuild/PLAT/lib/gcc/libdriver_private_bl.a(gpr.o)
                                                  ../../../../../../../PLAT/gccout/ec618_0h00/ap/bootloader/lib/libdriver.a(hal_misc.o)
GPR_getClockFreq                                  ../../../../../../../PLAT/prebuild/PLAT/lib/gcc/libdriver_private_bl.a(gpr.o)
                                                  ../../../../../../../PLAT/gccout/ec618_0h00/ap/bootloader/lib/libdriver.a(clock.o)
                                                  ../../../../../../../PLAT/gccout/ec618_0h00/ap/bootloader/lib/libdriver.a(bsp_usart.o)
GPR_getSystickClk                                 ../../../../../../../PLAT/prebuild/PLAT/lib/gcc/libdriver_private_bl.a(gpr.o)
GPR_initialize                                    ../../../../../../../PLAT/prebuild/PLAT/lib/gcc/libdriver_private_bl.a(gpr.o)
GPR_lockUpActionCtrl                              ../../../../../../../PLAT/prebuild/PLAT/lib/gcc/libdriver_private_bl.a(gpr.o)
GPR_mclkDisable                                   ../../../../../../../PLAT/prebuild/PLAT/lib/gcc/libdriver_private_bl.a(gpr.o)
                                                  ../../../../../../../PLAT/gccout/ec618_0h00/ap/bootloader/lib/libdriver.a(clock.o)
GPR_mclkEnable                                    ../../../../../../../PLAT/prebuild/PLAT/lib/gcc/libdriver_private_bl.a(gpr.o)
                                                  ../../../../../../../PLAT/gccout/ec618_0h00/ap/bootloader/lib/libdriver.a(clock.o)
GPR_memCtrl                                       ../../../../../../../PLAT/prebuild/PLAT/lib/gcc/libdriver_private_bl.a(gpr.o)
GPR_msmbPriorityCtrl                              ../../../../../../../PLAT/prebuild/PLAT/lib/gcc/libdriver_private_bl.a(gpr.o)
GPR_rmiHrstRel                                    ../../../../../../../PLAT/prebuild/PLAT/lib/gcc/libdriver_private_bl.a(gpr.o)
GPR_setApbGprAcg                                  ../../../../../../../PLAT/prebuild/PLAT/lib/gcc/libdriver_private_bl.a(gpr.o)
GPR_setBclkDiv                                    ../../../../../../../PLAT/prebuild/PLAT/lib/gcc/libdriver_private_bl.a(gpr.o)
                                                  ../../../../../../../PLAT/gccout/ec618_0h00/ap/bootloader/lib/libdriver.a(clock.o)
GPR_setBclkSrc                                    ../../../../../../../PLAT/prebuild/PLAT/lib/gcc/libdriver_private_bl.a(gpr.o)
                                                  ../../../../../../../PLAT/gccout/ec618_0h00/ap/bootloader/lib/libdriver.a(clock.o)
GPR_setClockDiv                                   ../../../../../../../PLAT/prebuild/PLAT/lib/gcc/libdriver_private_bl.a(gpr.o)
                                                  ../../../../../../../PLAT/prebuild/PLAT/lib/gcc/libdriver_private_bl.a(cpxip.o)
                                                  ../../../../../../../PLAT/prebuild/PLAT/lib/gcc/libbootloader.a(bl_bsp.o)
                                                  ../../../../../../../PLAT/gccout/ec618_0h00/ap/bootloader/lib/libdriver.a(clock.o)
GPR_setClockSrc                                   ../../../../../../../PLAT/prebuild/PLAT/lib/gcc/libdriver_private_bl.a(gpr.o)
                                                  ../../../../../../../PLAT/prebuild/PLAT/lib/gcc/libdriver_private_bl.a(cpxip.o)
                                                  ../../../../../../../PLAT/prebuild/PLAT/lib/gcc/libdriver_private_bl.a(uart.o)
                                                  ../../../../../../../PLAT/prebuild/PLAT/lib/gcc/libbootloader.a(bl_bsp.o)
                                                  ../../../../../../../PLAT/gccout/ec618_0h00/ap/bootloader/lib/libdriver.a(clock.o)
GPR_setFlashClockDiv                              ../../../../../../../PLAT/prebuild/PLAT/lib/gcc/libdriver_private_bl.a(gpr.o)
GPR_setFlashClockSrc                              ../../../../../../../PLAT/prebuild/PLAT/lib/gcc/libdriver_private_bl.a(gpr.o)
GPR_setFracDivConfig                              ../../../../../../../PLAT/prebuild/PLAT/lib/gcc/libdriver_private_bl.a(gpr.o)
                                                  ../../../../../../../PLAT/gccout/ec618_0h00/ap/bootloader/lib/libdriver.a(clock.o)
GPR_setFracDivOutClkDiv                           ../../../../../../../PLAT/prebuild/PLAT/lib/gcc/libdriver_private_bl.a(gpr.o)
                                                  ../../../../../../../PLAT/gccout/ec618_0h00/ap/bootloader/lib/libdriver.a(clock.o)
GPR_setMclkDiv                                    ../../../../../../../PLAT/prebuild/PLAT/lib/gcc/libdriver_private_bl.a(gpr.o)
                                                  ../../../../../../../PLAT/gccout/ec618_0h00/ap/bootloader/lib/libdriver.a(clock.o)
GPR_setMclkSrc                                    ../../../../../../../PLAT/prebuild/PLAT/lib/gcc/libdriver_private_bl.a(gpr.o)
                                                  ../../../../../../../PLAT/gccout/ec618_0h00/ap/bootloader/lib/libdriver.a(clock.o)
GPR_swReset                                       ../../../../../../../PLAT/prebuild/PLAT/lib/gcc/libdriver_private_bl.a(gpr.o)
                                                  ../../../../../../../PLAT/prebuild/PLAT/lib/gcc/libdriver_private_bl.a(dma.o)
                                                  ../../../../../../../PLAT/prebuild/PLAT/lib/gcc/libdriver_private_bl.a(ic.o)
                                                  ../../../../../../../PLAT/prebuild/PLAT/lib/gcc/libdriver_private_bl.a(tls.o)
                                                  ../../../../../../../PLAT/prebuild/PLAT/lib/gcc/libbootloader.a(bl_bsp.o)
                                                  ../../../../../../../PLAT/gccout/ec618_0h00/ap/bootloader/lib/libdriver.a(i2s.o)
GPR_swResetModule                                 ../../../../../../../PLAT/prebuild/PLAT/lib/gcc/libdriver_private_bl.a(gpr.o)
                                                  ../../../../../../../PLAT/prebuild/PLAT/lib/gcc/libdriver_private_bl.a(uart.o)
                                                  ../../../../../../../PLAT/gccout/ec618_0h00/ap/bootloader/lib/libdriver.a(bsp_usart.o)
GPR_switchSystickClk                              ../../../../../../../PLAT/prebuild/PLAT/lib/gcc/libdriver_private_bl.a(gpr.o)
GPR_testPinSel                                    ../../../../../../../PLAT/prebuild/PLAT/lib/gcc/libdriver_private_bl.a(gpr.o)
GPR_unilogSWReset                                 ../../../../../../../PLAT/prebuild/PLAT/lib/gcc/libdriver_private_bl.a(gpr.o)
GPR_usbDMCtrlDisableRst                           ../../../../../../../PLAT/prebuild/PLAT/lib/gcc/libdriver_private_bl.a(gpr.o)
GPR_usbDMCtrlEnableRst                            ../../../../../../../PLAT/prebuild/PLAT/lib/gcc/libdriver_private_bl.a(gpr.o)
GPR_usbUlgClr                                     ../../../../../../../PLAT/prebuild/PLAT/lib/gcc/libdriver_private_bl.a(gpr.o)
GPR_usbUlgSet                                     ../../../../../../../PLAT/prebuild/PLAT/lib/gcc/libdriver_private_bl.a(gpr.o)
GetBRInfo                                         ../../../../../../../PLAT/prebuild/PLAT/lib/gcc/libbootloader.a(bl_bsp.o)
                                                  ../../../../../../../PLAT/prebuild/PLAT/lib/gcc/libbootloader.a(image.o)
GetBackupZoneId                                   ../../../../../../../PLAT/prebuild/PLAT/lib/gcc/libfota.a(fota_patch.o)
                                                  ../../../../../../../PLAT/prebuild/PLAT/lib/gcc/libdeltapatch.a(patch_main.o)
GetBurnPartInfo                                   ../../../../../../../PLAT/prebuild/PLAT/lib/gcc/libdriver_private_bl.a(efuse.o)
GetCacheHitRate                                   ../../../../../../../PLAT/prebuild/PLAT/lib/gcc/libdriver_private_bl.a(cache.o)
GetDltFileZoneId                                  ../../../../../../../PLAT/prebuild/PLAT/lib/gcc/libfota.a(fota_patch.o)
                                                  ../../../../../../../PLAT/prebuild/PLAT/lib/gcc/libdeltapatch.a(patch_main.o)
GetNewZoneIdFromContext                           ../../../../../../../PLAT/prebuild/PLAT/lib/gcc/libdeltapatch.a(patch_main.o)
GetOldZoneIdFromContext                           ../../../../../../../PLAT/prebuild/PLAT/lib/gcc/libdeltapatch.a(patch_main.o)
GetSetupReqPtr                                    ../../../../../../../PLAT/prebuild/PLAT/lib/gcc/libusbbl_priv.a(usbd_multi.o)
GetVerifyPubKey                                   ../../../../../../../PLAT/prebuild/PLAT/lib/gcc/libbootloader.a(image.o)
HAL_Get_ChipID                                    ../../../../../../../PLAT/gccout/ec618_0h00/ap/bootloader/lib/libdriver.a(hal_misc.o)
HAL_I2SGetTotalNum                                ../../../../../../../PLAT/gccout/ec618_0h00/ap/bootloader/lib/libdriver.a(hal_i2s.o)
HAL_I2SSetPlayRecord                              ../../../../../../../PLAT/gccout/ec618_0h00/ap/bootloader/lib/libdriver.a(hal_i2s.o)
HAL_I2SSetTotalNum                                ../../../../../../../PLAT/gccout/ec618_0h00/ap/bootloader/lib/libdriver.a(hal_i2s.o)
HAL_I2sConfig                                     ../../../../../../../PLAT/gccout/ec618_0h00/ap/bootloader/lib/libdriver.a(hal_i2s.o)
HAL_I2sInit                                       ../../../../../../../PLAT/gccout/ec618_0h00/ap/bootloader/lib/libdriver.a(hal_i2s.o)
HAL_I2sSrcAdjustVolumn                            ../../../../../../../PLAT/gccout/ec618_0h00/ap/bootloader/lib/libdriver.a(hal_i2s.o)
HAL_I2sStartSop                                   ../../../../../../../PLAT/gccout/ec618_0h00/ap/bootloader/lib/libdriver.a(hal_i2s.o)
HAL_I2sTransfer                                   ../../../../../../../PLAT/gccout/ec618_0h00/ap/bootloader/lib/libdriver.a(hal_i2s.o)
HAL_QSPI_Command                                  ../../../../../../../PLAT/prebuild/PLAT/lib/gcc/libdriver_private_bl.a(qspi.o)
                                                  ../../../../../../../PLAT/prebuild/PLAT/lib/gcc/libdriver_private_bl.a(flash.o)
HAL_QSPI_Config                                   ../../../../../../../PLAT/prebuild/PLAT/lib/gcc/libdriver_private_bl.a(qspi.o)
                                                  ../../../../../../../PLAT/prebuild/PLAT/lib/gcc/libdriver_private_bl.a(flash.o)
HAL_QSPI_DeInit                                   ../../../../../../../PLAT/prebuild/PLAT/lib/gcc/libdriver_private_bl.a(qspi.o)
HAL_QSPI_GetError                                 ../../../../../../../PLAT/prebuild/PLAT/lib/gcc/libdriver_private_bl.a(qspi.o)
HAL_QSPI_GetState                                 ../../../../../../../PLAT/prebuild/PLAT/lib/gcc/libdriver_private_bl.a(qspi.o)
HAL_QSPI_Init                                     ../../../../../../../PLAT/prebuild/PLAT/lib/gcc/libdriver_private_bl.a(qspi.o)
                                                  ../../../../../../../PLAT/prebuild/PLAT/lib/gcc/libdriver_private_bl.a(flash.o)
                                                  ../../../../../../../PLAT/prebuild/PLAT/lib/gcc/libbootloader.a(bl_bsp.o)
HAL_QSPI_Read_Status_Data                         ../../../../../../../PLAT/prebuild/PLAT/lib/gcc/libdriver_private_bl.a(qspi.o)
HAL_QSPI_Receive                                  ../../../../../../../PLAT/prebuild/PLAT/lib/gcc/libdriver_private_bl.a(qspi.o)
                                                  ../../../../../../../PLAT/prebuild/PLAT/lib/gcc/libdriver_private_bl.a(flash.o)
HAL_QSPI_Set_Clk                                  ../../../../../../../PLAT/prebuild/PLAT/lib/gcc/libdriver_private_bl.a(qspi.o)
                                                  ../../../../../../../PLAT/prebuild/PLAT/lib/gcc/libbootloader.a(bl_bsp.o)
HAL_QSPI_Set_Clk_68M_BOOTQUICK                    ../../../../../../../PLAT/gccout/ec618_0h00/ap/bootloader/lib/libstartup.a(system_ec618.o)
HAL_QSPI_Transmit                                 ../../../../../../../PLAT/prebuild/PLAT/lib/gcc/libdriver_private_bl.a(qspi.o)
                                                  ../../../../../../../PLAT/prebuild/PLAT/lib/gcc/libdriver_private_bl.a(flash.o)
HAL_QSPI_Transmit_Exception                       ../../../../../../../PLAT/prebuild/PLAT/lib/gcc/libdriver_private_bl.a(qspi.o)
                                                  ../../../../../../../PLAT/prebuild/PLAT/lib/gcc/libdriver_private_bl.a(flash.o)
HAL_QSPI_XIP_Enable                               ../../../../../../../PLAT/prebuild/PLAT/lib/gcc/libdriver_private_bl.a(qspi.o)
                                                  ../../../../../../../PLAT/prebuild/PLAT/lib/gcc/libdriver_private_bl.a(flash.o)
HardFault_Handler                                 ../../../../../../../PLAT/gccout/ec618_0h00/ap/bootloader/lib/libstartup.a(startup_ec618_gcc.o)
HardFault_Hook_Handler                            ../../../../../../../PLAT/gccout/ec618_0h00/ap/bootloader/PLAT/project/ec618_0h00/ap/apps/bootloader/code/except/exception_handler.o
IC_Powoff                                         ../../../../../../../PLAT/prebuild/PLAT/lib/gcc/libdriver_private_bl.a(ic.o)
IC_PowupInit                                      ../../../../../../../PLAT/prebuild/PLAT/lib/gcc/libdriver_private_bl.a(ic.o)
Image$$AP_IRAM_XIP_START$$Base                    ../../../../../../../PLAT/gccout/ec618_0h00/ap/bootloader/lib/libstartup.a(prec_init.o)
Image$$AP_IRAM_XIP_START$$Length                  ../../../../../../../PLAT/gccout/ec618_0h00/ap/bootloader/lib/libstartup.a(prec_init.o)
Image$$LOAD_DRAM_SHARED$$Base                     ../../../../../../../PLAT/gccout/ec618_0h00/ap/bootloader/lib/libstartup.a(prec_init.o)
Image$$LOAD_DRAM_SHARED$$Length                   ../../../../../../../PLAT/gccout/ec618_0h00/ap/bootloader/lib/libstartup.a(prec_init.o)
Image$$LOAD_DRAM_SHARED$$ZI$$Base                 ../../../../../../../PLAT/gccout/ec618_0h00/ap/bootloader/lib/libstartup.a(prec_init.o)
Image$$LOAD_DRAM_SHARED$$ZI$$Limit                ../../../../../../../PLAT/gccout/ec618_0h00/ap/bootloader/lib/libstartup.a(prec_init.o)
Image$$LOAD_DRAM_USB_DATA$$Base                   ../../../../../../../PLAT/gccout/ec618_0h00/ap/bootloader/lib/libstartup.a(prec_init.o)
Image$$LOAD_DRAM_USB_DATA$$Length                 ../../../../../../../PLAT/gccout/ec618_0h00/ap/bootloader/lib/libstartup.a(prec_init.o)
Image$$LOAD_DRAM_USB_DATA$$ZI$$Base               ../../../../../../../PLAT/gccout/ec618_0h00/ap/bootloader/lib/libstartup.a(prec_init.o)
Image$$LOAD_DRAM_USB_DATA$$ZI$$Limit              ../../../../../../../PLAT/gccout/ec618_0h00/ap/bootloader/lib/libstartup.a(prec_init.o)
Image$$LOAD_IRAM$$Base                            ../../../../../../../PLAT/gccout/ec618_0h00/ap/bootloader/lib/libstartup.a(prec_init.o)
Image$$LOAD_IRAM$$Length                          ../../../../../../../PLAT/gccout/ec618_0h00/ap/bootloader/lib/libstartup.a(prec_init.o)
Image$$LOAD_IRAM_PRE1$$Base                       ../../../../../../../PLAT/gccout/ec618_0h00/ap/bootloader/lib/libstartup.a(prec_init.o)
Image$$LOAD_IRAM_PRE1$$Length                     ../../../../../../../PLAT/gccout/ec618_0h00/ap/bootloader/lib/libstartup.a(prec_init.o)
Image$$LOAD_IRAM_PRE2$$Base                       ../../../../../../../PLAT/gccout/ec618_0h00/ap/bootloader/lib/libstartup.a(prec_init.o)
Image$$LOAD_IRAM_PRE2$$Length                     ../../../../../../../PLAT/gccout/ec618_0h00/ap/bootloader/lib/libstartup.a(prec_init.o)
Image$$LOAD_IRAM_USB$$Base                        ../../../../../../../PLAT/gccout/ec618_0h00/ap/bootloader/lib/libstartup.a(prec_init.o)
Image$$LOAD_IRAM_USB$$Length                      ../../../../../../../PLAT/gccout/ec618_0h00/ap/bootloader/lib/libstartup.a(prec_init.o)
ImageGeneralRead                                  ../../../../../../../PLAT/prebuild/PLAT/lib/gcc/libbootloader.a(image.o)
                                                  ../../../../../../../PLAT/prebuild/PLAT/lib/gcc/libdeltapatch.a(fakefs.o)
IsHardFault                                       ../../../../../../../PLAT/prebuild/PLAT/lib/gcc/libdriver_private_bl.a(flash.o)
IsICacheEnabled                                   ../../../../../../../PLAT/prebuild/PLAT/lib/gcc/libdriver_private_bl.a(cache.o)
IsSecuritySupport                                 ../../../../../../../PLAT/prebuild/PLAT/lib/gcc/libbootloader.a(image.o)
LFS_adjustDaemonTaskPriority                      ../../../../../../../PLAT/prebuild/PLAT/lib/gcc/libosa.a(ostask.o)
LFS_blockCallback                                 ../../../../../../../PLAT/prebuild/PLAT/lib/gcc/libosa.a(osanvm.o)
LFS_fileClose                                     ../../../../../../../PLAT/prebuild/PLAT/lib/gcc/libosa.a(osasys.o)
LFS_fileCloseUnsafe                               ../../../../../../../PLAT/prebuild/PLAT/lib/gcc/libosa.a(osanvm.o)
LFS_fileOpen                                      ../../../../../../../PLAT/prebuild/PLAT/lib/gcc/libosa.a(osasys.o)
LFS_fileOpenUnsafe                                ../../../../../../../PLAT/prebuild/PLAT/lib/gcc/libosa.a(osanvm.o)
LFS_fileRead                                      ../../../../../../../PLAT/prebuild/PLAT/lib/gcc/libosa.a(osasys.o)
LFS_fileReadUnsafe                                ../../../../../../../PLAT/prebuild/PLAT/lib/gcc/libosa.a(osanvm.o)
LFS_fileRewind                                    ../../../../../../../PLAT/prebuild/PLAT/lib/gcc/libosa.a(osasys.o)
LFS_fileSeek                                      ../../../../../../../PLAT/prebuild/PLAT/lib/gcc/libosa.a(osasys.o)
LFS_fileSize                                      ../../../../../../../PLAT/prebuild/PLAT/lib/gcc/libosa.a(osasys.o)
LFS_fileTell                                      ../../../../../../../PLAT/prebuild/PLAT/lib/gcc/libosa.a(osasys.o)
LFS_fileWrite                                     ../../../../../../../PLAT/prebuild/PLAT/lib/gcc/libosa.a(osasys.o)
LFS_fileWriteUnsafe                               ../../../../../../../PLAT/prebuild/PLAT/lib/gcc/libosa.a(osanvm.o)
LFS_init                                          ../../../../../../../PLAT/prebuild/PLAT/lib/gcc/libosa.a(ostask.o)
LFS_remove                                        ../../../../../../../PLAT/prebuild/PLAT/lib/gcc/libosa.a(osasys.o)
LFS_removeUnsafe                                  ../../../../../../../PLAT/prebuild/PLAT/lib/gcc/libosa.a(osanvm.o)
LPUART_WakeupIntHandler                           ../../../../../../../PLAT/gccout/ec618_0h00/ap/bootloader/lib/libstartup.a(startup_ec618_gcc.o)
LPUSB_WakeupIntHandler                            ../../../../../../../PLAT/gccout/ec618_0h00/ap/bootloader/lib/libstartup.a(startup_ec618_gcc.o)
Load$$AP_IRAM_XIP_START$$Base                     ../../../../../../../PLAT/gccout/ec618_0h00/ap/bootloader/lib/libstartup.a(prec_init.o)
Load$$LOAD_DRAM_SHARED$$Base                      ../../../../../../../PLAT/gccout/ec618_0h00/ap/bootloader/lib/libstartup.a(prec_init.o)
Load$$LOAD_DRAM_USB_DATA$$Base                    ../../../../../../../PLAT/gccout/ec618_0h00/ap/bootloader/lib/libstartup.a(prec_init.o)
Load$$LOAD_IRAM$$Base                             ../../../../../../../PLAT/gccout/ec618_0h00/ap/bootloader/lib/libstartup.a(prec_init.o)
Load$$LOAD_IRAM_PRE1$$Base                        ../../../../../../../PLAT/gccout/ec618_0h00/ap/bootloader/lib/libstartup.a(prec_init.o)
Load$$LOAD_IRAM_PRE2$$Base                        ../../../../../../../PLAT/gccout/ec618_0h00/ap/bootloader/lib/libstartup.a(prec_init.o)
Load$$LOAD_IRAM_USB$$Base                         ../../../../../../../PLAT/gccout/ec618_0h00/ap/bootloader/lib/libstartup.a(prec_init.o)
LoadVerifyImageBody                               ../../../../../../../PLAT/prebuild/PLAT/lib/gcc/libbootloader.a(image.o)
LoadVerifyImageHead                               ../../../../../../../PLAT/prebuild/PLAT/lib/gcc/libbootloader.a(image.o)
MPPMU_AON0_HIBV_RD                                ../../../../../../../PLAT/prebuild/PLAT/lib/gcc/libusbbl_priv.a(usbc_bsp.o)
MPPMU_AON0_HIBV_WR                                ../../../../../../../PLAT/prebuild/PLAT/lib/gcc/libusbbl_priv.a(usbc_bsp.o)
MPPMU_SLPMODE_CFG_NORET                           ../../../../../../../PLAT/prebuild/PLAT/lib/gcc/libusbbl_priv.a(usbc_bsp.o)
MPPMU_SLPMODE_CFG_VAL                             ../../../../../../../PLAT/prebuild/PLAT/lib/gcc/libusbbl_priv.a(usbc_bsp.o)
MPPMU_USBAON_RD                                   ../../../../../../../PLAT/prebuild/PLAT/lib/gcc/libusbbl_priv.a(usbc_bsp.o)
MPPMU_USBAON_WR                                   ../../../../../../../PLAT/prebuild/PLAT/lib/gcc/libusbbl_priv.a(usbc_bsp.o)
MemManage_Handler                                 ../../../../../../../PLAT/gccout/ec618_0h00/ap/bootloader/lib/libstartup.a(startup_ec618_gcc.o)
NAU88C22GetFs                                     ../../../../../../../PLAT/gccout/ec618_0h00/ap/bootloader/lib/libdriver.a(nau88c22.o)
NAU88C22GetRegCnt                                 ../../../../../../../PLAT/gccout/ec618_0h00/ap/bootloader/lib/libdriver.a(nau88c22.o)
NAU88C22_slaveRegInfo                             ../../../../../../../PLAT/gccout/ec618_0h00/ap/bootloader/lib/libdriver.a(nau88c22.o)
NMI_Handler                                       ../../../../../../../PLAT/gccout/ec618_0h00/ap/bootloader/PLAT/project/ec618_0h00/ap/apps/bootloader/code/main/ec_main.o
NetMgrGetNetInfo                                  ../../../../../../../PLAT/prebuild/PLAT/lib/gcc/libmiddleware_ec_private.a(psstk_bip.o)
NetMgrLinkUp                                      ../../../../../../../PLAT/prebuild/PLAT/lib/gcc/libmiddleware_ec_private.a(psstk_bip.o)
OIDSupportedList                                  ../../../../../../../PLAT/gccout/ec618_0h00/ap/bootloader/lib/libdriver.a(rndis_protocol.o)
OsDummyTask                                       ../../../../../../../PLAT/prebuild/PLAT/lib/gcc/libosa.a(ostask.o)
OsaAllocDlPduBlock                                ../../../../../../../PLAT/prebuild/PLAT/lib/gcc/libosa.a(osautil.o)
OsaBeZeroMemory                                   ../../../../../../../PLAT/prebuild/PLAT/lib/gcc/libosa.a(osautil.o)
OsaBit0Search                                     ../../../../../../../PLAT/prebuild/PLAT/lib/gcc/libosa.a(osautil.o)
OsaBit1Search                                     ../../../../../../../PLAT/prebuild/PLAT/lib/gcc/libosa.a(osautil.o)
OsaCalcCrcValue                                   ../../../../../../../PLAT/prebuild/PLAT/lib/gcc/libosa.a(osasys.o)
OsaCfgNvmAddParam                                 ../../../../../../../PLAT/prebuild/PLAT/lib/gcc/libosa.a(osacfgnvm.o)
OsaCfgNvmGetNextParam                             ../../../../../../../PLAT/prebuild/PLAT/lib/gcc/libosa.a(osacfgnvm.o)
OsaCfgNvmGetParam                                 ../../../../../../../PLAT/prebuild/PLAT/lib/gcc/libosa.a(osacfgnvm.o)
OsaCfgNvmRemoveParamFromParseInfo                 ../../../../../../../PLAT/prebuild/PLAT/lib/gcc/libosa.a(osacfgnvm.o)
OsaCfgNvmRemoveParamId                            ../../../../../../../PLAT/prebuild/PLAT/lib/gcc/libosa.a(osacfgnvm.o)
OsaCfgNvmUpdateParam                              ../../../../../../../PLAT/prebuild/PLAT/lib/gcc/libosa.a(osacfgnvm.o)
OsaCreateFastSignal                               ../../../../../../../PLAT/prebuild/PLAT/lib/gcc/libosa.a(osasig.o)
OsaCreateSignal                                   ../../../../../../../PLAT/prebuild/PLAT/lib/gcc/libosa.a(osasig.o)
OsaCreateZeroFastSignal                           ../../../../../../../PLAT/prebuild/PLAT/lib/gcc/libosa.a(osasig.o)
OsaCreateZeroSignal                               ../../../../../../../PLAT/prebuild/PLAT/lib/gcc/libosa.a(osasig.o)
                                                  ../../../../../../../PLAT/prebuild/PLAT/lib/gcc/libmiddleware_ec_private.a(simbip.o)
                                                  ../../../../../../../PLAT/prebuild/PLAT/lib/gcc/libmiddleware_ec_private.a(psstk_bip.o)
                                                  ../../../../../../../PLAT/prebuild/PLAT/lib/gcc/libosa.a(osasys.o)
OsaDestroyFastSignal                              ../../../../../../../PLAT/prebuild/PLAT/lib/gcc/libosa.a(osasig.o)
OsaDestroySignal                                  ../../../../../../../PLAT/prebuild/PLAT/lib/gcc/libosa.a(osasig.o)
                                                  ../../../../../../../PLAT/prebuild/PLAT/lib/gcc/libmiddleware_ec_private.a(simbip.o)
OsaDlfcFreeMem                                    ../../../../../../../PLAT/prebuild/PLAT/lib/gcc/libosa.a(osautil.o)
OsaFclose                                         ../../../../../../../PLAT/prebuild/PLAT/lib/gcc/libosa.a(osasys.o)
OsaFopen                                          ../../../../../../../PLAT/prebuild/PLAT/lib/gcc/libosa.a(osasys.o)
OsaFread                                          ../../../../../../../PLAT/prebuild/PLAT/lib/gcc/libosa.a(osasys.o)
OsaFreeDlPduBlockList                             ../../../../../../../PLAT/prebuild/PLAT/lib/gcc/libosa.a(osautil.o)
                                                  ../../../../../../../PLAT/prebuild/PLAT/lib/gcc/libccio.a(serial_entity.o)
OsaFreeOneDlPduBlock                              ../../../../../../../PLAT/prebuild/PLAT/lib/gcc/libosa.a(osautil.o)
                                                  ../../../../../../../PLAT/prebuild/PLAT/lib/gcc/libccio.a(serial_entity.o)
OsaFreeOneUlPduBlock                              ../../../../../../../PLAT/prebuild/PLAT/lib/gcc/libosa.a(osautil.o)
OsaFreeUlPduBlockList                             ../../../../../../../PLAT/prebuild/PLAT/lib/gcc/libosa.a(osautil.o)
OsaFremove                                        ../../../../../../../PLAT/prebuild/PLAT/lib/gcc/libosa.a(osasys.o)
OsaFseek                                          ../../../../../../../PLAT/prebuild/PLAT/lib/gcc/libosa.a(osasys.o)
OsaFsize                                          ../../../../../../../PLAT/prebuild/PLAT/lib/gcc/libosa.a(osasys.o)
OsaFtell                                          ../../../../../../../PLAT/prebuild/PLAT/lib/gcc/libosa.a(osasys.o)
OsaFwrite                                         ../../../../../../../PLAT/prebuild/PLAT/lib/gcc/libosa.a(osasys.o)
OsaGetBufBitsValue                                ../../../../../../../PLAT/prebuild/PLAT/lib/gcc/libosa.a(osautil.o)
                                                  ../../../../../../../PLAT/prebuild/PLAT/lib/gcc/libosa.a(asn1util.o)
OsaGetFlashValue                                  ../../../../../../../PLAT/prebuild/PLAT/lib/gcc/libosa.a(osasys.o)
OsaGetImeiNumSync                                 ../../../../../../../PLAT/prebuild/PLAT/lib/gcc/libosa.a(osasys.o)
OsaGetSignalCount                                 ../../../../../../../PLAT/prebuild/PLAT/lib/gcc/libosa.a(osasig.o)
OsaGetSignalSpace                                 ../../../../../../../PLAT/prebuild/PLAT/lib/gcc/libosa.a(osasig.o)
OsaGetUlRbufPendingFreeList                       ../../../../../../../PLAT/prebuild/PLAT/lib/gcc/libosa.a(osautil.o)
OsaHibTimerExpiryCallback                         ../../../../../../../PLAT/prebuild/PLAT/lib/gcc/libosa.a(osasys.o)
OsaHibTimerGetRemainMs                            ../../../../../../../PLAT/prebuild/PLAT/lib/gcc/libosa.a(osasys.o)
OsaHibTimerIsRunning                              ../../../../../../../PLAT/prebuild/PLAT/lib/gcc/libosa.a(osasys.o)
OsaHibTimerStart                                  ../../../../../../../PLAT/prebuild/PLAT/lib/gcc/libosa.a(osasys.o)
OsaHibTimerStopAndDel                             ../../../../../../../PLAT/prebuild/PLAT/lib/gcc/libosa.a(osasys.o)
OsaIeMemAllocate                                  ../../../../../../../PLAT/prebuild/PLAT/lib/gcc/libosa.a(osautil.o)
                                                  ../../../../../../../PLAT/prebuild/PLAT/lib/gcc/libosa.a(asn1util.o)
OsaIeMemDestroy                                   ../../../../../../../PLAT/prebuild/PLAT/lib/gcc/libosa.a(osautil.o)
OsaIeMemInit                                      ../../../../../../../PLAT/prebuild/PLAT/lib/gcc/libosa.a(osautil.o)
OsaMemPoolAlloc                                   ../../../../../../../PLAT/prebuild/PLAT/lib/gcc/libosa.a(osamempool.o)
OsaMemPoolFree                                    ../../../../../../../PLAT/prebuild/PLAT/lib/gcc/libosa.a(osamempool.o)
                                                  ../../../../../../../PLAT/prebuild/PLAT/lib/gcc/libosa.a(osasig.o)
OsaMemPoolIdAlloc                                 ../../../../../../../PLAT/prebuild/PLAT/lib/gcc/libosa.a(osamempool.o)
                                                  ../../../../../../../PLAT/prebuild/PLAT/lib/gcc/libosa.a(osasig.o)
OsaMemPoolInit                                    ../../../../../../../PLAT/prebuild/PLAT/lib/gcc/libosa.a(osamempool.o)
                                                  ../../../../../../../PLAT/prebuild/PLAT/lib/gcc/libosa.a(ostask.o)
OsaNvmAllocBody                                   ../../../../../../../PLAT/prebuild/PLAT/lib/gcc/libosa.a(osanvm.o)
                                                  ../../../../../../../PLAT/prebuild/PLAT/lib/gcc/libosa.a(osacfgnvm.o)
OsaNvmFreeBody                                    ../../../../../../../PLAT/prebuild/PLAT/lib/gcc/libosa.a(osanvm.o)
OsaNvmReAllocBody                                 ../../../../../../../PLAT/prebuild/PLAT/lib/gcc/libosa.a(osanvm.o)
                                                  ../../../../../../../PLAT/prebuild/PLAT/lib/gcc/libosa.a(osacfgnvm.o)
OsaNvmRead                                        ../../../../../../../PLAT/prebuild/PLAT/lib/gcc/libosa.a(osanvm.o)
OsaNvmRemove                                      ../../../../../../../PLAT/prebuild/PLAT/lib/gcc/libosa.a(osanvm.o)
OsaNvmWrite                                       ../../../../../../../PLAT/prebuild/PLAT/lib/gcc/libosa.a(osanvm.o)
OsaRand                                           ../../../../../../../PLAT/prebuild/PLAT/lib/gcc/libosa.a(osasys.o)
OsaReceiveCustSignal                              ../../../../../../../PLAT/prebuild/PLAT/lib/gcc/libosa.a(osasig.o)
OsaReceiveSignal                                  ../../../../../../../PLAT/prebuild/PLAT/lib/gcc/libosa.a(osasig.o)
OsaSendCustNoLogSignal                            ../../../../../../../PLAT/prebuild/PLAT/lib/gcc/libosa.a(osasig.o)
OsaSendDumpSignal                                 ../../../../../../../PLAT/prebuild/PLAT/lib/gcc/libosa.a(osasig.o)
                                                  ../../../../../../../PLAT/prebuild/PLAT/lib/gcc/libmiddleware_ec_private.a(simbip.o)
                                                  ../../../../../../../PLAT/prebuild/PLAT/lib/gcc/libmiddleware_ec_private.a(psstk_bip.o)
                                                  ../../../../../../../PLAT/prebuild/PLAT/lib/gcc/libosa.a(osasys.o)
OsaSendNoDumpSignal                               ../../../../../../../PLAT/prebuild/PLAT/lib/gcc/libosa.a(osasig.o)
OsaSendNoLogSignal                                ../../../../../../../PLAT/prebuild/PLAT/lib/gcc/libosa.a(osasig.o)
OsaSendSignalToFront                              ../../../../../../../PLAT/prebuild/PLAT/lib/gcc/libosa.a(osasig.o)
OsaSetBufBitsValue                                ../../../../../../../PLAT/prebuild/PLAT/lib/gcc/libosa.a(osautil.o)
                                                  ../../../../../../../PLAT/prebuild/PLAT/lib/gcc/libosa.a(asn1util.o)
OsaSetFlashValue                                  ../../../../../../../PLAT/prebuild/PLAT/lib/gcc/libosa.a(osasys.o)
OsaSrand                                          ../../../../../../../PLAT/prebuild/PLAT/lib/gcc/libosa.a(osasys.o)
                                                  ../../../../../../../PLAT/prebuild/PLAT/lib/gcc/libosa.a(ostask.o)
OsaSystemTimeReadRamUtc                           ../../../../../../../PLAT/prebuild/PLAT/lib/gcc/libosa.a(osasys.o)
OsaSystemTimeReadSecs                             ../../../../../../../PLAT/prebuild/PLAT/lib/gcc/libosa.a(osasys.o)
OsaSystemTimeReadUtc                              ../../../../../../../PLAT/prebuild/PLAT/lib/gcc/libosa.a(osasys.o)
OsaTaskFlagsClear                                 ../../../../../../../PLAT/prebuild/PLAT/lib/gcc/libosa.a(osasys.o)
OsaTaskFlagsSet                                   ../../../../../../../PLAT/prebuild/PLAT/lib/gcc/libosa.a(osasys.o)
OsaTaskFlagsWait                                  ../../../../../../../PLAT/prebuild/PLAT/lib/gcc/libosa.a(osasys.o)
OsaTimerExpiryFunc                                ../../../../../../../PLAT/prebuild/PLAT/lib/gcc/libosa.a(osasys.o)
OsaTimerGetRemainTicks                            ../../../../../../../PLAT/prebuild/PLAT/lib/gcc/libosa.a(osasys.o)
OsaTimerSync                                      ../../../../../../../PLAT/prebuild/PLAT/lib/gcc/libosa.a(osasys.o)
OsaUintBit0Search                                 ../../../../../../../PLAT/prebuild/PLAT/lib/gcc/libosa.a(osasys.o)
OsaUintBit1Search                                 ../../../../../../../PLAT/prebuild/PLAT/lib/gcc/libosa.a(osasys.o)
OsaUlfcAllocMem                                   ../../../../../../../PLAT/prebuild/PLAT/lib/gcc/libccio.a(serial_entity.o)
OsaUlfcFreeMem                                    ../../../../../../../PLAT/prebuild/PLAT/lib/gcc/libccio.a(serial_entity.o)
                                                  ../../../../../../../PLAT/prebuild/PLAT/lib/gcc/libosa.a(osautil.o)
OsaUlfcQueryMemAvlbSize                           ../../../../../../../PLAT/prebuild/PLAT/lib/gcc/libccio.a(serial_entity.o)
PAD_driverDeInit                                  ../../../../../../../PLAT/gccout/ec618_0h00/ap/bootloader/lib/libdriver.a(pad.o)
PAD_driverInit                                    ../../../../../../../PLAT/gccout/ec618_0h00/ap/bootloader/lib/libdriver.a(pad.o)
                                                  ../../../../../../../PLAT/prebuild/PLAT/lib/gcc/libbootloader.a(bl_bsp.o)
PAD_enablePinInputBuffer                          ../../../../../../../PLAT/gccout/ec618_0h00/ap/bootloader/lib/libdriver.a(pad.o)
PAD_getDefaultConfig                              ../../../../../../../PLAT/gccout/ec618_0h00/ap/bootloader/lib/libdriver.a(pad.o)
                                                  ../../../../../../../PLAT/gccout/ec618_0h00/ap/bootloader/lib/libdriver.a(oneWire.o)
                                                  ../../../../../../../PLAT/gccout/ec618_0h00/ap/bootloader/lib/libdriver.a(i2s.o)
                                                  ../../../../../../../PLAT/gccout/ec618_0h00/ap/bootloader/lib/libdriver.a(bsp_usart.o)
                                                  ../../../../../../../PLAT/gccout/ec618_0h00/ap/bootloader/lib/libdriver.a(drv_odm_gpio.o)
PAD_setPinConfig                                  ../../../../../../../PLAT/gccout/ec618_0h00/ap/bootloader/lib/libdriver.a(pad.o)
                                                  ../../../../../../../PLAT/gccout/ec618_0h00/ap/bootloader/lib/libdriver.a(oneWire.o)
                                                  ../../../../../../../PLAT/gccout/ec618_0h00/ap/bootloader/lib/libdriver.a(i2s.o)
                                                  ../../../../../../../PLAT/gccout/ec618_0h00/ap/bootloader/lib/libdriver.a(bsp_usart.o)
                                                  ../../../../../../../PLAT/gccout/ec618_0h00/ap/bootloader/lib/libdriver.a(drv_odm_gpio.o)
PAD_setPinMux                                     ../../../../../../../PLAT/gccout/ec618_0h00/ap/bootloader/lib/libdriver.a(pad.o)
PAD_setPinPullConfig                              ../../../../../../../PLAT/gccout/ec618_0h00/ap/bootloader/lib/libdriver.a(pad.o)
                                                  ../../../../../../../PLAT/gccout/ec618_0h00/ap/bootloader/lib/libdriver.a(drv_odm_gpio.o)
Pad0_WakeupIntHandler                             ../../../../../../../PLAT/gccout/ec618_0h00/ap/bootloader/lib/libstartup.a(startup_ec618_gcc.o)
Pad1_WakeupIntHandler                             ../../../../../../../PLAT/gccout/ec618_0h00/ap/bootloader/lib/libstartup.a(startup_ec618_gcc.o)
Pad2_WakeupIntHandler                             ../../../../../../../PLAT/gccout/ec618_0h00/ap/bootloader/lib/libstartup.a(startup_ec618_gcc.o)
Pad3_WakeupIntHandler                             ../../../../../../../PLAT/gccout/ec618_0h00/ap/bootloader/lib/libstartup.a(startup_ec618_gcc.o)
Pad4_WakeupIntHandler                             ../../../../../../../PLAT/gccout/ec618_0h00/ap/bootloader/lib/libstartup.a(startup_ec618_gcc.o)
Pad5_WakeupIntHandler                             ../../../../../../../PLAT/gccout/ec618_0h00/ap/bootloader/lib/libstartup.a(startup_ec618_gcc.o)
PartId                                            ../../../../../../../PLAT/prebuild/PLAT/lib/gcc/libdriver_private_bl.a(efuse.o)
PatchFileGetPartOffst                             ../../../../../../../PLAT/prebuild/PLAT/lib/gcc/libdeltapatch.a(patch_main.o)
PendSV_Handler                                    ../../../../../../../PLAT/gccout/ec618_0h00/ap/bootloader/lib/libstartup.a(startup_ec618_gcc.o)
PhyCmiRequest                                     ../../../../../../../PLAT/prebuild/PLAT/lib/gcc/libdriver_private_bl.a(acmsgtype.o)
PhyDebugPrint                                     ../../../../../../../PLAT/gccout/ec618_0h00/ap/bootloader/PLAT/project/ec618_0h00/ap/apps/bootloader/code/main/stub_os.o
PhyLogLevelGet                                    ../../../../../../../PLAT/gccout/ec618_0h00/ap/bootloader/PLAT/project/ec618_0h00/ap/apps/bootloader/code/main/stub_os.o
Phy_reset_gpio_Init                               ../../../../../../../PLAT/prebuild/PLAT/lib/gcc/libusbbl_priv.a(usbc_bsp.o)
PsDlPkgFree                                       ../../../../../../../PLAT/prebuild/PLAT/lib/gcc/libosa.a(osautil.o)
PsInit                                            ../../../../../../../PLAT/prebuild/PLAT/lib/gcc/libosa.a(ostask.o)
PsInitialiseTasks                                 ../../../../../../../PLAT/prebuild/PLAT/lib/gcc/libosa.a(ostask.o)
PsOsCreateQueue                                   ../../../../../../../PLAT/prebuild/PLAT/lib/gcc/libosa.a(ostask.o)
PsOsCreateTask                                    ../../../../../../../PLAT/prebuild/PLAT/lib/gcc/libosa.a(ostask.o)
PsOsGetLwipTaskMemory                             ../../../../../../../PLAT/prebuild/PLAT/lib/gcc/libosa.a(ostask.o)
PsifFreeUlIpPkgMem                                ../../../../../../../PLAT/prebuild/PLAT/lib/gcc/libosa.a(osautil.o)
PwrKey_WakeupIntHandler                           ../../../../../../../PLAT/gccout/ec618_0h00/ap/bootloader/lib/libstartup.a(startup_ec618_gcc.o)
QSPI_CheckQEnFlag                                 ../../../../../../../PLAT/prebuild/PLAT/lib/gcc/libdriver_private_bl.a(flash.o)
                                                  ../../../../../../../PLAT/prebuild/PLAT/lib/gcc/libbootloader.a(bl_bsp.o)
QSPI_FLASH_Init_FastInApRam                       ../../../../../../../PLAT/gccout/ec618_0h00/ap/bootloader/lib/libstartup.a(system_ec618.o)
QSPI_FLASH_OTP_Erase                              ../../../../../../../PLAT/prebuild/PLAT/lib/gcc/libdriver_private_bl.a(flash.o)
QSPI_FLASH_OTP_Handle                             ../../../../../../../PLAT/prebuild/PLAT/lib/gcc/libdriver_private_bl.a(flash.o)
QSPI_FLASH_OTP_Lock                               ../../../../../../../PLAT/prebuild/PLAT/lib/gcc/libdriver_private_bl.a(flash.o)
QSPI_FLASH_OTP_Read                               ../../../../../../../PLAT/prebuild/PLAT/lib/gcc/libdriver_private_bl.a(flash.o)
QSPI_FLASH_OTP_Write                              ../../../../../../../PLAT/prebuild/PLAT/lib/gcc/libdriver_private_bl.a(flash.o)
QSPI_FLASH_ReadDeviceID                           ../../../../../../../PLAT/prebuild/PLAT/lib/gcc/libdriver_private_bl.a(flash.o)
QSPI_FLASH_ReadID                                 ../../../../../../../PLAT/prebuild/PLAT/lib/gcc/libdriver_private_bl.a(flash.o)
QSPI_FLASH_ReadUUID                               ../../../../../../../PLAT/prebuild/PLAT/lib/gcc/libdriver_private_bl.a(flash.o)
QSPI_PollingBusyFlagIntableOnce                   ../../../../../../../PLAT/prebuild/PLAT/lib/gcc/libdriver_private_bl.a(flash.o)
QSPI_WaitRxAvailUntilTimeout                      ../../../../../../../PLAT/prebuild/PLAT/lib/gcc/libdriver_private_bl.a(qspi.o)
QfdrRegType1                                      ../../../../../../../PLAT/prebuild/PLAT/lib/gcc/libdriver_private_bl.a(flash.o)
QfdrRegType2                                      ../../../../../../../PLAT/prebuild/PLAT/lib/gcc/libdriver_private_bl.a(flash.o)
QfdrRegType3                                      ../../../../../../../PLAT/prebuild/PLAT/lib/gcc/libdriver_private_bl.a(flash.o)
QfdrRegType4                                      ../../../../../../../PLAT/prebuild/PLAT/lib/gcc/libdriver_private_bl.a(flash.o)
QfdrRegType5                                      ../../../../../../../PLAT/prebuild/PLAT/lib/gcc/libdriver_private_bl.a(flash.o)
QfdrRegType6                                      ../../../../../../../PLAT/prebuild/PLAT/lib/gcc/libdriver_private_bl.a(flash.o)
QfdrRegType7                                      ../../../../../../../PLAT/prebuild/PLAT/lib/gcc/libdriver_private_bl.a(flash.o)
QfdrRegType8                                      ../../../../../../../PLAT/prebuild/PLAT/lib/gcc/libdriver_private_bl.a(flash.o)
RFDIG_SPLL_Clkout_Usb_En_Set                      ../../../../../../../PLAT/prebuild/PLAT/lib/gcc/libusbbl_priv.a(usbc_bsp.o)
RTC_WakeupIntHandler                              ../../../../../../../PLAT/gccout/ec618_0h00/ap/bootloader/lib/libstartup.a(startup_ec618_gcc.o)
RdsProCfgParaHdl                                  ../../../../../../../PLAT/gccout/ec618_0h00/ap/bootloader/lib/libdriver.a(rndis_protocol.o)
RdsProInitalMsgHdl                                ../../../../../../../PLAT/gccout/ec618_0h00/ap/bootloader/lib/libdriver.a(rndis_protocol.o)
                                                  ../../../../../../../PLAT/prebuild/PLAT/lib/gcc/libusbbl_priv.a(function_rndis.o)
RdsProKeepAliveMsgHdl                             ../../../../../../../PLAT/gccout/ec618_0h00/ap/bootloader/lib/libdriver.a(rndis_protocol.o)
                                                  ../../../../../../../PLAT/prebuild/PLAT/lib/gcc/libusbbl_priv.a(function_rndis.o)
RdsProPktFilter                                   ../../../../../../../PLAT/gccout/ec618_0h00/ap/bootloader/lib/libdriver.a(rndis_protocol.o)
RdsProQueryCmplt                                  ../../../../../../../PLAT/gccout/ec618_0h00/ap/bootloader/lib/libdriver.a(rndis_protocol.o)
RdsProQueryCmplt32                                ../../../../../../../PLAT/gccout/ec618_0h00/ap/bootloader/lib/libdriver.a(rndis_protocol.o)
RdsProQueryHdl                                    ../../../../../../../PLAT/gccout/ec618_0h00/ap/bootloader/lib/libdriver.a(rndis_protocol.o)
                                                  ../../../../../../../PLAT/prebuild/PLAT/lib/gcc/libusbbl_priv.a(function_rndis.o)
RdsProResetMsgHdl                                 ../../../../../../../PLAT/gccout/ec618_0h00/ap/bootloader/lib/libdriver.a(rndis_protocol.o)
                                                  ../../../../../../../PLAT/prebuild/PLAT/lib/gcc/libusbbl_priv.a(function_rndis.o)
RdsProSetMsgHdl                                   ../../../../../../../PLAT/gccout/ec618_0h00/ap/bootloader/lib/libdriver.a(rndis_protocol.o)
                                                  ../../../../../../../PLAT/prebuild/PLAT/lib/gcc/libusbbl_priv.a(function_rndis.o)
Reset_Handler                                     ../../../../../../../PLAT/gccout/ec618_0h00/ap/bootloader/lib/libstartup.a(startup_ec618_gcc.o)
RndisGetEncBufSize                                ../../../../../../../PLAT/gccout/ec618_0h00/ap/bootloader/lib/libdriver.a(rndis_protocol.o)
                                                  ../../../../../../../PLAT/prebuild/PLAT/lib/gcc/libusbbl_priv.a(function_rndis.o)
SIPC_ResLock                                      ../../../../../../../PLAT/prebuild/PLAT/lib/gcc/libdriver_private_bl.a(shareinfo.o)
                                                  ../../../../../../../PLAT/prebuild/PLAT/lib/gcc/libdriver_private_bl.a(aonreg.o)
SIPC_ResRelease                                   ../../../../../../../PLAT/prebuild/PLAT/lib/gcc/libdriver_private_bl.a(shareinfo.o)
                                                  ../../../../../../../PLAT/prebuild/PLAT/lib/gcc/libdriver_private_bl.a(aonreg.o)
SVC_Handler                                       ../../../../../../../PLAT/gccout/ec618_0h00/ap/bootloader/lib/libstartup.a(startup_ec618_gcc.o)
SctPppDeEscape                                    ../../../../../../../PLAT/prebuild/PLAT/lib/gcc/libccio.a(serial_entity.o)
SelNormalOrURCPrint                               ../../../../../../../PLAT/prebuild/PLAT/lib/gcc/libbootloader.a(bl_bsp.o)
                                                  ../../../../../../../PLAT/gccout/ec618_0h00/ap/bootloader/lib/libdriver.a(usb_bl_test.o)
                                                  ../../../../../../../PLAT/gccout/ec618_0h00/ap/bootloader/PLAT/middleware/developed/fota/custom/src/fota_custom.o
SendSignaltoSimBipTask                            ../../../../../../../PLAT/prebuild/PLAT/lib/gcc/libmiddleware_ec_private.a(psstk_bip.o)
SetPrintAtUart                                    ../../../../../../../PLAT/prebuild/PLAT/lib/gcc/libbootloader.a(bl_bsp.o)
SetPrintForURC                                    ../../../../../../../PLAT/prebuild/PLAT/lib/gcc/libbootloader.a(bl_bsp.o)
SetZIDataToZero                                   ../../../../../../../PLAT/gccout/ec618_0h00/ap/bootloader/lib/libstartup.a(prec_init.o)
                                                  ../../../../../../../PLAT/gccout/ec618_0h00/ap/bootloader/lib/libstartup.a(system_ec618.o)
SharaInfoGetAddress                               ../../../../../../../PLAT/prebuild/PLAT/lib/gcc/libdriver_private_bl.a(shareinfo.o)
SharaInfoSetAPReservedMem                         ../../../../../../../PLAT/prebuild/PLAT/lib/gcc/libdriver_private_bl.a(shareinfo.o)
ShareInfoAPGetCPLogCtrl                           ../../../../../../../PLAT/prebuild/PLAT/lib/gcc/libdriver_private_bl.a(shareinfo.o)
ShareInfoAPGetCPVersionInfo                       ../../../../../../../PLAT/prebuild/PLAT/lib/gcc/libdriver_private_bl.a(shareinfo.o)
ShareInfoAPGetExcepAddrInfo                       ../../../../../../../PLAT/prebuild/PLAT/lib/gcc/libdriver_private_bl.a(shareinfo.o)
ShareInfoAPGetPhyMeasInfo                         ../../../../../../../PLAT/prebuild/PLAT/lib/gcc/libdriver_private_bl.a(shareinfo.o)
ShareInfoAPGetPhyPagingInfo                       ../../../../../../../PLAT/prebuild/PLAT/lib/gcc/libdriver_private_bl.a(shareinfo.o)
ShareInfoAPGetRfCustomerPrjNameInfo               ../../../../../../../PLAT/prebuild/PLAT/lib/gcc/libdriver_private_bl.a(shareinfo.o)
ShareInfoAPGetRfTableVersionInfo                  ../../../../../../../PLAT/prebuild/PLAT/lib/gcc/libdriver_private_bl.a(shareinfo.o)
ShareInfoAPGetSCellMeasInfo                       ../../../../../../../PLAT/prebuild/PLAT/lib/gcc/libdriver_private_bl.a(shareinfo.o)
ShareInfoAPSetCPExceptionOpt                      ../../../../../../../PLAT/prebuild/PLAT/lib/gcc/libdriver_private_bl.a(shareinfo.o)
ShareInfoAPSetCPLogCtrl                           ../../../../../../../PLAT/prebuild/PLAT/lib/gcc/libdriver_private_bl.a(shareinfo.o)
ShareInfoAPSetCPLogLvl                            ../../../../../../../PLAT/prebuild/PLAT/lib/gcc/libdriver_private_bl.a(shareinfo.o)
ShareInfoAPSetCPWdtCtrl                           ../../../../../../../PLAT/prebuild/PLAT/lib/gcc/libdriver_private_bl.a(shareinfo.o)
ShareInfoAPSetCpExceptCheckPoint                  ../../../../../../../PLAT/prebuild/PLAT/lib/gcc/libdriver_private_bl.a(shareinfo.o)
ShareInfoAPSetExcepAddrInfo                       ../../../../../../../PLAT/prebuild/PLAT/lib/gcc/libdriver_private_bl.a(shareinfo.o)
ShareInfoAPSetPhyCaliMem                          ../../../../../../../PLAT/prebuild/PLAT/lib/gcc/libdriver_private_bl.a(shareinfo.o)
ShareInfoAPSetRamInfo                             ../../../../../../../PLAT/prebuild/PLAT/lib/gcc/libdriver_private_bl.a(shareinfo.o)
ShareInfoGetResetFlag                             ../../../../../../../PLAT/prebuild/PLAT/lib/gcc/libdriver_private_bl.a(shareinfo.o)
ShareInfoInit                                     ../../../../../../../PLAT/prebuild/PLAT/lib/gcc/libdriver_private_bl.a(shareinfo.o)
ShareInfoInitPlatConfig                           ../../../../../../../PLAT/prebuild/PLAT/lib/gcc/libdriver_private_bl.a(shareinfo.o)
ShareInfoRestoreCPShareData                       ../../../../../../../PLAT/prebuild/PLAT/lib/gcc/libdriver_private_bl.a(shareinfo.o)
ShareInfoSetCpAdcValue                            ../../../../../../../PLAT/prebuild/PLAT/lib/gcc/libdriver_private_bl.a(shareinfo.o)
ShareInfoSetRstFlag                               ../../../../../../../PLAT/prebuild/PLAT/lib/gcc/libdriver_private_bl.a(shareinfo.o)
ShareInfoXPGetPhyAtCmdInfoAndSize                 ../../../../../../../PLAT/prebuild/PLAT/lib/gcc/libdriver_private_bl.a(shareinfo.o)
SimBipTaskEntry                                   ../../../../../../../PLAT/prebuild/PLAT/lib/gcc/libmiddleware_ec_private.a(simbip.o)
                                                  ../../../../../../../PLAT/prebuild/PLAT/lib/gcc/libmiddleware_ec_private.a(psstk_bip.o)
SysTickToSlowCounter                              ../../../../../../../PLAT/prebuild/PLAT/lib/gcc/libosa.a(osasys.o)
SysTick_Deinit                                    ../../../../../../../PLAT/prebuild/PLAT/lib/gcc/libbootloader.a(bl_bsp.o)
SysTick_Handler                                   ../../../../../../../PLAT/gccout/ec618_0h00/ap/bootloader/lib/libstartup.a(startup_ec618_gcc.o)
SystemCoreClock                                   ../../../../../../../PLAT/gccout/ec618_0h00/ap/bootloader/lib/libstartup.a(system_ec618.o)
                                                  ../../../../../../../PLAT/prebuild/PLAT/lib/gcc/libdriver_private_bl.a(pwrkey.o)
                                                  ../../../../../../../PLAT/gccout/ec618_0h00/ap/bootloader/lib/libdriver.a(hal_misc.o)
SystemCoreClockUpdate                             ../../../../../../../PLAT/gccout/ec618_0h00/ap/bootloader/lib/libstartup.a(system_ec618.o)
SystemInit                                        ../../../../../../../PLAT/gccout/ec618_0h00/ap/bootloader/lib/libstartup.a(system_ec618.o)
                                                  ../../../../../../../PLAT/gccout/ec618_0h00/ap/bootloader/lib/libstartup.a(startup_ec618_gcc.o)
SystemNormalBootInit                              ../../../../../../../PLAT/prebuild/PLAT/lib/gcc/libbootloader.a(bl_bsp.o)
                                                  ../../../../../../../PLAT/gccout/ec618_0h00/ap/bootloader/lib/libstartup.a(system_ec618.o)
SystemWakeUpBootInit                              ../../../../../../../PLAT/prebuild/PLAT/lib/gcc/libbootloader.a(bl_bsp.o)
                                                  ../../../../../../../PLAT/gccout/ec618_0h00/ap/bootloader/lib/libstartup.a(system_ec618.o)
SystemXIPFastBoot                                 ../../../../../../../PLAT/gccout/ec618_0h00/ap/bootloader/PLAT/project/ec618_0h00/ap/apps/bootloader/code/main/ec_main.o
                                                  ../../../../../../../PLAT/gccout/ec618_0h00/ap/bootloader/lib/libstartup.a(system_ec618.o)
SystemXIPNormalBoot                               ../../../../../../../PLAT/gccout/ec618_0h00/ap/bootloader/PLAT/project/ec618_0h00/ap/apps/bootloader/code/main/ec_main.o
TMU_APTimeRead                                    ../../../../../../../PLAT/prebuild/PLAT/lib/gcc/libosa.a(osasys.o)
UART_flush                                        ../../../../../../../PLAT/prebuild/PLAT/lib/gcc/libdriver_private_bl.a(uart.o)
UART_init                                         ../../../../../../../PLAT/prebuild/PLAT/lib/gcc/libdriver_private_bl.a(uart.o)
UART_printf                                       ../../../../../../../PLAT/prebuild/PLAT/lib/gcc/libdriver_private_bl.a(uart.o)
UART_purgeRx                                      ../../../../../../../PLAT/prebuild/PLAT/lib/gcc/libdriver_private_bl.a(uart.o)
UART_receive                                      ../../../../../../../PLAT/prebuild/PLAT/lib/gcc/libdriver_private_bl.a(uart.o)
UART_send                                         ../../../../../../../PLAT/prebuild/PLAT/lib/gcc/libdriver_private_bl.a(uart.o)
UART_setBaudrate                                  ../../../../../../../PLAT/prebuild/PLAT/lib/gcc/libdriver_private_bl.a(uart.o)
UPMU_SuspdSwVal_Cfg                               ../../../../../../../PLAT/prebuild/PLAT/lib/gcc/libusbbl_priv.a(usbc_bsp.o)
UPMU_UC2UP_SuspdEn_Cfg                            ../../../../../../../PLAT/prebuild/PLAT/lib/gcc/libusbbl_priv.a(usbc_bsp.o)
                                                  ../../../../../../../PLAT/prebuild/PLAT/lib/gcc/libusbbl_priv.a(usbc_int.o)
UPMU_USB_PowerDown                                ../../../../../../../PLAT/prebuild/PLAT/lib/gcc/libusbbl_priv.a(usbc_bsp.o)
UPMU_USB_PowerDownClr                             ../../../../../../../PLAT/prebuild/PLAT/lib/gcc/libusbbl_priv.a(usbc_bsp.o)
UPMU_USB_PowerUp                                  ../../../../../../../PLAT/prebuild/PLAT/lib/gcc/libusbbl_priv.a(usbc_bsp.o)
UPMU_USB_PowerUpClr                               ../../../../../../../PLAT/prebuild/PLAT/lib/gcc/libusbbl_priv.a(usbc_bsp.o)
URCBaudValue                                      ../../../../../../../PLAT/prebuild/PLAT/lib/gcc/libbootloader.a(bl_bsp.o)
                                                  ../../../../../../../PLAT/gccout/ec618_0h00/ap/bootloader/PLAT/middleware/developed/fota/custom/src/fota_entry.o
URCEnable                                         ../../../../../../../PLAT/prebuild/PLAT/lib/gcc/libbootloader.a(bl_bsp.o)
URCPrintActive                                    ../../../../../../../PLAT/prebuild/PLAT/lib/gcc/libbootloader.a(bl_bsp.o)
URCPutChar                                        ../../../../../../../PLAT/prebuild/PLAT/lib/gcc/libbootloader.a(bl_bsp.o)
URCSelSerlIdx                                     ../../../../../../../PLAT/prebuild/PLAT/lib/gcc/libbootloader.a(bl_bsp.o)
                                                  ../../../../../../../PLAT/gccout/ec618_0h00/ap/bootloader/PLAT/middleware/developed/fota/custom/src/fota_entry.o
URCSelSerlType                                    ../../../../../../../PLAT/prebuild/PLAT/lib/gcc/libbootloader.a(bl_bsp.o)
                                                  ../../../../../../../PLAT/gccout/ec618_0h00/ap/bootloader/PLAT/middleware/developed/fota/custom/src/fota_entry.o
USART0_IRQHandler                                 ../../../../../../../PLAT/gccout/ec618_0h00/ap/bootloader/lib/libdriver.a(bsp_usart.o)
USART1_IRQHandler                                 ../../../../../../../PLAT/gccout/ec618_0h00/ap/bootloader/lib/libdriver.a(bsp_usart.o)
USART_Control                                     ../../../../../../../PLAT/gccout/ec618_0h00/ap/bootloader/lib/libdriver.a(bsp_usart.o)
USART_DmaRxEvent                                  ../../../../../../../PLAT/gccout/ec618_0h00/ap/bootloader/lib/libdriver.a(bsp_usart.o)
USART_DmaTxEvent                                  ../../../../../../../PLAT/gccout/ec618_0h00/ap/bootloader/lib/libdriver.a(bsp_usart.o)
USART_GetBaudRate                                 ../../../../../../../PLAT/gccout/ec618_0h00/ap/bootloader/lib/libdriver.a(bsp_usart.o)
USART_GetCapabilities                             ../../../../../../../PLAT/gccout/ec618_0h00/ap/bootloader/lib/libdriver.a(bsp_usart.o)
USART_GetModemStatus                              ../../../../../../../PLAT/gccout/ec618_0h00/ap/bootloader/lib/libdriver.a(bsp_usart.o)
USART_GetRxCount                                  ../../../../../../../PLAT/gccout/ec618_0h00/ap/bootloader/lib/libdriver.a(bsp_usart.o)
USART_GetStatus                                   ../../../../../../../PLAT/gccout/ec618_0h00/ap/bootloader/lib/libdriver.a(bsp_usart.o)
USART_GetTxCount                                  ../../../../../../../PLAT/gccout/ec618_0h00/ap/bootloader/lib/libdriver.a(bsp_usart.o)
USART_IRQHandler                                  ../../../../../../../PLAT/gccout/ec618_0h00/ap/bootloader/lib/libdriver.a(bsp_usart.o)
USART_Initialize                                  ../../../../../../../PLAT/gccout/ec618_0h00/ap/bootloader/lib/libdriver.a(bsp_usart.o)
USART_PowerControl                                ../../../../../../../PLAT/gccout/ec618_0h00/ap/bootloader/lib/libdriver.a(bsp_usart.o)
USART_Receive                                     ../../../../../../../PLAT/gccout/ec618_0h00/ap/bootloader/lib/libdriver.a(bsp_usart.o)
USART_Send                                        ../../../../../../../PLAT/gccout/ec618_0h00/ap/bootloader/lib/libdriver.a(bsp_usart.o)
USART_SendPolling                                 ../../../../../../../PLAT/gccout/ec618_0h00/ap/bootloader/lib/libdriver.a(bsp_usart.o)
USART_SetBaudrate                                 ../../../../../../../PLAT/gccout/ec618_0h00/ap/bootloader/lib/libdriver.a(bsp_usart.o)
USART_SetModemControl                             ../../../../../../../PLAT/gccout/ec618_0h00/ap/bootloader/lib/libdriver.a(bsp_usart.o)
USART_Transfer                                    ../../../../../../../PLAT/gccout/ec618_0h00/ap/bootloader/lib/libdriver.a(bsp_usart.o)
USART_Uninitialize                                ../../../../../../../PLAT/gccout/ec618_0h00/ap/bootloader/lib/libdriver.a(bsp_usart.o)
USB_IRQ_Handler                                   ../../../../../../../PLAT/prebuild/PLAT/lib/gcc/libusbbl_priv.a(usbc_bsp.o)
                                                  ../../../../../../../PLAT/gccout/ec618_0h00/ap/bootloader/lib/libstartup.a(startup_ec618_gcc.o)
UStackRestoreIRQMask                              ../../../../../../../PLAT/prebuild/PLAT/lib/gcc/libusbbl_priv.a(usbc_bsp.o)
                                                  ../../../../../../../PLAT/prebuild/PLAT/lib/gcc/libusbbl_priv.a(function_rndis.o)
                                                  ../../../../../../../PLAT/prebuild/PLAT/lib/gcc/libusbbl_priv.a(function_ecm.o)
                                                  ../../../../../../../PLAT/prebuild/PLAT/lib/gcc/libusbbl_priv.a(function_vcom_tpl.o)
                                                  ../../../../../../../PLAT/prebuild/PLAT/lib/gcc/libusbbl_priv.a(device_ecm.o)
                                                  ../../../../../../../PLAT/prebuild/PLAT/lib/gcc/libusbbl_priv.a(device_rndis.o)
                                                  ../../../../../../../PLAT/prebuild/PLAT/lib/gcc/libusbbl_priv.a(device_vcom.o)
                                                  ../../../../../../../PLAT/prebuild/PLAT/lib/gcc/libusbbl_priv.a(usbd_multi_usrcfg_lib.o)
UStackSaveAndSetIRQMask                           ../../../../../../../PLAT/prebuild/PLAT/lib/gcc/libusbbl_priv.a(usbc_bsp.o)
                                                  ../../../../../../../PLAT/prebuild/PLAT/lib/gcc/libusbbl_priv.a(function_rndis.o)
                                                  ../../../../../../../PLAT/prebuild/PLAT/lib/gcc/libusbbl_priv.a(function_ecm.o)
                                                  ../../../../../../../PLAT/prebuild/PLAT/lib/gcc/libusbbl_priv.a(function_vcom_tpl.o)
                                                  ../../../../../../../PLAT/prebuild/PLAT/lib/gcc/libusbbl_priv.a(device_ecm.o)
                                                  ../../../../../../../PLAT/prebuild/PLAT/lib/gcc/libusbbl_priv.a(device_rndis.o)
                                                  ../../../../../../../PLAT/prebuild/PLAT/lib/gcc/libusbbl_priv.a(device_vcom.o)
                                                  ../../../../../../../PLAT/prebuild/PLAT/lib/gcc/libusbbl_priv.a(usbd_multi_usrcfg_lib.o)
UiccCtrlTaskEntry                                 ../../../../../../../PLAT/prebuild/PLAT/lib/gcc/libosa.a(ostask.o)
UiccDriverTaskEntry                               ../../../../../../../PLAT/prebuild/PLAT/lib/gcc/libosa.a(ostask.o)
UnitDeQueue                                       ../../../../../../../PLAT/prebuild/PLAT/lib/gcc/libosa.a(osasys.o)
UnitEnQueue                                       ../../../../../../../PLAT/prebuild/PLAT/lib/gcc/libosa.a(osasys.o)
UnitFlushQueue                                    ../../../../../../../PLAT/prebuild/PLAT/lib/gcc/libosa.a(osasys.o)
UnitOnQueue                                       ../../../../../../../PLAT/prebuild/PLAT/lib/gcc/libosa.a(osasys.o)
UnitQueueInit                                     ../../../../../../../PLAT/prebuild/PLAT/lib/gcc/libosa.a(osasys.o)
UsageFault_Handler                                ../../../../../../../PLAT/gccout/ec618_0h00/ap/bootloader/lib/libstartup.a(startup_ec618_gcc.o)
UsartAtCmdHandle                                  ../../../../../../../PLAT/prebuild/PLAT/lib/gcc/libbootloader.a(bl_bsp.o)
UsartAtCmdPortIdx                                 ../../../../../../../PLAT/prebuild/PLAT/lib/gcc/libbootloader.a(bl_bsp.o)
UsartPrintHandle                                  ../../../../../../../PLAT/prebuild/PLAT/lib/gcc/libbootloader.a(bl_bsp.o)
UsartPrintPortIdx                                 ../../../../../../../PLAT/prebuild/PLAT/lib/gcc/libbootloader.a(bl_bsp.o)
UsbcGetPherTraceAvail                             ../../../../../../../PLAT/prebuild/PLAT/lib/gcc/libusbbl_priv.a(usbc_trace.o)
VerifyImageBody                                   ../../../../../../../PLAT/prebuild/PLAT/lib/gcc/libbootloader.a(image.o)
VerifyImageHead                                   ../../../../../../../PLAT/prebuild/PLAT/lib/gcc/libbootloader.a(image.o)
WDT_deInit                                        ../../../../../../../PLAT/gccout/ec618_0h00/ap/bootloader/lib/libdriver.a(wdt.o)
                                                  ../../../../../../../PLAT/prebuild/PLAT/lib/gcc/libbootloader.a(bl_bsp.o)
WDT_getDefaultConfig                              ../../../../../../../PLAT/gccout/ec618_0h00/ap/bootloader/lib/libdriver.a(wdt.o)
WDT_getInterruptFlags                             ../../../../../../../PLAT/gccout/ec618_0h00/ap/bootloader/lib/libdriver.a(wdt.o)
WDT_getMode                                       ../../../../../../../PLAT/gccout/ec618_0h00/ap/bootloader/lib/libdriver.a(wdt.o)
WDT_getStartStatus                                ../../../../../../../PLAT/gccout/ec618_0h00/ap/bootloader/lib/libdriver.a(wdt.o)
WDT_init                                          ../../../../../../../PLAT/gccout/ec618_0h00/ap/bootloader/lib/libdriver.a(wdt.o)
                                                  ../../../../../../../PLAT/prebuild/PLAT/lib/gcc/libbootloader.a(bl_bsp.o)
WDT_kick                                          ../../../../../../../PLAT/gccout/ec618_0h00/ap/bootloader/lib/libdriver.a(wdt.o)
                                                  ../../../../../../../PLAT/gccout/ec618_0h00/ap/bootloader/PLAT/middleware/developed/fota/custom/src/fota_custom.o
WDT_start                                         ../../../../../../../PLAT/gccout/ec618_0h00/ap/bootloader/lib/libdriver.a(wdt.o)
                                                  ../../../../../../../PLAT/prebuild/PLAT/lib/gcc/libbootloader.a(bl_bsp.o)
                                                  ../../../../../../../PLAT/gccout/ec618_0h00/ap/bootloader/PLAT/middleware/developed/fota/custom/src/fota_custom.o
                                                  ../../../../../../../PLAT/gccout/ec618_0h00/ap/bootloader/PLAT/project/ec618_0h00/ap/apps/bootloader/code/except/exception_handler.o
WDT_stop                                          ../../../../../../../PLAT/gccout/ec618_0h00/ap/bootloader/lib/libdriver.a(wdt.o)
                                                  ../../../../../../../PLAT/prebuild/PLAT/lib/gcc/libbootloader.a(bl_bsp.o)
                                                  ../../../../../../../PLAT/gccout/ec618_0h00/ap/bootloader/lib/libdriver.a(usb_bl_test.o)
                                                  ../../../../../../../PLAT/gccout/ec618_0h00/ap/bootloader/PLAT/middleware/developed/fota/custom/src/fota_custom.o
WDT_unlock                                        ../../../../../../../PLAT/gccout/ec618_0h00/ap/bootloader/lib/libdriver.a(wdt.o)
WDTclearInterruptFlags                            ../../../../../../../PLAT/gccout/ec618_0h00/ap/bootloader/lib/libdriver.a(wdt.o)
WdtTimeCntValue                                   ../../../../../../../PLAT/prebuild/PLAT/lib/gcc/libbootloader.a(bl_bsp.o)
XIC_BackupIRQSetting                              ../../../../../../../PLAT/prebuild/PLAT/lib/gcc/libdriver_private_bl.a(ic.o)
XIC_ClearAllPendingIRQ                            ../../../../../../../PLAT/prebuild/PLAT/lib/gcc/libdriver_private_bl.a(ic.o)
XIC_ClearPendingIRQ                               ../../../../../../../PLAT/prebuild/PLAT/lib/gcc/libdriver_private_bl.a(ic.o)
                                                  ../../../../../../../PLAT/gccout/ec618_0h00/ap/bootloader/lib/libdriver.a(oneWire.o)
                                                  ../../../../../../../PLAT/gccout/ec618_0h00/ap/bootloader/lib/libdriver.a(bsp_usart.o)
XIC_DisableIRQ                                    ../../../../../../../PLAT/prebuild/PLAT/lib/gcc/libdriver_private_bl.a(ic.o)
                                                  ../../../../../../../PLAT/gccout/ec618_0h00/ap/bootloader/lib/libdriver.a(oneWire.o)
                                                  ../../../../../../../PLAT/gccout/ec618_0h00/ap/bootloader/lib/libdriver.a(bsp_usart.o)
                                                  ../../../../../../../PLAT/gccout/ec618_0h00/ap/bootloader/lib/libdriver.a(drv_odm_gpio.o)
XIC_EnableIRQ                                     ../../../../../../../PLAT/prebuild/PLAT/lib/gcc/libdriver_private_bl.a(ic.o)
                                                  ../../../../../../../PLAT/prebuild/PLAT/lib/gcc/libdriver_private_bl.a(dma.o)
                                                  ../../../../../../../PLAT/gccout/ec618_0h00/ap/bootloader/lib/libdriver.a(oneWire.o)
                                                  ../../../../../../../PLAT/gccout/ec618_0h00/ap/bootloader/lib/libdriver.a(bsp_usart.o)
                                                  ../../../../../../../PLAT/gccout/ec618_0h00/ap/bootloader/lib/libdriver.a(drv_odm_gpio.o)
XIC_GetIRQMask                                    ../../../../../../../PLAT/prebuild/PLAT/lib/gcc/libdriver_private_bl.a(ic.o)
XIC_IntHandler                                    ../../../../../../../PLAT/prebuild/PLAT/lib/gcc/libdriver_private_bl.a(ic.o)
                                                  ../../../../../../../PLAT/gccout/ec618_0h00/ap/bootloader/lib/libstartup.a(startup_ec618_gcc.o)
XIC_IntLogOut                                     ../../../../../../../PLAT/prebuild/PLAT/lib/gcc/libdriver_private_bl.a(ic.o)
XIC_LatchIRQ                                      ../../../../../../../PLAT/prebuild/PLAT/lib/gcc/libdriver_private_bl.a(ic.o)
                                                  ../../../../../../../PLAT/prebuild/PLAT/lib/gcc/libosa.a(ostask.o)
XIC_RestoreIRQSetting                             ../../../../../../../PLAT/prebuild/PLAT/lib/gcc/libdriver_private_bl.a(ic.o)
XIC_SetPendingIRQ                                 ../../../../../../../PLAT/prebuild/PLAT/lib/gcc/libdriver_private_bl.a(ic.o)
XIC_SetVector                                     ../../../../../../../PLAT/prebuild/PLAT/lib/gcc/libdriver_private_bl.a(ic.o)
                                                  ../../../../../../../PLAT/prebuild/PLAT/lib/gcc/libdriver_private_bl.a(dma.o)
                                                  ../../../../../../../PLAT/gccout/ec618_0h00/ap/bootloader/lib/libdriver.a(oneWire.o)
                                                  ../../../../../../../PLAT/gccout/ec618_0h00/ap/bootloader/lib/libdriver.a(bsp_usart.o)
                                                  ../../../../../../../PLAT/gccout/ec618_0h00/ap/bootloader/lib/libdriver.a(drv_odm_gpio.o)
XIC_SuppressOvfIRQ                                ../../../../../../../PLAT/prebuild/PLAT/lib/gcc/libdriver_private_bl.a(ic.o)
                                                  ../../../../../../../PLAT/gccout/ec618_0h00/ap/bootloader/lib/libdriver.a(bsp_usart.o)
XIPInitFastInApRam                                ../../../../../../../PLAT/gccout/ec618_0h00/ap/bootloader/lib/libstartup.a(system_ec618.o)
                                                  ../../../../../../../PLAT/gccout/ec618_0h00/ap/bootloader/lib/libstartup.a(startup_ec618_gcc.o)
__STACK_SIZE                                      ../../../../../../../PLAT/gccout/ec618_0h00/ap/bootloader/lib/libstartup.a(startup_ec618_gcc.o)
__StackLimit                                      ../../../../../../../PLAT/gccout/ec618_0h00/ap/bootloader/lib/libstartup.a(startup_ec618_gcc.o)
                                                  ../../../../../../../PLAT/gccout/ec618_0h00/ap/bootloader/lib/libstartup.a(prec_init.o)
__StackTop                                        ../../../../../../../PLAT/gccout/ec618_0h00/ap/bootloader/lib/libstartup.a(startup_ec618_gcc.o)
                                                  ../../../../../../../PLAT/gccout/ec618_0h00/ap/bootloader/lib/libstartup.a(prec_init.o)
__aeabi_assert                                    ../../../../../../../PLAT/prebuild/PLAT/lib/gcc/libbootloader.a(bl_bsp.o)
__aeabi_idiv0                                     e:/work/meig/ec618/ec618_sdk_rel_sdk/plat/tools/gcc/bin/../lib/gcc/arm-none-eabi/10.2.1/thumb/v7-m/nofp\libgcc.a(_dvmd_tls.o)
__aeabi_ldiv0                                     e:/work/meig/ec618/ec618_sdk_rel_sdk/plat/tools/gcc/bin/../lib/gcc/arm-none-eabi/10.2.1/thumb/v7-m/nofp\libgcc.a(_dvmd_tls.o)
                                                  e:/work/meig/ec618/ec618_sdk_rel_sdk/plat/tools/gcc/bin/../lib/gcc/arm-none-eabi/10.2.1/thumb/v7-m/nofp\libgcc.a(_aeabi_uldivmod.o)
                                                  e:/work/meig/ec618/ec618_sdk_rel_sdk/plat/tools/gcc/bin/../lib/gcc/arm-none-eabi/10.2.1/thumb/v7-m/nofp\libgcc.a(_aeabi_ldivmod.o)
__aeabi_ldivmod                                   e:/work/meig/ec618/ec618_sdk_rel_sdk/plat/tools/gcc/bin/../lib/gcc/arm-none-eabi/10.2.1/thumb/v7-m/nofp\libgcc.a(_aeabi_ldivmod.o)
                                                  ../../../../../../../PLAT/prebuild/PLAT/lib/gcc/libosa.a(osatime.o)
                                                  ../../../../../../../PLAT/prebuild/PLAT/lib/gcc/libosa.a(osasys.o)
__aeabi_uldivmod                                  e:/work/meig/ec618/ec618_sdk_rel_sdk/plat/tools/gcc/bin/../lib/gcc/arm-none-eabi/10.2.1/thumb/v7-m/nofp\libgcc.a(_aeabi_uldivmod.o)
                                                  ../../../../../../../PLAT/prebuild/PLAT/lib/gcc/libosa.a(osasys.o)
__assert                                          e:/work/meig/ec618/ec618_sdk_rel_sdk/plat/tools/gcc/bin/../lib/gcc/arm-none-eabi/10.2.1/../../../../arm-none-eabi/lib/thumb/v7-m/nofp\libc_nano.a(lib_a-assert.o)
__assert_func                                     e:/work/meig/ec618/ec618_sdk_rel_sdk/plat/tools/gcc/bin/../lib/gcc/arm-none-eabi/10.2.1/../../../../arm-none-eabi/lib/thumb/v7-m/nofp\libc_nano.a(lib_a-assert.o)
                                                  e:/work/meig/ec618/ec618_sdk_rel_sdk/plat/tools/gcc/bin/../lib/gcc/arm-none-eabi/10.2.1/../../../../arm-none-eabi/lib/thumb/v7-m/nofp\libc_nano.a(lib_a-rand.o)
                                                  ../../../../../../../PLAT/prebuild/PLAT/lib/gcc/libdriver_private_bl.a(aonreg.o)
                                                  ../../../../../../../PLAT/prebuild/PLAT/lib/gcc/libdriver_private_bl.a(dma.o)
                                                  ../../../../../../../PLAT/prebuild/PLAT/lib/gcc/libdriver_private_bl.a(gpr.o)
                                                  ../../../../../../../PLAT/prebuild/PLAT/lib/gcc/libdriver_private_bl.a(ic.o)
                                                  ../../../../../../../PLAT/gccout/ec618_0h00/ap/bootloader/lib/libdriver.a(clock.o)
                                                  ../../../../../../../PLAT/gccout/ec618_0h00/ap/bootloader/lib/libdriver.a(wdt.o)
                                                  ../../../../../../../PLAT/gccout/ec618_0h00/ap/bootloader/lib/libdriver.a(pad.o)
                                                  ../../../../../../../PLAT/gccout/ec618_0h00/ap/bootloader/lib/libdriver.a(gpio.o)
__bss_end__                                       e:/work/meig/ec618/ec618_sdk_rel_sdk/plat/tools/gcc/bin/../lib/gcc/arm-none-eabi/10.2.1/../../../../arm-none-eabi/lib/thumb/v7-m/nofp/crt0.o
__bss_start__                                     e:/work/meig/ec618/ec618_sdk_rel_sdk/plat/tools/gcc/bin/../lib/gcc/arm-none-eabi/10.2.1/../../../../arm-none-eabi/lib/thumb/v7-m/nofp/crt0.o
__call_exitprocs                                  e:/work/meig/ec618/ec618_sdk_rel_sdk/plat/tools/gcc/bin/../lib/gcc/arm-none-eabi/10.2.1/../../../../arm-none-eabi/lib/thumb/v7-m/nofp\libc_nano.a(lib_a-exit.o)
__deregister_frame_info                           e:/work/meig/ec618/ec618_sdk_rel_sdk/plat/tools/gcc/bin/../lib/gcc/arm-none-eabi/10.2.1/thumb/v7-m/nofp/crtbegin.o
__dso_handle                                      e:/work/meig/ec618/ec618_sdk_rel_sdk/plat/tools/gcc/bin/../lib/gcc/arm-none-eabi/10.2.1/thumb/v7-m/nofp/crtbegin.o
__env_lock                                        e:/work/meig/ec618/ec618_sdk_rel_sdk/plat/tools/gcc/bin/../lib/gcc/arm-none-eabi/10.2.1/../../../../arm-none-eabi/lib/thumb/v7-m/nofp\libc_nano.a(lib_a-envlock.o)
                                                  e:/work/meig/ec618/ec618_sdk_rel_sdk/plat/tools/gcc/bin/../lib/gcc/arm-none-eabi/10.2.1/../../../../arm-none-eabi/lib/thumb/v7-m/nofp\libc_nano.a(lib_a-getenv_r.o)
__env_unlock                                      e:/work/meig/ec618/ec618_sdk_rel_sdk/plat/tools/gcc/bin/../lib/gcc/arm-none-eabi/10.2.1/../../../../arm-none-eabi/lib/thumb/v7-m/nofp\libc_nano.a(lib_a-envlock.o)
                                                  e:/work/meig/ec618/ec618_sdk_rel_sdk/plat/tools/gcc/bin/../lib/gcc/arm-none-eabi/10.2.1/../../../../arm-none-eabi/lib/thumb/v7-m/nofp\libc_nano.a(lib_a-getenv_r.o)
__errno                                           e:/work/meig/ec618/ec618_sdk_rel_sdk/plat/tools/gcc/bin/../lib/gcc/arm-none-eabi/10.2.1/../../../../arm-none-eabi/lib/thumb/v7-m/nofp\libc_nano.a(lib_a-errno.o)
                                                  e:/work/meig/ec618/ec618_sdk_rel_sdk/plat/tools/gcc/bin/../lib/gcc/arm-none-eabi/10.2.1/../../../../arm-none-eabi/lib/thumb/v7-m/nofp\libc_nano.a(lib_a-strtol.o)
__fast_memset                                     ../../../../../../../PLAT/gccout/ec618_0h00/ap/bootloader/lib/libstartup.a(prec_init.o)
__fp_lock_all                                     e:/work/meig/ec618/ec618_sdk_rel_sdk/plat/tools/gcc/bin/../lib/gcc/arm-none-eabi/10.2.1/../../../../arm-none-eabi/lib/thumb/v7-m/nofp\libc_nano.a(lib_a-findfp.o)
__fp_unlock_all                                   e:/work/meig/ec618/ec618_sdk_rel_sdk/plat/tools/gcc/bin/../lib/gcc/arm-none-eabi/10.2.1/../../../../arm-none-eabi/lib/thumb/v7-m/nofp\libc_nano.a(lib_a-findfp.o)
__gettzinfo                                       e:/work/meig/ec618/ec618_sdk_rel_sdk/plat/tools/gcc/bin/../lib/gcc/arm-none-eabi/10.2.1/../../../../arm-none-eabi/lib/thumb/v7-m/nofp\libc_nano.a(lib_a-gettzinfo.o)
                                                  e:/work/meig/ec618/ec618_sdk_rel_sdk/plat/tools/gcc/bin/../lib/gcc/arm-none-eabi/10.2.1/../../../../arm-none-eabi/lib/thumb/v7-m/nofp\libc_nano.a(lib_a-tzset_r.o)
                                                  e:/work/meig/ec618/ec618_sdk_rel_sdk/plat/tools/gcc/bin/../lib/gcc/arm-none-eabi/10.2.1/../../../../arm-none-eabi/lib/thumb/v7-m/nofp\libc_nano.a(lib_a-tzcalc_limits.o)
                                                  e:/work/meig/ec618/ec618_sdk_rel_sdk/plat/tools/gcc/bin/../lib/gcc/arm-none-eabi/10.2.1/../../../../arm-none-eabi/lib/thumb/v7-m/nofp\libc_nano.a(lib_a-mktime.o)
__init_array_end                                  e:/work/meig/ec618/ec618_sdk_rel_sdk/plat/tools/gcc/bin/../lib/gcc/arm-none-eabi/10.2.1/../../../../arm-none-eabi/lib/thumb/v7-m/nofp\libc_nano.a(lib_a-init.o)
__init_array_start                                e:/work/meig/ec618/ec618_sdk_rel_sdk/plat/tools/gcc/bin/../lib/gcc/arm-none-eabi/10.2.1/../../../../arm-none-eabi/lib/thumb/v7-m/nofp\libc_nano.a(lib_a-init.o)
__isr_vector                                      ../../../../../../../PLAT/gccout/ec618_0h00/ap/bootloader/lib/libstartup.a(startup_ec618_gcc.o)
                                                  ../../../../../../../PLAT/gccout/ec618_0h00/ap/bootloader/lib/libstartup.a(system_ec618.o)
__libc_fini_array                                 e:/work/meig/ec618/ec618_sdk_rel_sdk/plat/tools/gcc/bin/../lib/gcc/arm-none-eabi/10.2.1/../../../../arm-none-eabi/lib/thumb/v7-m/nofp/crt0.o
__libc_init_array                                 e:/work/meig/ec618/ec618_sdk_rel_sdk/plat/tools/gcc/bin/../lib/gcc/arm-none-eabi/10.2.1/../../../../arm-none-eabi/lib/thumb/v7-m/nofp\libc_nano.a(lib_a-init.o)
                                                  e:/work/meig/ec618/ec618_sdk_rel_sdk/plat/tools/gcc/bin/../lib/gcc/arm-none-eabi/10.2.1/../../../../arm-none-eabi/lib/thumb/v7-m/nofp/crt0.o
__lock___arc4random_mutex                         e:/work/meig/ec618/ec618_sdk_rel_sdk/plat/tools/gcc/bin/../lib/gcc/arm-none-eabi/10.2.1/../../../../arm-none-eabi/lib/thumb/v7-m/nofp\libc_nano.a(lib_a-lock.o)
__lock___at_quick_exit_mutex                      e:/work/meig/ec618/ec618_sdk_rel_sdk/plat/tools/gcc/bin/../lib/gcc/arm-none-eabi/10.2.1/../../../../arm-none-eabi/lib/thumb/v7-m/nofp\libc_nano.a(lib_a-lock.o)
__lock___atexit_recursive_mutex                   e:/work/meig/ec618/ec618_sdk_rel_sdk/plat/tools/gcc/bin/../lib/gcc/arm-none-eabi/10.2.1/../../../../arm-none-eabi/lib/thumb/v7-m/nofp\libc_nano.a(lib_a-lock.o)
__lock___dd_hash_mutex                            e:/work/meig/ec618/ec618_sdk_rel_sdk/plat/tools/gcc/bin/../lib/gcc/arm-none-eabi/10.2.1/../../../../arm-none-eabi/lib/thumb/v7-m/nofp\libc_nano.a(lib_a-lock.o)
__lock___env_recursive_mutex                      e:/work/meig/ec618/ec618_sdk_rel_sdk/plat/tools/gcc/bin/../lib/gcc/arm-none-eabi/10.2.1/../../../../arm-none-eabi/lib/thumb/v7-m/nofp\libc_nano.a(lib_a-lock.o)
                                                  e:/work/meig/ec618/ec618_sdk_rel_sdk/plat/tools/gcc/bin/../lib/gcc/arm-none-eabi/10.2.1/../../../../arm-none-eabi/lib/thumb/v7-m/nofp\libc_nano.a(lib_a-envlock.o)
__lock___malloc_recursive_mutex                   e:/work/meig/ec618/ec618_sdk_rel_sdk/plat/tools/gcc/bin/../lib/gcc/arm-none-eabi/10.2.1/../../../../arm-none-eabi/lib/thumb/v7-m/nofp\libc_nano.a(lib_a-lock.o)
                                                  e:/work/meig/ec618/ec618_sdk_rel_sdk/plat/tools/gcc/bin/../lib/gcc/arm-none-eabi/10.2.1/../../../../arm-none-eabi/lib/thumb/v7-m/nofp\libc_nano.a(lib_a-mlock.o)
__lock___sfp_recursive_mutex                      e:/work/meig/ec618/ec618_sdk_rel_sdk/plat/tools/gcc/bin/../lib/gcc/arm-none-eabi/10.2.1/../../../../arm-none-eabi/lib/thumb/v7-m/nofp\libc_nano.a(lib_a-lock.o)
                                                  e:/work/meig/ec618/ec618_sdk_rel_sdk/plat/tools/gcc/bin/../lib/gcc/arm-none-eabi/10.2.1/../../../../arm-none-eabi/lib/thumb/v7-m/nofp\libc_nano.a(lib_a-findfp.o)
__lock___sinit_recursive_mutex                    e:/work/meig/ec618/ec618_sdk_rel_sdk/plat/tools/gcc/bin/../lib/gcc/arm-none-eabi/10.2.1/../../../../arm-none-eabi/lib/thumb/v7-m/nofp\libc_nano.a(lib_a-lock.o)
                                                  e:/work/meig/ec618/ec618_sdk_rel_sdk/plat/tools/gcc/bin/../lib/gcc/arm-none-eabi/10.2.1/../../../../arm-none-eabi/lib/thumb/v7-m/nofp\libc_nano.a(lib_a-findfp.o)
__lock___tz_mutex                                 e:/work/meig/ec618/ec618_sdk_rel_sdk/plat/tools/gcc/bin/../lib/gcc/arm-none-eabi/10.2.1/../../../../arm-none-eabi/lib/thumb/v7-m/nofp\libc_nano.a(lib_a-lock.o)
                                                  e:/work/meig/ec618/ec618_sdk_rel_sdk/plat/tools/gcc/bin/../lib/gcc/arm-none-eabi/10.2.1/../../../../arm-none-eabi/lib/thumb/v7-m/nofp\libc_nano.a(lib_a-tzlock.o)
__malloc_free_list                                e:/work/meig/ec618/ec618_sdk_rel_sdk/plat/tools/gcc/bin/../lib/gcc/arm-none-eabi/10.2.1/../../../../arm-none-eabi/lib/thumb/v7-m/nofp\libc_nano.a(lib_a-nano-mallocr.o)
                                                  e:/work/meig/ec618/ec618_sdk_rel_sdk/plat/tools/gcc/bin/../lib/gcc/arm-none-eabi/10.2.1/../../../../arm-none-eabi/lib/thumb/v7-m/nofp\libc_nano.a(lib_a-nano-freer.o)
__malloc_lock                                     e:/work/meig/ec618/ec618_sdk_rel_sdk/plat/tools/gcc/bin/../lib/gcc/arm-none-eabi/10.2.1/../../../../arm-none-eabi/lib/thumb/v7-m/nofp\libc_nano.a(lib_a-mlock.o)
                                                  e:/work/meig/ec618/ec618_sdk_rel_sdk/plat/tools/gcc/bin/../lib/gcc/arm-none-eabi/10.2.1/../../../../arm-none-eabi/lib/thumb/v7-m/nofp\libc_nano.a(lib_a-nano-mallocr.o)
                                                  e:/work/meig/ec618/ec618_sdk_rel_sdk/plat/tools/gcc/bin/../lib/gcc/arm-none-eabi/10.2.1/../../../../arm-none-eabi/lib/thumb/v7-m/nofp\libc_nano.a(lib_a-nano-freer.o)
__malloc_sbrk_start                               e:/work/meig/ec618/ec618_sdk_rel_sdk/plat/tools/gcc/bin/../lib/gcc/arm-none-eabi/10.2.1/../../../../arm-none-eabi/lib/thumb/v7-m/nofp\libc_nano.a(lib_a-nano-mallocr.o)
__malloc_unlock                                   e:/work/meig/ec618/ec618_sdk_rel_sdk/plat/tools/gcc/bin/../lib/gcc/arm-none-eabi/10.2.1/../../../../arm-none-eabi/lib/thumb/v7-m/nofp\libc_nano.a(lib_a-mlock.o)
                                                  e:/work/meig/ec618/ec618_sdk_rel_sdk/plat/tools/gcc/bin/../lib/gcc/arm-none-eabi/10.2.1/../../../../arm-none-eabi/lib/thumb/v7-m/nofp\libc_nano.a(lib_a-nano-mallocr.o)
                                                  e:/work/meig/ec618/ec618_sdk_rel_sdk/plat/tools/gcc/bin/../lib/gcc/arm-none-eabi/10.2.1/../../../../arm-none-eabi/lib/thumb/v7-m/nofp\libc_nano.a(lib_a-nano-freer.o)
__month_lengths                                   e:/work/meig/ec618/ec618_sdk_rel_sdk/plat/tools/gcc/bin/../lib/gcc/arm-none-eabi/10.2.1/../../../../arm-none-eabi/lib/thumb/v7-m/nofp\libc_nano.a(lib_a-month_lengths.o)
                                                  e:/work/meig/ec618/ec618_sdk_rel_sdk/plat/tools/gcc/bin/../lib/gcc/arm-none-eabi/10.2.1/../../../../arm-none-eabi/lib/thumb/v7-m/nofp\libc_nano.a(lib_a-tzcalc_limits.o)
__preinit_array_end                               e:/work/meig/ec618/ec618_sdk_rel_sdk/plat/tools/gcc/bin/../lib/gcc/arm-none-eabi/10.2.1/../../../../arm-none-eabi/lib/thumb/v7-m/nofp\libc_nano.a(lib_a-init.o)
__preinit_array_start                             e:/work/meig/ec618/ec618_sdk_rel_sdk/plat/tools/gcc/bin/../lib/gcc/arm-none-eabi/10.2.1/../../../../arm-none-eabi/lib/thumb/v7-m/nofp\libc_nano.a(lib_a-init.o)
__pwrKeyEnterOff                                  ../../../../../../../PLAT/prebuild/PLAT/lib/gcc/libdriver_private_bl.a(pwrkey.o)
__register_frame_info                             e:/work/meig/ec618/ec618_sdk_rel_sdk/plat/tools/gcc/bin/../lib/gcc/arm-none-eabi/10.2.1/thumb/v7-m/nofp/crtbegin.o
__retarget_lock_acquire                           e:/work/meig/ec618/ec618_sdk_rel_sdk/plat/tools/gcc/bin/../lib/gcc/arm-none-eabi/10.2.1/../../../../arm-none-eabi/lib/thumb/v7-m/nofp\libc_nano.a(lib_a-lock.o)
                                                  e:/work/meig/ec618/ec618_sdk_rel_sdk/plat/tools/gcc/bin/../lib/gcc/arm-none-eabi/10.2.1/../../../../arm-none-eabi/lib/thumb/v7-m/nofp\libc_nano.a(lib_a-tzlock.o)
__retarget_lock_acquire_recursive                 e:/work/meig/ec618/ec618_sdk_rel_sdk/plat/tools/gcc/bin/../lib/gcc/arm-none-eabi/10.2.1/../../../../arm-none-eabi/lib/thumb/v7-m/nofp\libc_nano.a(lib_a-lock.o)
                                                  e:/work/meig/ec618/ec618_sdk_rel_sdk/plat/tools/gcc/bin/../lib/gcc/arm-none-eabi/10.2.1/../../../../arm-none-eabi/lib/thumb/v7-m/nofp\libc_nano.a(lib_a-ungetc.o)
                                                  e:/work/meig/ec618/ec618_sdk_rel_sdk/plat/tools/gcc/bin/../lib/gcc/arm-none-eabi/10.2.1/../../../../arm-none-eabi/lib/thumb/v7-m/nofp\libc_nano.a(lib_a-envlock.o)
                                                  e:/work/meig/ec618/ec618_sdk_rel_sdk/plat/tools/gcc/bin/../lib/gcc/arm-none-eabi/10.2.1/../../../../arm-none-eabi/lib/thumb/v7-m/nofp\libc_nano.a(lib_a-mlock.o)
                                                  e:/work/meig/ec618/ec618_sdk_rel_sdk/plat/tools/gcc/bin/../lib/gcc/arm-none-eabi/10.2.1/../../../../arm-none-eabi/lib/thumb/v7-m/nofp\libc_nano.a(lib_a-setvbuf.o)
                                                  e:/work/meig/ec618/ec618_sdk_rel_sdk/plat/tools/gcc/bin/../lib/gcc/arm-none-eabi/10.2.1/../../../../arm-none-eabi/lib/thumb/v7-m/nofp\libc_nano.a(lib_a-puts.o)
                                                  e:/work/meig/ec618/ec618_sdk_rel_sdk/plat/tools/gcc/bin/../lib/gcc/arm-none-eabi/10.2.1/../../../../arm-none-eabi/lib/thumb/v7-m/nofp\libc_nano.a(lib_a-putc.o)
                                                  e:/work/meig/ec618/ec618_sdk_rel_sdk/plat/tools/gcc/bin/../lib/gcc/arm-none-eabi/10.2.1/../../../../arm-none-eabi/lib/thumb/v7-m/nofp\libc_nano.a(lib_a-nano-vfprintf.o)
                                                  e:/work/meig/ec618/ec618_sdk_rel_sdk/plat/tools/gcc/bin/../lib/gcc/arm-none-eabi/10.2.1/../../../../arm-none-eabi/lib/thumb/v7-m/nofp\libc_nano.a(lib_a-fputs.o)
                                                  e:/work/meig/ec618/ec618_sdk_rel_sdk/plat/tools/gcc/bin/../lib/gcc/arm-none-eabi/10.2.1/../../../../arm-none-eabi/lib/thumb/v7-m/nofp\libc_nano.a(lib_a-fputc.o)
                                                  e:/work/meig/ec618/ec618_sdk_rel_sdk/plat/tools/gcc/bin/../lib/gcc/arm-none-eabi/10.2.1/../../../../arm-none-eabi/lib/thumb/v7-m/nofp\libc_nano.a(lib_a-findfp.o)
                                                  e:/work/meig/ec618/ec618_sdk_rel_sdk/plat/tools/gcc/bin/../lib/gcc/arm-none-eabi/10.2.1/../../../../arm-none-eabi/lib/thumb/v7-m/nofp\libc_nano.a(lib_a-fflush.o)
                                                  e:/work/meig/ec618/ec618_sdk_rel_sdk/plat/tools/gcc/bin/../lib/gcc/arm-none-eabi/10.2.1/../../../../arm-none-eabi/lib/thumb/v7-m/nofp\libc_nano.a(lib_a-fclose.o)
__retarget_lock_close                             e:/work/meig/ec618/ec618_sdk_rel_sdk/plat/tools/gcc/bin/../lib/gcc/arm-none-eabi/10.2.1/../../../../arm-none-eabi/lib/thumb/v7-m/nofp\libc_nano.a(lib_a-lock.o)
__retarget_lock_close_recursive                   e:/work/meig/ec618/ec618_sdk_rel_sdk/plat/tools/gcc/bin/../lib/gcc/arm-none-eabi/10.2.1/../../../../arm-none-eabi/lib/thumb/v7-m/nofp\libc_nano.a(lib_a-lock.o)
                                                  e:/work/meig/ec618/ec618_sdk_rel_sdk/plat/tools/gcc/bin/../lib/gcc/arm-none-eabi/10.2.1/../../../../arm-none-eabi/lib/thumb/v7-m/nofp\libc_nano.a(lib_a-fclose.o)
__retarget_lock_init                              e:/work/meig/ec618/ec618_sdk_rel_sdk/plat/tools/gcc/bin/../lib/gcc/arm-none-eabi/10.2.1/../../../../arm-none-eabi/lib/thumb/v7-m/nofp\libc_nano.a(lib_a-lock.o)
__retarget_lock_init_recursive                    e:/work/meig/ec618/ec618_sdk_rel_sdk/plat/tools/gcc/bin/../lib/gcc/arm-none-eabi/10.2.1/../../../../arm-none-eabi/lib/thumb/v7-m/nofp\libc_nano.a(lib_a-lock.o)
                                                  e:/work/meig/ec618/ec618_sdk_rel_sdk/plat/tools/gcc/bin/../lib/gcc/arm-none-eabi/10.2.1/../../../../arm-none-eabi/lib/thumb/v7-m/nofp\libc_nano.a(lib_a-findfp.o)
__retarget_lock_release                           e:/work/meig/ec618/ec618_sdk_rel_sdk/plat/tools/gcc/bin/../lib/gcc/arm-none-eabi/10.2.1/../../../../arm-none-eabi/lib/thumb/v7-m/nofp\libc_nano.a(lib_a-lock.o)
                                                  e:/work/meig/ec618/ec618_sdk_rel_sdk/plat/tools/gcc/bin/../lib/gcc/arm-none-eabi/10.2.1/../../../../arm-none-eabi/lib/thumb/v7-m/nofp\libc_nano.a(lib_a-tzlock.o)
__retarget_lock_release_recursive                 e:/work/meig/ec618/ec618_sdk_rel_sdk/plat/tools/gcc/bin/../lib/gcc/arm-none-eabi/10.2.1/../../../../arm-none-eabi/lib/thumb/v7-m/nofp\libc_nano.a(lib_a-lock.o)
                                                  e:/work/meig/ec618/ec618_sdk_rel_sdk/plat/tools/gcc/bin/../lib/gcc/arm-none-eabi/10.2.1/../../../../arm-none-eabi/lib/thumb/v7-m/nofp\libc_nano.a(lib_a-ungetc.o)
                                                  e:/work/meig/ec618/ec618_sdk_rel_sdk/plat/tools/gcc/bin/../lib/gcc/arm-none-eabi/10.2.1/../../../../arm-none-eabi/lib/thumb/v7-m/nofp\libc_nano.a(lib_a-envlock.o)
                                                  e:/work/meig/ec618/ec618_sdk_rel_sdk/plat/tools/gcc/bin/../lib/gcc/arm-none-eabi/10.2.1/../../../../arm-none-eabi/lib/thumb/v7-m/nofp\libc_nano.a(lib_a-mlock.o)
                                                  e:/work/meig/ec618/ec618_sdk_rel_sdk/plat/tools/gcc/bin/../lib/gcc/arm-none-eabi/10.2.1/../../../../arm-none-eabi/lib/thumb/v7-m/nofp\libc_nano.a(lib_a-setvbuf.o)
                                                  e:/work/meig/ec618/ec618_sdk_rel_sdk/plat/tools/gcc/bin/../lib/gcc/arm-none-eabi/10.2.1/../../../../arm-none-eabi/lib/thumb/v7-m/nofp\libc_nano.a(lib_a-puts.o)
                                                  e:/work/meig/ec618/ec618_sdk_rel_sdk/plat/tools/gcc/bin/../lib/gcc/arm-none-eabi/10.2.1/../../../../arm-none-eabi/lib/thumb/v7-m/nofp\libc_nano.a(lib_a-putc.o)
                                                  e:/work/meig/ec618/ec618_sdk_rel_sdk/plat/tools/gcc/bin/../lib/gcc/arm-none-eabi/10.2.1/../../../../arm-none-eabi/lib/thumb/v7-m/nofp\libc_nano.a(lib_a-nano-vfprintf.o)
                                                  e:/work/meig/ec618/ec618_sdk_rel_sdk/plat/tools/gcc/bin/../lib/gcc/arm-none-eabi/10.2.1/../../../../arm-none-eabi/lib/thumb/v7-m/nofp\libc_nano.a(lib_a-fputs.o)
                                                  e:/work/meig/ec618/ec618_sdk_rel_sdk/plat/tools/gcc/bin/../lib/gcc/arm-none-eabi/10.2.1/../../../../arm-none-eabi/lib/thumb/v7-m/nofp\libc_nano.a(lib_a-fputc.o)
                                                  e:/work/meig/ec618/ec618_sdk_rel_sdk/plat/tools/gcc/bin/../lib/gcc/arm-none-eabi/10.2.1/../../../../arm-none-eabi/lib/thumb/v7-m/nofp\libc_nano.a(lib_a-findfp.o)
                                                  e:/work/meig/ec618/ec618_sdk_rel_sdk/plat/tools/gcc/bin/../lib/gcc/arm-none-eabi/10.2.1/../../../../arm-none-eabi/lib/thumb/v7-m/nofp\libc_nano.a(lib_a-fflush.o)
                                                  e:/work/meig/ec618/ec618_sdk_rel_sdk/plat/tools/gcc/bin/../lib/gcc/arm-none-eabi/10.2.1/../../../../arm-none-eabi/lib/thumb/v7-m/nofp\libc_nano.a(lib_a-fclose.o)
__retarget_lock_try_acquire                       e:/work/meig/ec618/ec618_sdk_rel_sdk/plat/tools/gcc/bin/../lib/gcc/arm-none-eabi/10.2.1/../../../../arm-none-eabi/lib/thumb/v7-m/nofp\libc_nano.a(lib_a-lock.o)
__retarget_lock_try_acquire_recursive             e:/work/meig/ec618/ec618_sdk_rel_sdk/plat/tools/gcc/bin/../lib/gcc/arm-none-eabi/10.2.1/../../../../arm-none-eabi/lib/thumb/v7-m/nofp\libc_nano.a(lib_a-lock.o)
__sccl                                            e:/work/meig/ec618/ec618_sdk_rel_sdk/plat/tools/gcc/bin/../lib/gcc/arm-none-eabi/10.2.1/../../../../arm-none-eabi/lib/thumb/v7-m/nofp\libc_nano.a(lib_a-sccl.o)
                                                  e:/work/meig/ec618/ec618_sdk_rel_sdk/plat/tools/gcc/bin/../lib/gcc/arm-none-eabi/10.2.1/../../../../arm-none-eabi/lib/thumb/v7-m/nofp\libc_nano.a(lib_a-nano-vfscanf_i.o)
                                                  e:/work/meig/ec618/ec618_sdk_rel_sdk/plat/tools/gcc/bin/../lib/gcc/arm-none-eabi/10.2.1/../../../../arm-none-eabi/lib/thumb/v7-m/nofp\libc_nano.a(lib_a-nano-svfscanf.o)
__sclose                                          e:/work/meig/ec618/ec618_sdk_rel_sdk/plat/tools/gcc/bin/../lib/gcc/arm-none-eabi/10.2.1/../../../../arm-none-eabi/lib/thumb/v7-m/nofp\libc_nano.a(lib_a-stdio.o)
                                                  e:/work/meig/ec618/ec618_sdk_rel_sdk/plat/tools/gcc/bin/../lib/gcc/arm-none-eabi/10.2.1/../../../../arm-none-eabi/lib/thumb/v7-m/nofp\libc_nano.a(lib_a-findfp.o)
__seofread                                        e:/work/meig/ec618/ec618_sdk_rel_sdk/plat/tools/gcc/bin/../lib/gcc/arm-none-eabi/10.2.1/../../../../arm-none-eabi/lib/thumb/v7-m/nofp\libc_nano.a(lib_a-stdio.o)
                                                  e:/work/meig/ec618/ec618_sdk_rel_sdk/plat/tools/gcc/bin/../lib/gcc/arm-none-eabi/10.2.1/../../../../arm-none-eabi/lib/thumb/v7-m/nofp\libc_nano.a(lib_a-sscanf.o)
__sf_fake_stderr                                  e:/work/meig/ec618/ec618_sdk_rel_sdk/plat/tools/gcc/bin/../lib/gcc/arm-none-eabi/10.2.1/../../../../arm-none-eabi/lib/thumb/v7-m/nofp\libc_nano.a(lib_a-findfp.o)
                                                  e:/work/meig/ec618/ec618_sdk_rel_sdk/plat/tools/gcc/bin/../lib/gcc/arm-none-eabi/10.2.1/../../../../arm-none-eabi/lib/thumb/v7-m/nofp\libc_nano.a(lib_a-ungetc.o)
                                                  e:/work/meig/ec618/ec618_sdk_rel_sdk/plat/tools/gcc/bin/../lib/gcc/arm-none-eabi/10.2.1/../../../../arm-none-eabi/lib/thumb/v7-m/nofp\libc_nano.a(lib_a-wsetup.o)
                                                  e:/work/meig/ec618/ec618_sdk_rel_sdk/plat/tools/gcc/bin/../lib/gcc/arm-none-eabi/10.2.1/../../../../arm-none-eabi/lib/thumb/v7-m/nofp\libc_nano.a(lib_a-wbuf.o)
                                                  e:/work/meig/ec618/ec618_sdk_rel_sdk/plat/tools/gcc/bin/../lib/gcc/arm-none-eabi/10.2.1/../../../../arm-none-eabi/lib/thumb/v7-m/nofp\libc_nano.a(lib_a-setvbuf.o)
                                                  e:/work/meig/ec618/ec618_sdk_rel_sdk/plat/tools/gcc/bin/../lib/gcc/arm-none-eabi/10.2.1/../../../../arm-none-eabi/lib/thumb/v7-m/nofp\libc_nano.a(lib_a-puts.o)
                                                  e:/work/meig/ec618/ec618_sdk_rel_sdk/plat/tools/gcc/bin/../lib/gcc/arm-none-eabi/10.2.1/../../../../arm-none-eabi/lib/thumb/v7-m/nofp\libc_nano.a(lib_a-putc.o)
                                                  e:/work/meig/ec618/ec618_sdk_rel_sdk/plat/tools/gcc/bin/../lib/gcc/arm-none-eabi/10.2.1/../../../../arm-none-eabi/lib/thumb/v7-m/nofp\libc_nano.a(lib_a-nano-vfprintf.o)
                                                  e:/work/meig/ec618/ec618_sdk_rel_sdk/plat/tools/gcc/bin/../lib/gcc/arm-none-eabi/10.2.1/../../../../arm-none-eabi/lib/thumb/v7-m/nofp\libc_nano.a(lib_a-fputs.o)
                                                  e:/work/meig/ec618/ec618_sdk_rel_sdk/plat/tools/gcc/bin/../lib/gcc/arm-none-eabi/10.2.1/../../../../arm-none-eabi/lib/thumb/v7-m/nofp\libc_nano.a(lib_a-fputc.o)
                                                  e:/work/meig/ec618/ec618_sdk_rel_sdk/plat/tools/gcc/bin/../lib/gcc/arm-none-eabi/10.2.1/../../../../arm-none-eabi/lib/thumb/v7-m/nofp\libc_nano.a(lib_a-fflush.o)
                                                  e:/work/meig/ec618/ec618_sdk_rel_sdk/plat/tools/gcc/bin/../lib/gcc/arm-none-eabi/10.2.1/../../../../arm-none-eabi/lib/thumb/v7-m/nofp\libc_nano.a(lib_a-fclose.o)
                                                  e:/work/meig/ec618/ec618_sdk_rel_sdk/plat/tools/gcc/bin/../lib/gcc/arm-none-eabi/10.2.1/../../../../arm-none-eabi/lib/thumb/v7-m/nofp\libc_nano.a(lib_a-impure.o)
__sf_fake_stdin                                   e:/work/meig/ec618/ec618_sdk_rel_sdk/plat/tools/gcc/bin/../lib/gcc/arm-none-eabi/10.2.1/../../../../arm-none-eabi/lib/thumb/v7-m/nofp\libc_nano.a(lib_a-findfp.o)
                                                  e:/work/meig/ec618/ec618_sdk_rel_sdk/plat/tools/gcc/bin/../lib/gcc/arm-none-eabi/10.2.1/../../../../arm-none-eabi/lib/thumb/v7-m/nofp\libc_nano.a(lib_a-ungetc.o)
                                                  e:/work/meig/ec618/ec618_sdk_rel_sdk/plat/tools/gcc/bin/../lib/gcc/arm-none-eabi/10.2.1/../../../../arm-none-eabi/lib/thumb/v7-m/nofp\libc_nano.a(lib_a-wsetup.o)
                                                  e:/work/meig/ec618/ec618_sdk_rel_sdk/plat/tools/gcc/bin/../lib/gcc/arm-none-eabi/10.2.1/../../../../arm-none-eabi/lib/thumb/v7-m/nofp\libc_nano.a(lib_a-wbuf.o)
                                                  e:/work/meig/ec618/ec618_sdk_rel_sdk/plat/tools/gcc/bin/../lib/gcc/arm-none-eabi/10.2.1/../../../../arm-none-eabi/lib/thumb/v7-m/nofp\libc_nano.a(lib_a-setvbuf.o)
                                                  e:/work/meig/ec618/ec618_sdk_rel_sdk/plat/tools/gcc/bin/../lib/gcc/arm-none-eabi/10.2.1/../../../../arm-none-eabi/lib/thumb/v7-m/nofp\libc_nano.a(lib_a-puts.o)
                                                  e:/work/meig/ec618/ec618_sdk_rel_sdk/plat/tools/gcc/bin/../lib/gcc/arm-none-eabi/10.2.1/../../../../arm-none-eabi/lib/thumb/v7-m/nofp\libc_nano.a(lib_a-putc.o)
                                                  e:/work/meig/ec618/ec618_sdk_rel_sdk/plat/tools/gcc/bin/../lib/gcc/arm-none-eabi/10.2.1/../../../../arm-none-eabi/lib/thumb/v7-m/nofp\libc_nano.a(lib_a-nano-vfprintf.o)
                                                  e:/work/meig/ec618/ec618_sdk_rel_sdk/plat/tools/gcc/bin/../lib/gcc/arm-none-eabi/10.2.1/../../../../arm-none-eabi/lib/thumb/v7-m/nofp\libc_nano.a(lib_a-fputs.o)
                                                  e:/work/meig/ec618/ec618_sdk_rel_sdk/plat/tools/gcc/bin/../lib/gcc/arm-none-eabi/10.2.1/../../../../arm-none-eabi/lib/thumb/v7-m/nofp\libc_nano.a(lib_a-fputc.o)
                                                  e:/work/meig/ec618/ec618_sdk_rel_sdk/plat/tools/gcc/bin/../lib/gcc/arm-none-eabi/10.2.1/../../../../arm-none-eabi/lib/thumb/v7-m/nofp\libc_nano.a(lib_a-fflush.o)
                                                  e:/work/meig/ec618/ec618_sdk_rel_sdk/plat/tools/gcc/bin/../lib/gcc/arm-none-eabi/10.2.1/../../../../arm-none-eabi/lib/thumb/v7-m/nofp\libc_nano.a(lib_a-fclose.o)
                                                  e:/work/meig/ec618/ec618_sdk_rel_sdk/plat/tools/gcc/bin/../lib/gcc/arm-none-eabi/10.2.1/../../../../arm-none-eabi/lib/thumb/v7-m/nofp\libc_nano.a(lib_a-impure.o)
__sf_fake_stdout                                  e:/work/meig/ec618/ec618_sdk_rel_sdk/plat/tools/gcc/bin/../lib/gcc/arm-none-eabi/10.2.1/../../../../arm-none-eabi/lib/thumb/v7-m/nofp\libc_nano.a(lib_a-findfp.o)
                                                  e:/work/meig/ec618/ec618_sdk_rel_sdk/plat/tools/gcc/bin/../lib/gcc/arm-none-eabi/10.2.1/../../../../arm-none-eabi/lib/thumb/v7-m/nofp\libc_nano.a(lib_a-ungetc.o)
                                                  e:/work/meig/ec618/ec618_sdk_rel_sdk/plat/tools/gcc/bin/../lib/gcc/arm-none-eabi/10.2.1/../../../../arm-none-eabi/lib/thumb/v7-m/nofp\libc_nano.a(lib_a-wsetup.o)
                                                  e:/work/meig/ec618/ec618_sdk_rel_sdk/plat/tools/gcc/bin/../lib/gcc/arm-none-eabi/10.2.1/../../../../arm-none-eabi/lib/thumb/v7-m/nofp\libc_nano.a(lib_a-wbuf.o)
                                                  e:/work/meig/ec618/ec618_sdk_rel_sdk/plat/tools/gcc/bin/../lib/gcc/arm-none-eabi/10.2.1/../../../../arm-none-eabi/lib/thumb/v7-m/nofp\libc_nano.a(lib_a-setvbuf.o)
                                                  e:/work/meig/ec618/ec618_sdk_rel_sdk/plat/tools/gcc/bin/../lib/gcc/arm-none-eabi/10.2.1/../../../../arm-none-eabi/lib/thumb/v7-m/nofp\libc_nano.a(lib_a-puts.o)
                                                  e:/work/meig/ec618/ec618_sdk_rel_sdk/plat/tools/gcc/bin/../lib/gcc/arm-none-eabi/10.2.1/../../../../arm-none-eabi/lib/thumb/v7-m/nofp\libc_nano.a(lib_a-putc.o)
                                                  e:/work/meig/ec618/ec618_sdk_rel_sdk/plat/tools/gcc/bin/../lib/gcc/arm-none-eabi/10.2.1/../../../../arm-none-eabi/lib/thumb/v7-m/nofp\libc_nano.a(lib_a-nano-vfprintf.o)
                                                  e:/work/meig/ec618/ec618_sdk_rel_sdk/plat/tools/gcc/bin/../lib/gcc/arm-none-eabi/10.2.1/../../../../arm-none-eabi/lib/thumb/v7-m/nofp\libc_nano.a(lib_a-fputs.o)
                                                  e:/work/meig/ec618/ec618_sdk_rel_sdk/plat/tools/gcc/bin/../lib/gcc/arm-none-eabi/10.2.1/../../../../arm-none-eabi/lib/thumb/v7-m/nofp\libc_nano.a(lib_a-fputc.o)
                                                  e:/work/meig/ec618/ec618_sdk_rel_sdk/plat/tools/gcc/bin/../lib/gcc/arm-none-eabi/10.2.1/../../../../arm-none-eabi/lib/thumb/v7-m/nofp\libc_nano.a(lib_a-fflush.o)
                                                  e:/work/meig/ec618/ec618_sdk_rel_sdk/plat/tools/gcc/bin/../lib/gcc/arm-none-eabi/10.2.1/../../../../arm-none-eabi/lib/thumb/v7-m/nofp\libc_nano.a(lib_a-fclose.o)
                                                  e:/work/meig/ec618/ec618_sdk_rel_sdk/plat/tools/gcc/bin/../lib/gcc/arm-none-eabi/10.2.1/../../../../arm-none-eabi/lib/thumb/v7-m/nofp\libc_nano.a(lib_a-impure.o)
__sflush_r                                        e:/work/meig/ec618/ec618_sdk_rel_sdk/plat/tools/gcc/bin/../lib/gcc/arm-none-eabi/10.2.1/../../../../arm-none-eabi/lib/thumb/v7-m/nofp\libc_nano.a(lib_a-fflush.o)
                                                  e:/work/meig/ec618/ec618_sdk_rel_sdk/plat/tools/gcc/bin/../lib/gcc/arm-none-eabi/10.2.1/../../../../arm-none-eabi/lib/thumb/v7-m/nofp\libc_nano.a(lib_a-fclose.o)
__sfmoreglue                                      e:/work/meig/ec618/ec618_sdk_rel_sdk/plat/tools/gcc/bin/../lib/gcc/arm-none-eabi/10.2.1/../../../../arm-none-eabi/lib/thumb/v7-m/nofp\libc_nano.a(lib_a-findfp.o)
__sfp                                             e:/work/meig/ec618/ec618_sdk_rel_sdk/plat/tools/gcc/bin/../lib/gcc/arm-none-eabi/10.2.1/../../../../arm-none-eabi/lib/thumb/v7-m/nofp\libc_nano.a(lib_a-findfp.o)
__sfp_lock_acquire                                e:/work/meig/ec618/ec618_sdk_rel_sdk/plat/tools/gcc/bin/../lib/gcc/arm-none-eabi/10.2.1/../../../../arm-none-eabi/lib/thumb/v7-m/nofp\libc_nano.a(lib_a-findfp.o)
                                                  e:/work/meig/ec618/ec618_sdk_rel_sdk/plat/tools/gcc/bin/../lib/gcc/arm-none-eabi/10.2.1/../../../../arm-none-eabi/lib/thumb/v7-m/nofp\libc_nano.a(lib_a-fclose.o)
__sfp_lock_release                                e:/work/meig/ec618/ec618_sdk_rel_sdk/plat/tools/gcc/bin/../lib/gcc/arm-none-eabi/10.2.1/../../../../arm-none-eabi/lib/thumb/v7-m/nofp\libc_nano.a(lib_a-findfp.o)
                                                  e:/work/meig/ec618/ec618_sdk_rel_sdk/plat/tools/gcc/bin/../lib/gcc/arm-none-eabi/10.2.1/../../../../arm-none-eabi/lib/thumb/v7-m/nofp\libc_nano.a(lib_a-fclose.o)
__sfputs_r                                        e:/work/meig/ec618/ec618_sdk_rel_sdk/plat/tools/gcc/bin/../lib/gcc/arm-none-eabi/10.2.1/../../../../arm-none-eabi/lib/thumb/v7-m/nofp\libc_nano.a(lib_a-nano-vfprintf.o)
__sfvwrite_r                                      e:/work/meig/ec618/ec618_sdk_rel_sdk/plat/tools/gcc/bin/../lib/gcc/arm-none-eabi/10.2.1/../../../../arm-none-eabi/lib/thumb/v7-m/nofp\libc_nano.a(lib_a-fvwrite.o)
                                                  e:/work/meig/ec618/ec618_sdk_rel_sdk/plat/tools/gcc/bin/../lib/gcc/arm-none-eabi/10.2.1/../../../../arm-none-eabi/lib/thumb/v7-m/nofp\libc_nano.a(lib_a-nano-vfprintf.o)
__sigtramp                                        e:/work/meig/ec618/ec618_sdk_rel_sdk/plat/tools/gcc/bin/../lib/gcc/arm-none-eabi/10.2.1/../../../../arm-none-eabi/lib/thumb/v7-m/nofp\libc_nano.a(lib_a-signal.o)
__sigtramp_r                                      e:/work/meig/ec618/ec618_sdk_rel_sdk/plat/tools/gcc/bin/../lib/gcc/arm-none-eabi/10.2.1/../../../../arm-none-eabi/lib/thumb/v7-m/nofp\libc_nano.a(lib_a-signal.o)
__sinit                                           e:/work/meig/ec618/ec618_sdk_rel_sdk/plat/tools/gcc/bin/../lib/gcc/arm-none-eabi/10.2.1/../../../../arm-none-eabi/lib/thumb/v7-m/nofp\libc_nano.a(lib_a-findfp.o)
                                                  e:/work/meig/ec618/ec618_sdk_rel_sdk/plat/tools/gcc/bin/../lib/gcc/arm-none-eabi/10.2.1/../../../../arm-none-eabi/lib/thumb/v7-m/nofp\libc_nano.a(lib_a-ungetc.o)
                                                  e:/work/meig/ec618/ec618_sdk_rel_sdk/plat/tools/gcc/bin/../lib/gcc/arm-none-eabi/10.2.1/../../../../arm-none-eabi/lib/thumb/v7-m/nofp\libc_nano.a(lib_a-wsetup.o)
                                                  e:/work/meig/ec618/ec618_sdk_rel_sdk/plat/tools/gcc/bin/../lib/gcc/arm-none-eabi/10.2.1/../../../../arm-none-eabi/lib/thumb/v7-m/nofp\libc_nano.a(lib_a-wbuf.o)
                                                  e:/work/meig/ec618/ec618_sdk_rel_sdk/plat/tools/gcc/bin/../lib/gcc/arm-none-eabi/10.2.1/../../../../arm-none-eabi/lib/thumb/v7-m/nofp\libc_nano.a(lib_a-setvbuf.o)
                                                  e:/work/meig/ec618/ec618_sdk_rel_sdk/plat/tools/gcc/bin/../lib/gcc/arm-none-eabi/10.2.1/../../../../arm-none-eabi/lib/thumb/v7-m/nofp\libc_nano.a(lib_a-puts.o)
                                                  e:/work/meig/ec618/ec618_sdk_rel_sdk/plat/tools/gcc/bin/../lib/gcc/arm-none-eabi/10.2.1/../../../../arm-none-eabi/lib/thumb/v7-m/nofp\libc_nano.a(lib_a-putc.o)
                                                  e:/work/meig/ec618/ec618_sdk_rel_sdk/plat/tools/gcc/bin/../lib/gcc/arm-none-eabi/10.2.1/../../../../arm-none-eabi/lib/thumb/v7-m/nofp\libc_nano.a(lib_a-printf.o)
                                                  e:/work/meig/ec618/ec618_sdk_rel_sdk/plat/tools/gcc/bin/../lib/gcc/arm-none-eabi/10.2.1/../../../../arm-none-eabi/lib/thumb/v7-m/nofp\libc_nano.a(lib_a-nano-vfprintf.o)
                                                  e:/work/meig/ec618/ec618_sdk_rel_sdk/plat/tools/gcc/bin/../lib/gcc/arm-none-eabi/10.2.1/../../../../arm-none-eabi/lib/thumb/v7-m/nofp\libc_nano.a(lib_a-fputs.o)
                                                  e:/work/meig/ec618/ec618_sdk_rel_sdk/plat/tools/gcc/bin/../lib/gcc/arm-none-eabi/10.2.1/../../../../arm-none-eabi/lib/thumb/v7-m/nofp\libc_nano.a(lib_a-fputc.o)
                                                  e:/work/meig/ec618/ec618_sdk_rel_sdk/plat/tools/gcc/bin/../lib/gcc/arm-none-eabi/10.2.1/../../../../arm-none-eabi/lib/thumb/v7-m/nofp\libc_nano.a(lib_a-fflush.o)
                                                  e:/work/meig/ec618/ec618_sdk_rel_sdk/plat/tools/gcc/bin/../lib/gcc/arm-none-eabi/10.2.1/../../../../arm-none-eabi/lib/thumb/v7-m/nofp\libc_nano.a(lib_a-fclose.o)
__sinit_lock_acquire                              e:/work/meig/ec618/ec618_sdk_rel_sdk/plat/tools/gcc/bin/../lib/gcc/arm-none-eabi/10.2.1/../../../../arm-none-eabi/lib/thumb/v7-m/nofp\libc_nano.a(lib_a-findfp.o)
__sinit_lock_release                              e:/work/meig/ec618/ec618_sdk_rel_sdk/plat/tools/gcc/bin/../lib/gcc/arm-none-eabi/10.2.1/../../../../arm-none-eabi/lib/thumb/v7-m/nofp\libc_nano.a(lib_a-findfp.o)
__smakebuf_r                                      e:/work/meig/ec618/ec618_sdk_rel_sdk/plat/tools/gcc/bin/../lib/gcc/arm-none-eabi/10.2.1/../../../../arm-none-eabi/lib/thumb/v7-m/nofp\libc_nano.a(lib_a-makebuf.o)
                                                  e:/work/meig/ec618/ec618_sdk_rel_sdk/plat/tools/gcc/bin/../lib/gcc/arm-none-eabi/10.2.1/../../../../arm-none-eabi/lib/thumb/v7-m/nofp\libc_nano.a(lib_a-wsetup.o)
__sprint_r                                        e:/work/meig/ec618/ec618_sdk_rel_sdk/plat/tools/gcc/bin/../lib/gcc/arm-none-eabi/10.2.1/../../../../arm-none-eabi/lib/thumb/v7-m/nofp\libc_nano.a(lib_a-nano-vfprintf.o)
__sread                                           e:/work/meig/ec618/ec618_sdk_rel_sdk/plat/tools/gcc/bin/../lib/gcc/arm-none-eabi/10.2.1/../../../../arm-none-eabi/lib/thumb/v7-m/nofp\libc_nano.a(lib_a-stdio.o)
                                                  e:/work/meig/ec618/ec618_sdk_rel_sdk/plat/tools/gcc/bin/../lib/gcc/arm-none-eabi/10.2.1/../../../../arm-none-eabi/lib/thumb/v7-m/nofp\libc_nano.a(lib_a-findfp.o)
__sseek                                           e:/work/meig/ec618/ec618_sdk_rel_sdk/plat/tools/gcc/bin/../lib/gcc/arm-none-eabi/10.2.1/../../../../arm-none-eabi/lib/thumb/v7-m/nofp\libc_nano.a(lib_a-stdio.o)
                                                  e:/work/meig/ec618/ec618_sdk_rel_sdk/plat/tools/gcc/bin/../lib/gcc/arm-none-eabi/10.2.1/../../../../arm-none-eabi/lib/thumb/v7-m/nofp\libc_nano.a(lib_a-findfp.o)
__ssprint_r                                       e:/work/meig/ec618/ec618_sdk_rel_sdk/plat/tools/gcc/bin/../lib/gcc/arm-none-eabi/10.2.1/../../../../arm-none-eabi/lib/thumb/v7-m/nofp\libc_nano.a(lib_a-nano-svfprintf.o)
__ssputs_r                                        e:/work/meig/ec618/ec618_sdk_rel_sdk/plat/tools/gcc/bin/../lib/gcc/arm-none-eabi/10.2.1/../../../../arm-none-eabi/lib/thumb/v7-m/nofp\libc_nano.a(lib_a-nano-svfprintf.o)
__ssrefill_r                                      e:/work/meig/ec618/ec618_sdk_rel_sdk/plat/tools/gcc/bin/../lib/gcc/arm-none-eabi/10.2.1/../../../../arm-none-eabi/lib/thumb/v7-m/nofp\libc_nano.a(lib_a-nano-svfscanf.o)
__ssvfiscanf_r                                    e:/work/meig/ec618/ec618_sdk_rel_sdk/plat/tools/gcc/bin/../lib/gcc/arm-none-eabi/10.2.1/../../../../arm-none-eabi/lib/thumb/v7-m/nofp\libc_nano.a(lib_a-nano-svfscanf.o)
__ssvfscanf_r                                     e:/work/meig/ec618/ec618_sdk_rel_sdk/plat/tools/gcc/bin/../lib/gcc/arm-none-eabi/10.2.1/../../../../arm-none-eabi/lib/thumb/v7-m/nofp\libc_nano.a(lib_a-nano-svfscanf.o)
                                                  e:/work/meig/ec618/ec618_sdk_rel_sdk/plat/tools/gcc/bin/../lib/gcc/arm-none-eabi/10.2.1/../../../../arm-none-eabi/lib/thumb/v7-m/nofp\libc_nano.a(lib_a-sscanf.o)
__stack                                           e:/work/meig/ec618/ec618_sdk_rel_sdk/plat/tools/gcc/bin/../lib/gcc/arm-none-eabi/10.2.1/../../../../arm-none-eabi/lib/thumb/v7-m/nofp/crt0.o
__submore                                         e:/work/meig/ec618/ec618_sdk_rel_sdk/plat/tools/gcc/bin/../lib/gcc/arm-none-eabi/10.2.1/../../../../arm-none-eabi/lib/thumb/v7-m/nofp\libc_nano.a(lib_a-ungetc.o)
                                                  e:/work/meig/ec618/ec618_sdk_rel_sdk/plat/tools/gcc/bin/../lib/gcc/arm-none-eabi/10.2.1/../../../../arm-none-eabi/lib/thumb/v7-m/nofp\libc_nano.a(lib_a-nano-svfscanf.o)
__swbuf                                           e:/work/meig/ec618/ec618_sdk_rel_sdk/plat/tools/gcc/bin/../lib/gcc/arm-none-eabi/10.2.1/../../../../arm-none-eabi/lib/thumb/v7-m/nofp\libc_nano.a(lib_a-wbuf.o)
__swbuf_r                                         e:/work/meig/ec618/ec618_sdk_rel_sdk/plat/tools/gcc/bin/../lib/gcc/arm-none-eabi/10.2.1/../../../../arm-none-eabi/lib/thumb/v7-m/nofp\libc_nano.a(lib_a-wbuf.o)
                                                  e:/work/meig/ec618/ec618_sdk_rel_sdk/plat/tools/gcc/bin/../lib/gcc/arm-none-eabi/10.2.1/../../../../arm-none-eabi/lib/thumb/v7-m/nofp\libc_nano.a(lib_a-puts.o)
                                                  e:/work/meig/ec618/ec618_sdk_rel_sdk/plat/tools/gcc/bin/../lib/gcc/arm-none-eabi/10.2.1/../../../../arm-none-eabi/lib/thumb/v7-m/nofp\libc_nano.a(lib_a-putc.o)
                                                  e:/work/meig/ec618/ec618_sdk_rel_sdk/plat/tools/gcc/bin/../lib/gcc/arm-none-eabi/10.2.1/../../../../arm-none-eabi/lib/thumb/v7-m/nofp\libc_nano.a(lib_a-nano-vfprintf.o)
                                                  e:/work/meig/ec618/ec618_sdk_rel_sdk/plat/tools/gcc/bin/../lib/gcc/arm-none-eabi/10.2.1/../../../../arm-none-eabi/lib/thumb/v7-m/nofp\libc_nano.a(lib_a-fputs.o)
__swhatbuf_r                                      e:/work/meig/ec618/ec618_sdk_rel_sdk/plat/tools/gcc/bin/../lib/gcc/arm-none-eabi/10.2.1/../../../../arm-none-eabi/lib/thumb/v7-m/nofp\libc_nano.a(lib_a-makebuf.o)
                                                  e:/work/meig/ec618/ec618_sdk_rel_sdk/plat/tools/gcc/bin/../lib/gcc/arm-none-eabi/10.2.1/../../../../arm-none-eabi/lib/thumb/v7-m/nofp\libc_nano.a(lib_a-setvbuf.o)
__swrite                                          e:/work/meig/ec618/ec618_sdk_rel_sdk/plat/tools/gcc/bin/../lib/gcc/arm-none-eabi/10.2.1/../../../../arm-none-eabi/lib/thumb/v7-m/nofp\libc_nano.a(lib_a-stdio.o)
                                                  e:/work/meig/ec618/ec618_sdk_rel_sdk/plat/tools/gcc/bin/../lib/gcc/arm-none-eabi/10.2.1/../../../../arm-none-eabi/lib/thumb/v7-m/nofp\libc_nano.a(lib_a-findfp.o)
__swsetup_r                                       e:/work/meig/ec618/ec618_sdk_rel_sdk/plat/tools/gcc/bin/../lib/gcc/arm-none-eabi/10.2.1/../../../../arm-none-eabi/lib/thumb/v7-m/nofp\libc_nano.a(lib_a-wsetup.o)
                                                  e:/work/meig/ec618/ec618_sdk_rel_sdk/plat/tools/gcc/bin/../lib/gcc/arm-none-eabi/10.2.1/../../../../arm-none-eabi/lib/thumb/v7-m/nofp\libc_nano.a(lib_a-fvwrite.o)
                                                  e:/work/meig/ec618/ec618_sdk_rel_sdk/plat/tools/gcc/bin/../lib/gcc/arm-none-eabi/10.2.1/../../../../arm-none-eabi/lib/thumb/v7-m/nofp\libc_nano.a(lib_a-wbuf.o)
                                                  e:/work/meig/ec618/ec618_sdk_rel_sdk/plat/tools/gcc/bin/../lib/gcc/arm-none-eabi/10.2.1/../../../../arm-none-eabi/lib/thumb/v7-m/nofp\libc_nano.a(lib_a-puts.o)
                                                  e:/work/meig/ec618/ec618_sdk_rel_sdk/plat/tools/gcc/bin/../lib/gcc/arm-none-eabi/10.2.1/../../../../arm-none-eabi/lib/thumb/v7-m/nofp\libc_nano.a(lib_a-nano-vfprintf.o)
                                                  e:/work/meig/ec618/ec618_sdk_rel_sdk/plat/tools/gcc/bin/../lib/gcc/arm-none-eabi/10.2.1/../../../../arm-none-eabi/lib/thumb/v7-m/nofp\libc_nano.a(lib_a-fputs.o)
__tz_lock                                         e:/work/meig/ec618/ec618_sdk_rel_sdk/plat/tools/gcc/bin/../lib/gcc/arm-none-eabi/10.2.1/../../../../arm-none-eabi/lib/thumb/v7-m/nofp\libc_nano.a(lib_a-tzlock.o)
                                                  e:/work/meig/ec618/ec618_sdk_rel_sdk/plat/tools/gcc/bin/../lib/gcc/arm-none-eabi/10.2.1/../../../../arm-none-eabi/lib/thumb/v7-m/nofp\libc_nano.a(lib_a-tzset_r.o)
                                                  e:/work/meig/ec618/ec618_sdk_rel_sdk/plat/tools/gcc/bin/../lib/gcc/arm-none-eabi/10.2.1/../../../../arm-none-eabi/lib/thumb/v7-m/nofp\libc_nano.a(lib_a-tzset.o)
                                                  e:/work/meig/ec618/ec618_sdk_rel_sdk/plat/tools/gcc/bin/../lib/gcc/arm-none-eabi/10.2.1/../../../../arm-none-eabi/lib/thumb/v7-m/nofp\libc_nano.a(lib_a-mktime.o)
__tz_unlock                                       e:/work/meig/ec618/ec618_sdk_rel_sdk/plat/tools/gcc/bin/../lib/gcc/arm-none-eabi/10.2.1/../../../../arm-none-eabi/lib/thumb/v7-m/nofp\libc_nano.a(lib_a-tzlock.o)
                                                  e:/work/meig/ec618/ec618_sdk_rel_sdk/plat/tools/gcc/bin/../lib/gcc/arm-none-eabi/10.2.1/../../../../arm-none-eabi/lib/thumb/v7-m/nofp\libc_nano.a(lib_a-tzset_r.o)
                                                  e:/work/meig/ec618/ec618_sdk_rel_sdk/plat/tools/gcc/bin/../lib/gcc/arm-none-eabi/10.2.1/../../../../arm-none-eabi/lib/thumb/v7-m/nofp\libc_nano.a(lib_a-tzset.o)
                                                  e:/work/meig/ec618/ec618_sdk_rel_sdk/plat/tools/gcc/bin/../lib/gcc/arm-none-eabi/10.2.1/../../../../arm-none-eabi/lib/thumb/v7-m/nofp\libc_nano.a(lib_a-mktime.o)
__tzcalc_limits                                   e:/work/meig/ec618/ec618_sdk_rel_sdk/plat/tools/gcc/bin/../lib/gcc/arm-none-eabi/10.2.1/../../../../arm-none-eabi/lib/thumb/v7-m/nofp\libc_nano.a(lib_a-tzcalc_limits.o)
                                                  e:/work/meig/ec618/ec618_sdk_rel_sdk/plat/tools/gcc/bin/../lib/gcc/arm-none-eabi/10.2.1/../../../../arm-none-eabi/lib/thumb/v7-m/nofp\libc_nano.a(lib_a-tzset_r.o)
                                                  e:/work/meig/ec618/ec618_sdk_rel_sdk/plat/tools/gcc/bin/../lib/gcc/arm-none-eabi/10.2.1/../../../../arm-none-eabi/lib/thumb/v7-m/nofp\libc_nano.a(lib_a-mktime.o)
__udivmoddi4                                      e:/work/meig/ec618/ec618_sdk_rel_sdk/plat/tools/gcc/bin/../lib/gcc/arm-none-eabi/10.2.1/thumb/v7-m/nofp\libgcc.a(_udivmoddi4.o)
                                                  e:/work/meig/ec618/ec618_sdk_rel_sdk/plat/tools/gcc/bin/../lib/gcc/arm-none-eabi/10.2.1/thumb/v7-m/nofp\libgcc.a(_aeabi_uldivmod.o)
                                                  e:/work/meig/ec618/ec618_sdk_rel_sdk/plat/tools/gcc/bin/../lib/gcc/arm-none-eabi/10.2.1/thumb/v7-m/nofp\libgcc.a(_aeabi_ldivmod.o)
_cleanup                                          e:/work/meig/ec618/ec618_sdk_rel_sdk/plat/tools/gcc/bin/../lib/gcc/arm-none-eabi/10.2.1/../../../../arm-none-eabi/lib/thumb/v7-m/nofp\libc_nano.a(lib_a-findfp.o)
_cleanup_r                                        e:/work/meig/ec618/ec618_sdk_rel_sdk/plat/tools/gcc/bin/../lib/gcc/arm-none-eabi/10.2.1/../../../../arm-none-eabi/lib/thumb/v7-m/nofp\libc_nano.a(lib_a-findfp.o)
                                                  e:/work/meig/ec618/ec618_sdk_rel_sdk/plat/tools/gcc/bin/../lib/gcc/arm-none-eabi/10.2.1/../../../../arm-none-eabi/lib/thumb/v7-m/nofp\libc_nano.a(lib_a-makebuf.o)
_close                                            ../../../../../../../PLAT/gccout/ec618_0h00/ap/bootloader/lib/libstartup.a(syscalls.o)
                                                  e:/work/meig/ec618/ec618_sdk_rel_sdk/plat/tools/gcc/bin/../lib/gcc/arm-none-eabi/10.2.1/../../../../arm-none-eabi/lib/thumb/v7-m/nofp\libc_nano.a(lib_a-closer.o)
_close_r                                          e:/work/meig/ec618/ec618_sdk_rel_sdk/plat/tools/gcc/bin/../lib/gcc/arm-none-eabi/10.2.1/../../../../arm-none-eabi/lib/thumb/v7-m/nofp\libc_nano.a(lib_a-closer.o)
                                                  e:/work/meig/ec618/ec618_sdk_rel_sdk/plat/tools/gcc/bin/../lib/gcc/arm-none-eabi/10.2.1/../../../../arm-none-eabi/lib/thumb/v7-m/nofp\libc_nano.a(lib_a-stdio.o)
_ctype_                                           e:/work/meig/ec618/ec618_sdk_rel_sdk/plat/tools/gcc/bin/../lib/gcc/arm-none-eabi/10.2.1/../../../../arm-none-eabi/lib/thumb/v7-m/nofp\libc_nano.a(lib_a-ctype_.o)
                                                  e:/work/meig/ec618/ec618_sdk_rel_sdk/plat/tools/gcc/bin/../lib/gcc/arm-none-eabi/10.2.1/../../../../arm-none-eabi/lib/thumb/v7-m/nofp\libc_nano.a(lib_a-strtol.o)
                                                  e:/work/meig/ec618/ec618_sdk_rel_sdk/plat/tools/gcc/bin/../lib/gcc/arm-none-eabi/10.2.1/../../../../arm-none-eabi/lib/thumb/v7-m/nofp\libc_nano.a(lib_a-nano-vfscanf_i.o)
                                                  e:/work/meig/ec618/ec618_sdk_rel_sdk/plat/tools/gcc/bin/../lib/gcc/arm-none-eabi/10.2.1/../../../../arm-none-eabi/lib/thumb/v7-m/nofp\libc_nano.a(lib_a-nano-svfscanf.o)
                                                  e:/work/meig/ec618/ec618_sdk_rel_sdk/plat/tools/gcc/bin/../lib/gcc/arm-none-eabi/10.2.1/../../../../arm-none-eabi/lib/thumb/v7-m/nofp\libc_nano.a(lib_a-strtoul.o)
                                                  e:/work/meig/ec618/ec618_sdk_rel_sdk/plat/tools/gcc/bin/../lib/gcc/arm-none-eabi/10.2.1/../../../../arm-none-eabi/lib/thumb/v7-m/nofp\libc_nano.a(lib_a-strncasecmp.o)
                                                  e:/work/meig/ec618/ec618_sdk_rel_sdk/plat/tools/gcc/bin/../lib/gcc/arm-none-eabi/10.2.1/../../../../arm-none-eabi/lib/thumb/v7-m/nofp\libc_nano.a(lib_a-strcasecmp.o)
_daylight                                         e:/work/meig/ec618/ec618_sdk_rel_sdk/plat/tools/gcc/bin/../lib/gcc/arm-none-eabi/10.2.1/../../../../arm-none-eabi/lib/thumb/v7-m/nofp\libc_nano.a(lib_a-tzvars.o)
                                                  e:/work/meig/ec618/ec618_sdk_rel_sdk/plat/tools/gcc/bin/../lib/gcc/arm-none-eabi/10.2.1/../../../../arm-none-eabi/lib/thumb/v7-m/nofp\libc_nano.a(lib_a-tzset_r.o)
                                                  e:/work/meig/ec618/ec618_sdk_rel_sdk/plat/tools/gcc/bin/../lib/gcc/arm-none-eabi/10.2.1/../../../../arm-none-eabi/lib/thumb/v7-m/nofp\libc_nano.a(lib_a-mktime.o)
_exit                                             ../../../../../../../PLAT/gccout/ec618_0h00/ap/bootloader/lib/libstartup.a(syscalls.o)
                                                  e:/work/meig/ec618/ec618_sdk_rel_sdk/plat/tools/gcc/bin/../lib/gcc/arm-none-eabi/10.2.1/../../../../arm-none-eabi/lib/thumb/v7-m/nofp\libc_nano.a(lib_a-abort.o)
                                                  e:/work/meig/ec618/ec618_sdk_rel_sdk/plat/tools/gcc/bin/../lib/gcc/arm-none-eabi/10.2.1/../../../../arm-none-eabi/lib/thumb/v7-m/nofp\libc_nano.a(lib_a-exit.o)
_fclose_r                                         e:/work/meig/ec618/ec618_sdk_rel_sdk/plat/tools/gcc/bin/../lib/gcc/arm-none-eabi/10.2.1/../../../../arm-none-eabi/lib/thumb/v7-m/nofp\libc_nano.a(lib_a-fclose.o)
_fflush_r                                         e:/work/meig/ec618/ec618_sdk_rel_sdk/plat/tools/gcc/bin/../lib/gcc/arm-none-eabi/10.2.1/../../../../arm-none-eabi/lib/thumb/v7-m/nofp\libc_nano.a(lib_a-fflush.o)
                                                  e:/work/meig/ec618/ec618_sdk_rel_sdk/plat/tools/gcc/bin/../lib/gcc/arm-none-eabi/10.2.1/../../../../arm-none-eabi/lib/thumb/v7-m/nofp\libc_nano.a(lib_a-ungetc.o)
                                                  e:/work/meig/ec618/ec618_sdk_rel_sdk/plat/tools/gcc/bin/../lib/gcc/arm-none-eabi/10.2.1/../../../../arm-none-eabi/lib/thumb/v7-m/nofp\libc_nano.a(lib_a-fvwrite.o)
                                                  e:/work/meig/ec618/ec618_sdk_rel_sdk/plat/tools/gcc/bin/../lib/gcc/arm-none-eabi/10.2.1/../../../../arm-none-eabi/lib/thumb/v7-m/nofp\libc_nano.a(lib_a-wbuf.o)
                                                  e:/work/meig/ec618/ec618_sdk_rel_sdk/plat/tools/gcc/bin/../lib/gcc/arm-none-eabi/10.2.1/../../../../arm-none-eabi/lib/thumb/v7-m/nofp\libc_nano.a(lib_a-setvbuf.o)
                                                  e:/work/meig/ec618/ec618_sdk_rel_sdk/plat/tools/gcc/bin/../lib/gcc/arm-none-eabi/10.2.1/../../../../arm-none-eabi/lib/thumb/v7-m/nofp\libc_nano.a(lib_a-findfp.o)
_findenv_r                                        e:/work/meig/ec618/ec618_sdk_rel_sdk/plat/tools/gcc/bin/../lib/gcc/arm-none-eabi/10.2.1/../../../../arm-none-eabi/lib/thumb/v7-m/nofp\libc_nano.a(lib_a-getenv_r.o)
_fini                                             e:/work/meig/ec618/ec618_sdk_rel_sdk/plat/tools/gcc/bin/../lib/gcc/arm-none-eabi/10.2.1/thumb/v7-m/nofp/crti.o
_fiprintf_r                                       e:/work/meig/ec618/ec618_sdk_rel_sdk/plat/tools/gcc/bin/../lib/gcc/arm-none-eabi/10.2.1/../../../../arm-none-eabi/lib/thumb/v7-m/nofp\libc_nano.a(lib_a-fprintf.o)
_fprintf_r                                        e:/work/meig/ec618/ec618_sdk_rel_sdk/plat/tools/gcc/bin/../lib/gcc/arm-none-eabi/10.2.1/../../../../arm-none-eabi/lib/thumb/v7-m/nofp\libc_nano.a(lib_a-fprintf.o)
_fputc_r                                          e:/work/meig/ec618/ec618_sdk_rel_sdk/plat/tools/gcc/bin/../lib/gcc/arm-none-eabi/10.2.1/../../../../arm-none-eabi/lib/thumb/v7-m/nofp\libc_nano.a(lib_a-fputc.o)
_fputs_r                                          e:/work/meig/ec618/ec618_sdk_rel_sdk/plat/tools/gcc/bin/../lib/gcc/arm-none-eabi/10.2.1/../../../../arm-none-eabi/lib/thumb/v7-m/nofp\libc_nano.a(lib_a-fputs.o)
_free_r                                           e:/work/meig/ec618/ec618_sdk_rel_sdk/plat/tools/gcc/bin/../lib/gcc/arm-none-eabi/10.2.1/../../../../arm-none-eabi/lib/thumb/v7-m/nofp\libc_nano.a(lib_a-nano-freer.o)
                                                  e:/work/meig/ec618/ec618_sdk_rel_sdk/plat/tools/gcc/bin/../lib/gcc/arm-none-eabi/10.2.1/../../../../arm-none-eabi/lib/thumb/v7-m/nofp\libc_nano.a(lib_a-nano-svfscanf.o)
                                                  e:/work/meig/ec618/ec618_sdk_rel_sdk/plat/tools/gcc/bin/../lib/gcc/arm-none-eabi/10.2.1/../../../../arm-none-eabi/lib/thumb/v7-m/nofp\libc_nano.a(lib_a-reent.o)
                                                  e:/work/meig/ec618/ec618_sdk_rel_sdk/plat/tools/gcc/bin/../lib/gcc/arm-none-eabi/10.2.1/../../../../arm-none-eabi/lib/thumb/v7-m/nofp\libc_nano.a(lib_a-nano-svfprintf.o)
                                                  e:/work/meig/ec618/ec618_sdk_rel_sdk/plat/tools/gcc/bin/../lib/gcc/arm-none-eabi/10.2.1/../../../../arm-none-eabi/lib/thumb/v7-m/nofp\libc_nano.a(lib_a-nano-reallocr.o)
                                                  e:/work/meig/ec618/ec618_sdk_rel_sdk/plat/tools/gcc/bin/../lib/gcc/arm-none-eabi/10.2.1/../../../../arm-none-eabi/lib/thumb/v7-m/nofp\libc_nano.a(lib_a-fvwrite.o)
                                                  e:/work/meig/ec618/ec618_sdk_rel_sdk/plat/tools/gcc/bin/../lib/gcc/arm-none-eabi/10.2.1/../../../../arm-none-eabi/lib/thumb/v7-m/nofp\libc_nano.a(lib_a-wsetup.o)
                                                  e:/work/meig/ec618/ec618_sdk_rel_sdk/plat/tools/gcc/bin/../lib/gcc/arm-none-eabi/10.2.1/../../../../arm-none-eabi/lib/thumb/v7-m/nofp\libc_nano.a(lib_a-setvbuf.o)
                                                  e:/work/meig/ec618/ec618_sdk_rel_sdk/plat/tools/gcc/bin/../lib/gcc/arm-none-eabi/10.2.1/../../../../arm-none-eabi/lib/thumb/v7-m/nofp\libc_nano.a(lib_a-malloc.o)
                                                  e:/work/meig/ec618/ec618_sdk_rel_sdk/plat/tools/gcc/bin/../lib/gcc/arm-none-eabi/10.2.1/../../../../arm-none-eabi/lib/thumb/v7-m/nofp\libc_nano.a(lib_a-fflush.o)
                                                  e:/work/meig/ec618/ec618_sdk_rel_sdk/plat/tools/gcc/bin/../lib/gcc/arm-none-eabi/10.2.1/../../../../arm-none-eabi/lib/thumb/v7-m/nofp\libc_nano.a(lib_a-fclose.o)
_fstat                                            ../../../../../../../PLAT/gccout/ec618_0h00/ap/bootloader/lib/libstartup.a(syscalls.o)
                                                  e:/work/meig/ec618/ec618_sdk_rel_sdk/plat/tools/gcc/bin/../lib/gcc/arm-none-eabi/10.2.1/../../../../arm-none-eabi/lib/thumb/v7-m/nofp\libc_nano.a(lib_a-fstatr.o)
_fstat_r                                          e:/work/meig/ec618/ec618_sdk_rel_sdk/plat/tools/gcc/bin/../lib/gcc/arm-none-eabi/10.2.1/../../../../arm-none-eabi/lib/thumb/v7-m/nofp\libc_nano.a(lib_a-fstatr.o)
                                                  e:/work/meig/ec618/ec618_sdk_rel_sdk/plat/tools/gcc/bin/../lib/gcc/arm-none-eabi/10.2.1/../../../../arm-none-eabi/lib/thumb/v7-m/nofp\libc_nano.a(lib_a-makebuf.o)
_fwalk                                            e:/work/meig/ec618/ec618_sdk_rel_sdk/plat/tools/gcc/bin/../lib/gcc/arm-none-eabi/10.2.1/../../../../arm-none-eabi/lib/thumb/v7-m/nofp\libc_nano.a(lib_a-fwalk.o)
                                                  e:/work/meig/ec618/ec618_sdk_rel_sdk/plat/tools/gcc/bin/../lib/gcc/arm-none-eabi/10.2.1/../../../../arm-none-eabi/lib/thumb/v7-m/nofp\libc_nano.a(lib_a-findfp.o)
_fwalk_reent                                      e:/work/meig/ec618/ec618_sdk_rel_sdk/plat/tools/gcc/bin/../lib/gcc/arm-none-eabi/10.2.1/../../../../arm-none-eabi/lib/thumb/v7-m/nofp\libc_nano.a(lib_a-fwalk.o)
                                                  e:/work/meig/ec618/ec618_sdk_rel_sdk/plat/tools/gcc/bin/../lib/gcc/arm-none-eabi/10.2.1/../../../../arm-none-eabi/lib/thumb/v7-m/nofp\libc_nano.a(lib_a-findfp.o)
                                                  e:/work/meig/ec618/ec618_sdk_rel_sdk/plat/tools/gcc/bin/../lib/gcc/arm-none-eabi/10.2.1/../../../../arm-none-eabi/lib/thumb/v7-m/nofp\libc_nano.a(lib_a-fflush.o)
_getenv_r                                         e:/work/meig/ec618/ec618_sdk_rel_sdk/plat/tools/gcc/bin/../lib/gcc/arm-none-eabi/10.2.1/../../../../arm-none-eabi/lib/thumb/v7-m/nofp\libc_nano.a(lib_a-getenv_r.o)
                                                  e:/work/meig/ec618/ec618_sdk_rel_sdk/plat/tools/gcc/bin/../lib/gcc/arm-none-eabi/10.2.1/../../../../arm-none-eabi/lib/thumb/v7-m/nofp\libc_nano.a(lib_a-tzset_r.o)
_getpid                                           ../../../../../../../PLAT/gccout/ec618_0h00/ap/bootloader/lib/libstartup.a(syscalls.o)
                                                  e:/work/meig/ec618/ec618_sdk_rel_sdk/plat/tools/gcc/bin/../lib/gcc/arm-none-eabi/10.2.1/../../../../arm-none-eabi/lib/thumb/v7-m/nofp\libc_nano.a(lib_a-signalr.o)
_getpid_r                                         e:/work/meig/ec618/ec618_sdk_rel_sdk/plat/tools/gcc/bin/../lib/gcc/arm-none-eabi/10.2.1/../../../../arm-none-eabi/lib/thumb/v7-m/nofp\libc_nano.a(lib_a-signalr.o)
                                                  e:/work/meig/ec618/ec618_sdk_rel_sdk/plat/tools/gcc/bin/../lib/gcc/arm-none-eabi/10.2.1/../../../../arm-none-eabi/lib/thumb/v7-m/nofp\libc_nano.a(lib_a-signal.o)
_global_impure_ptr                                e:/work/meig/ec618/ec618_sdk_rel_sdk/plat/tools/gcc/bin/../lib/gcc/arm-none-eabi/10.2.1/../../../../arm-none-eabi/lib/thumb/v7-m/nofp\libc_nano.a(lib_a-impure.o)
                                                  e:/work/meig/ec618/ec618_sdk_rel_sdk/plat/tools/gcc/bin/../lib/gcc/arm-none-eabi/10.2.1/../../../../arm-none-eabi/lib/thumb/v7-m/nofp\libc_nano.a(lib_a-findfp.o)
                                                  e:/work/meig/ec618/ec618_sdk_rel_sdk/plat/tools/gcc/bin/../lib/gcc/arm-none-eabi/10.2.1/../../../../arm-none-eabi/lib/thumb/v7-m/nofp\libc_nano.a(lib_a-fflush.o)
                                                  e:/work/meig/ec618/ec618_sdk_rel_sdk/plat/tools/gcc/bin/../lib/gcc/arm-none-eabi/10.2.1/../../../../arm-none-eabi/lib/thumb/v7-m/nofp\libc_nano.a(lib_a-exit.o)
_heap_memory_end                                  ../../../../../../../PLAT/gccout/ec618_0h00/ap/bootloader/lib/libstartup.a(syscalls.o)
_heap_memory_start                                ../../../../../../../PLAT/gccout/ec618_0h00/ap/bootloader/lib/libstartup.a(syscalls.o)
_impure_ptr                                       e:/work/meig/ec618/ec618_sdk_rel_sdk/plat/tools/gcc/bin/../lib/gcc/arm-none-eabi/10.2.1/../../../../arm-none-eabi/lib/thumb/v7-m/nofp\libc_nano.a(lib_a-impure.o)
                                                  e:/work/meig/ec618/ec618_sdk_rel_sdk/plat/tools/gcc/bin/../lib/gcc/arm-none-eabi/10.2.1/../../../../arm-none-eabi/lib/thumb/v7-m/nofp\libc_nano.a(lib_a-errno.o)
                                                  e:/work/meig/ec618/ec618_sdk_rel_sdk/plat/tools/gcc/bin/../lib/gcc/arm-none-eabi/10.2.1/../../../../arm-none-eabi/lib/thumb/v7-m/nofp\libc_nano.a(lib_a-ungetc.o)
                                                  e:/work/meig/ec618/ec618_sdk_rel_sdk/plat/tools/gcc/bin/../lib/gcc/arm-none-eabi/10.2.1/../../../../arm-none-eabi/lib/thumb/v7-m/nofp\libc_nano.a(lib_a-strtol.o)
                                                  e:/work/meig/ec618/ec618_sdk_rel_sdk/plat/tools/gcc/bin/../lib/gcc/arm-none-eabi/10.2.1/../../../../arm-none-eabi/lib/thumb/v7-m/nofp\libc_nano.a(lib_a-strtoul.o)
                                                  e:/work/meig/ec618/ec618_sdk_rel_sdk/plat/tools/gcc/bin/../lib/gcc/arm-none-eabi/10.2.1/../../../../arm-none-eabi/lib/thumb/v7-m/nofp\libc_nano.a(lib_a-sscanf.o)
                                                  e:/work/meig/ec618/ec618_sdk_rel_sdk/plat/tools/gcc/bin/../lib/gcc/arm-none-eabi/10.2.1/../../../../arm-none-eabi/lib/thumb/v7-m/nofp\libc_nano.a(lib_a-signal.o)
                                                  e:/work/meig/ec618/ec618_sdk_rel_sdk/plat/tools/gcc/bin/../lib/gcc/arm-none-eabi/10.2.1/../../../../arm-none-eabi/lib/thumb/v7-m/nofp\libc_nano.a(lib_a-reent.o)
                                                  e:/work/meig/ec618/ec618_sdk_rel_sdk/plat/tools/gcc/bin/../lib/gcc/arm-none-eabi/10.2.1/../../../../arm-none-eabi/lib/thumb/v7-m/nofp\libc_nano.a(lib_a-wsetup.o)
                                                  e:/work/meig/ec618/ec618_sdk_rel_sdk/plat/tools/gcc/bin/../lib/gcc/arm-none-eabi/10.2.1/../../../../arm-none-eabi/lib/thumb/v7-m/nofp\libc_nano.a(lib_a-wbuf.o)
                                                  e:/work/meig/ec618/ec618_sdk_rel_sdk/plat/tools/gcc/bin/../lib/gcc/arm-none-eabi/10.2.1/../../../../arm-none-eabi/lib/thumb/v7-m/nofp\libc_nano.a(lib_a-vsnprintf.o)
                                                  e:/work/meig/ec618/ec618_sdk_rel_sdk/plat/tools/gcc/bin/../lib/gcc/arm-none-eabi/10.2.1/../../../../arm-none-eabi/lib/thumb/v7-m/nofp\libc_nano.a(lib_a-tzset.o)
                                                  e:/work/meig/ec618/ec618_sdk_rel_sdk/plat/tools/gcc/bin/../lib/gcc/arm-none-eabi/10.2.1/../../../../arm-none-eabi/lib/thumb/v7-m/nofp\libc_nano.a(lib_a-sprintf.o)
                                                  e:/work/meig/ec618/ec618_sdk_rel_sdk/plat/tools/gcc/bin/../lib/gcc/arm-none-eabi/10.2.1/../../../../arm-none-eabi/lib/thumb/v7-m/nofp\libc_nano.a(lib_a-setvbuf.o)
                                                  e:/work/meig/ec618/ec618_sdk_rel_sdk/plat/tools/gcc/bin/../lib/gcc/arm-none-eabi/10.2.1/../../../../arm-none-eabi/lib/thumb/v7-m/nofp\libc_nano.a(lib_a-rand.o)
                                                  e:/work/meig/ec618/ec618_sdk_rel_sdk/plat/tools/gcc/bin/../lib/gcc/arm-none-eabi/10.2.1/../../../../arm-none-eabi/lib/thumb/v7-m/nofp\libc_nano.a(lib_a-puts.o)
                                                  e:/work/meig/ec618/ec618_sdk_rel_sdk/plat/tools/gcc/bin/../lib/gcc/arm-none-eabi/10.2.1/../../../../arm-none-eabi/lib/thumb/v7-m/nofp\libc_nano.a(lib_a-putc.o)
                                                  e:/work/meig/ec618/ec618_sdk_rel_sdk/plat/tools/gcc/bin/../lib/gcc/arm-none-eabi/10.2.1/../../../../arm-none-eabi/lib/thumb/v7-m/nofp\libc_nano.a(lib_a-printf.o)
                                                  e:/work/meig/ec618/ec618_sdk_rel_sdk/plat/tools/gcc/bin/../lib/gcc/arm-none-eabi/10.2.1/../../../../arm-none-eabi/lib/thumb/v7-m/nofp\libc_nano.a(lib_a-nano-vfprintf.o)
                                                  e:/work/meig/ec618/ec618_sdk_rel_sdk/plat/tools/gcc/bin/../lib/gcc/arm-none-eabi/10.2.1/../../../../arm-none-eabi/lib/thumb/v7-m/nofp\libc_nano.a(lib_a-malloc.o)
                                                  e:/work/meig/ec618/ec618_sdk_rel_sdk/plat/tools/gcc/bin/../lib/gcc/arm-none-eabi/10.2.1/../../../../arm-none-eabi/lib/thumb/v7-m/nofp\libc_nano.a(lib_a-fputs.o)
                                                  e:/work/meig/ec618/ec618_sdk_rel_sdk/plat/tools/gcc/bin/../lib/gcc/arm-none-eabi/10.2.1/../../../../arm-none-eabi/lib/thumb/v7-m/nofp\libc_nano.a(lib_a-fputc.o)
                                                  e:/work/meig/ec618/ec618_sdk_rel_sdk/plat/tools/gcc/bin/../lib/gcc/arm-none-eabi/10.2.1/../../../../arm-none-eabi/lib/thumb/v7-m/nofp\libc_nano.a(lib_a-fprintf.o)
                                                  e:/work/meig/ec618/ec618_sdk_rel_sdk/plat/tools/gcc/bin/../lib/gcc/arm-none-eabi/10.2.1/../../../../arm-none-eabi/lib/thumb/v7-m/nofp\libc_nano.a(lib_a-findfp.o)
                                                  e:/work/meig/ec618/ec618_sdk_rel_sdk/plat/tools/gcc/bin/../lib/gcc/arm-none-eabi/10.2.1/../../../../arm-none-eabi/lib/thumb/v7-m/nofp\libc_nano.a(lib_a-fflush.o)
                                                  e:/work/meig/ec618/ec618_sdk_rel_sdk/plat/tools/gcc/bin/../lib/gcc/arm-none-eabi/10.2.1/../../../../arm-none-eabi/lib/thumb/v7-m/nofp\libc_nano.a(lib_a-fclose.o)
                                                  e:/work/meig/ec618/ec618_sdk_rel_sdk/plat/tools/gcc/bin/../lib/gcc/arm-none-eabi/10.2.1/../../../../arm-none-eabi/lib/thumb/v7-m/nofp\libc_nano.a(lib_a-assert.o)
                                                  ../../../../../../../PLAT/prebuild/PLAT/lib/gcc/libdeltapatch.a(decompress.o)
                                                  ../../../../../../../PLAT/prebuild/PLAT/lib/gcc/libdeltapatch.a(bzlib.o)
                                                  ../../../../../../../PLAT/prebuild/PLAT/lib/gcc/libbootloader.a(bl_bsp.o)
_init                                             e:/work/meig/ec618/ec618_sdk_rel_sdk/plat/tools/gcc/bin/../lib/gcc/arm-none-eabi/10.2.1/thumb/v7-m/nofp/crti.o
                                                  e:/work/meig/ec618/ec618_sdk_rel_sdk/plat/tools/gcc/bin/../lib/gcc/arm-none-eabi/10.2.1/../../../../arm-none-eabi/lib/thumb/v7-m/nofp\libc_nano.a(lib_a-init.o)
_init_signal                                      e:/work/meig/ec618/ec618_sdk_rel_sdk/plat/tools/gcc/bin/../lib/gcc/arm-none-eabi/10.2.1/../../../../arm-none-eabi/lib/thumb/v7-m/nofp\libc_nano.a(lib_a-signal.o)
_init_signal_r                                    e:/work/meig/ec618/ec618_sdk_rel_sdk/plat/tools/gcc/bin/../lib/gcc/arm-none-eabi/10.2.1/../../../../arm-none-eabi/lib/thumb/v7-m/nofp\libc_nano.a(lib_a-signal.o)
_iprintf_r                                        e:/work/meig/ec618/ec618_sdk_rel_sdk/plat/tools/gcc/bin/../lib/gcc/arm-none-eabi/10.2.1/../../../../arm-none-eabi/lib/thumb/v7-m/nofp\libc_nano.a(lib_a-printf.o)
_isatty                                           ../../../../../../../PLAT/gccout/ec618_0h00/ap/bootloader/lib/libstartup.a(syscalls.o)
                                                  e:/work/meig/ec618/ec618_sdk_rel_sdk/plat/tools/gcc/bin/../lib/gcc/arm-none-eabi/10.2.1/../../../../arm-none-eabi/lib/thumb/v7-m/nofp\libc_nano.a(lib_a-isattyr.o)
_isatty_r                                         e:/work/meig/ec618/ec618_sdk_rel_sdk/plat/tools/gcc/bin/../lib/gcc/arm-none-eabi/10.2.1/../../../../arm-none-eabi/lib/thumb/v7-m/nofp\libc_nano.a(lib_a-isattyr.o)
                                                  e:/work/meig/ec618/ec618_sdk_rel_sdk/plat/tools/gcc/bin/../lib/gcc/arm-none-eabi/10.2.1/../../../../arm-none-eabi/lib/thumb/v7-m/nofp\libc_nano.a(lib_a-makebuf.o)
_kill                                             ../../../../../../../PLAT/gccout/ec618_0h00/ap/bootloader/lib/libstartup.a(syscalls.o)
                                                  e:/work/meig/ec618/ec618_sdk_rel_sdk/plat/tools/gcc/bin/../lib/gcc/arm-none-eabi/10.2.1/../../../../arm-none-eabi/lib/thumb/v7-m/nofp\libc_nano.a(lib_a-signalr.o)
_kill_r                                           e:/work/meig/ec618/ec618_sdk_rel_sdk/plat/tools/gcc/bin/../lib/gcc/arm-none-eabi/10.2.1/../../../../arm-none-eabi/lib/thumb/v7-m/nofp\libc_nano.a(lib_a-signalr.o)
                                                  e:/work/meig/ec618/ec618_sdk_rel_sdk/plat/tools/gcc/bin/../lib/gcc/arm-none-eabi/10.2.1/../../../../arm-none-eabi/lib/thumb/v7-m/nofp\libc_nano.a(lib_a-signal.o)
_lseek                                            ../../../../../../../PLAT/gccout/ec618_0h00/ap/bootloader/lib/libstartup.a(syscalls.o)
                                                  e:/work/meig/ec618/ec618_sdk_rel_sdk/plat/tools/gcc/bin/../lib/gcc/arm-none-eabi/10.2.1/../../../../arm-none-eabi/lib/thumb/v7-m/nofp\libc_nano.a(lib_a-lseekr.o)
_lseek_r                                          e:/work/meig/ec618/ec618_sdk_rel_sdk/plat/tools/gcc/bin/../lib/gcc/arm-none-eabi/10.2.1/../../../../arm-none-eabi/lib/thumb/v7-m/nofp\libc_nano.a(lib_a-lseekr.o)
                                                  e:/work/meig/ec618/ec618_sdk_rel_sdk/plat/tools/gcc/bin/../lib/gcc/arm-none-eabi/10.2.1/../../../../arm-none-eabi/lib/thumb/v7-m/nofp\libc_nano.a(lib_a-stdio.o)
_mainCRTStartup                                   e:/work/meig/ec618/ec618_sdk_rel_sdk/plat/tools/gcc/bin/../lib/gcc/arm-none-eabi/10.2.1/../../../../arm-none-eabi/lib/thumb/v7-m/nofp/crt0.o
_malloc_r                                         e:/work/meig/ec618/ec618_sdk_rel_sdk/plat/tools/gcc/bin/../lib/gcc/arm-none-eabi/10.2.1/../../../../arm-none-eabi/lib/thumb/v7-m/nofp\libc_nano.a(lib_a-nano-mallocr.o)
                                                  e:/work/meig/ec618/ec618_sdk_rel_sdk/plat/tools/gcc/bin/../lib/gcc/arm-none-eabi/10.2.1/../../../../arm-none-eabi/lib/thumb/v7-m/nofp\libc_nano.a(lib_a-ungetc.o)
                                                  e:/work/meig/ec618/ec618_sdk_rel_sdk/plat/tools/gcc/bin/../lib/gcc/arm-none-eabi/10.2.1/../../../../arm-none-eabi/lib/thumb/v7-m/nofp\libc_nano.a(lib_a-signal.o)
                                                  e:/work/meig/ec618/ec618_sdk_rel_sdk/plat/tools/gcc/bin/../lib/gcc/arm-none-eabi/10.2.1/../../../../arm-none-eabi/lib/thumb/v7-m/nofp\libc_nano.a(lib_a-nano-svfprintf.o)
                                                  e:/work/meig/ec618/ec618_sdk_rel_sdk/plat/tools/gcc/bin/../lib/gcc/arm-none-eabi/10.2.1/../../../../arm-none-eabi/lib/thumb/v7-m/nofp\libc_nano.a(lib_a-nano-reallocr.o)
                                                  e:/work/meig/ec618/ec618_sdk_rel_sdk/plat/tools/gcc/bin/../lib/gcc/arm-none-eabi/10.2.1/../../../../arm-none-eabi/lib/thumb/v7-m/nofp\libc_nano.a(lib_a-makebuf.o)
                                                  e:/work/meig/ec618/ec618_sdk_rel_sdk/plat/tools/gcc/bin/../lib/gcc/arm-none-eabi/10.2.1/../../../../arm-none-eabi/lib/thumb/v7-m/nofp\libc_nano.a(lib_a-fvwrite.o)
                                                  e:/work/meig/ec618/ec618_sdk_rel_sdk/plat/tools/gcc/bin/../lib/gcc/arm-none-eabi/10.2.1/../../../../arm-none-eabi/lib/thumb/v7-m/nofp\libc_nano.a(lib_a-tzset_r.o)
                                                  e:/work/meig/ec618/ec618_sdk_rel_sdk/plat/tools/gcc/bin/../lib/gcc/arm-none-eabi/10.2.1/../../../../arm-none-eabi/lib/thumb/v7-m/nofp\libc_nano.a(lib_a-malloc.o)
                                                  e:/work/meig/ec618/ec618_sdk_rel_sdk/plat/tools/gcc/bin/../lib/gcc/arm-none-eabi/10.2.1/../../../../arm-none-eabi/lib/thumb/v7-m/nofp\libc_nano.a(lib_a-findfp.o)
_malloc_usable_size_r                             e:/work/meig/ec618/ec618_sdk_rel_sdk/plat/tools/gcc/bin/../lib/gcc/arm-none-eabi/10.2.1/../../../../arm-none-eabi/lib/thumb/v7-m/nofp\libc_nano.a(lib_a-nano-msizer.o)
                                                  e:/work/meig/ec618/ec618_sdk_rel_sdk/plat/tools/gcc/bin/../lib/gcc/arm-none-eabi/10.2.1/../../../../arm-none-eabi/lib/thumb/v7-m/nofp\libc_nano.a(lib_a-nano-reallocr.o)
_open                                             ../../../../../../../PLAT/gccout/ec618_0h00/ap/bootloader/lib/libstartup.a(syscalls.o)
_printf_common                                    e:/work/meig/ec618/ec618_sdk_rel_sdk/plat/tools/gcc/bin/../lib/gcc/arm-none-eabi/10.2.1/../../../../arm-none-eabi/lib/thumb/v7-m/nofp\libc_nano.a(lib_a-nano-vfprintf_i.o)
_printf_float                                     e:/work/meig/ec618/ec618_sdk_rel_sdk/plat/tools/gcc/bin/../lib/gcc/arm-none-eabi/10.2.1/../../../../arm-none-eabi/lib/thumb/v7-m/nofp\libc_nano.a(lib_a-nano-svfprintf.o)
                                                  e:/work/meig/ec618/ec618_sdk_rel_sdk/plat/tools/gcc/bin/../lib/gcc/arm-none-eabi/10.2.1/../../../../arm-none-eabi/lib/thumb/v7-m/nofp\libc_nano.a(lib_a-nano-vfprintf.o)
_printf_i                                         e:/work/meig/ec618/ec618_sdk_rel_sdk/plat/tools/gcc/bin/../lib/gcc/arm-none-eabi/10.2.1/../../../../arm-none-eabi/lib/thumb/v7-m/nofp\libc_nano.a(lib_a-nano-vfprintf_i.o)
                                                  e:/work/meig/ec618/ec618_sdk_rel_sdk/plat/tools/gcc/bin/../lib/gcc/arm-none-eabi/10.2.1/../../../../arm-none-eabi/lib/thumb/v7-m/nofp\libc_nano.a(lib_a-nano-svfprintf.o)
                                                  e:/work/meig/ec618/ec618_sdk_rel_sdk/plat/tools/gcc/bin/../lib/gcc/arm-none-eabi/10.2.1/../../../../arm-none-eabi/lib/thumb/v7-m/nofp\libc_nano.a(lib_a-nano-vfprintf.o)
_printf_r                                         e:/work/meig/ec618/ec618_sdk_rel_sdk/plat/tools/gcc/bin/../lib/gcc/arm-none-eabi/10.2.1/../../../../arm-none-eabi/lib/thumb/v7-m/nofp\libc_nano.a(lib_a-printf.o)
_putc_r                                           e:/work/meig/ec618/ec618_sdk_rel_sdk/plat/tools/gcc/bin/../lib/gcc/arm-none-eabi/10.2.1/../../../../arm-none-eabi/lib/thumb/v7-m/nofp\libc_nano.a(lib_a-putc.o)
                                                  e:/work/meig/ec618/ec618_sdk_rel_sdk/plat/tools/gcc/bin/../lib/gcc/arm-none-eabi/10.2.1/../../../../arm-none-eabi/lib/thumb/v7-m/nofp\libc_nano.a(lib_a-fputc.o)
_puts_r                                           e:/work/meig/ec618/ec618_sdk_rel_sdk/plat/tools/gcc/bin/../lib/gcc/arm-none-eabi/10.2.1/../../../../arm-none-eabi/lib/thumb/v7-m/nofp\libc_nano.a(lib_a-puts.o)
_raise_r                                          e:/work/meig/ec618/ec618_sdk_rel_sdk/plat/tools/gcc/bin/../lib/gcc/arm-none-eabi/10.2.1/../../../../arm-none-eabi/lib/thumb/v7-m/nofp\libc_nano.a(lib_a-signal.o)
_read                                             ../../../../../../../PLAT/gccout/ec618_0h00/ap/bootloader/lib/libstartup.a(syscalls.o)
                                                  e:/work/meig/ec618/ec618_sdk_rel_sdk/plat/tools/gcc/bin/../lib/gcc/arm-none-eabi/10.2.1/../../../../arm-none-eabi/lib/thumb/v7-m/nofp\libc_nano.a(lib_a-readr.o)
_read_r                                           e:/work/meig/ec618/ec618_sdk_rel_sdk/plat/tools/gcc/bin/../lib/gcc/arm-none-eabi/10.2.1/../../../../arm-none-eabi/lib/thumb/v7-m/nofp\libc_nano.a(lib_a-readr.o)
                                                  e:/work/meig/ec618/ec618_sdk_rel_sdk/plat/tools/gcc/bin/../lib/gcc/arm-none-eabi/10.2.1/../../../../arm-none-eabi/lib/thumb/v7-m/nofp\libc_nano.a(lib_a-stdio.o)
_realloc_r                                        e:/work/meig/ec618/ec618_sdk_rel_sdk/plat/tools/gcc/bin/../lib/gcc/arm-none-eabi/10.2.1/../../../../arm-none-eabi/lib/thumb/v7-m/nofp\libc_nano.a(lib_a-nano-reallocr.o)
                                                  e:/work/meig/ec618/ec618_sdk_rel_sdk/plat/tools/gcc/bin/../lib/gcc/arm-none-eabi/10.2.1/../../../../arm-none-eabi/lib/thumb/v7-m/nofp\libc_nano.a(lib_a-ungetc.o)
                                                  e:/work/meig/ec618/ec618_sdk_rel_sdk/plat/tools/gcc/bin/../lib/gcc/arm-none-eabi/10.2.1/../../../../arm-none-eabi/lib/thumb/v7-m/nofp\libc_nano.a(lib_a-nano-svfprintf.o)
                                                  e:/work/meig/ec618/ec618_sdk_rel_sdk/plat/tools/gcc/bin/../lib/gcc/arm-none-eabi/10.2.1/../../../../arm-none-eabi/lib/thumb/v7-m/nofp\libc_nano.a(lib_a-fvwrite.o)
_reclaim_reent                                    e:/work/meig/ec618/ec618_sdk_rel_sdk/plat/tools/gcc/bin/../lib/gcc/arm-none-eabi/10.2.1/../../../../arm-none-eabi/lib/thumb/v7-m/nofp\libc_nano.a(lib_a-reent.o)
_sbrk                                             ../../../../../../../PLAT/gccout/ec618_0h00/ap/bootloader/lib/libstartup.a(syscalls.o)
                                                  e:/work/meig/ec618/ec618_sdk_rel_sdk/plat/tools/gcc/bin/../lib/gcc/arm-none-eabi/10.2.1/../../../../arm-none-eabi/lib/thumb/v7-m/nofp\libc_nano.a(lib_a-sbrkr.o)
_sbrk_r                                           e:/work/meig/ec618/ec618_sdk_rel_sdk/plat/tools/gcc/bin/../lib/gcc/arm-none-eabi/10.2.1/../../../../arm-none-eabi/lib/thumb/v7-m/nofp\libc_nano.a(lib_a-sbrkr.o)
                                                  e:/work/meig/ec618/ec618_sdk_rel_sdk/plat/tools/gcc/bin/../lib/gcc/arm-none-eabi/10.2.1/../../../../arm-none-eabi/lib/thumb/v7-m/nofp\libc_nano.a(lib_a-nano-mallocr.o)
_scanf_chars                                      e:/work/meig/ec618/ec618_sdk_rel_sdk/plat/tools/gcc/bin/../lib/gcc/arm-none-eabi/10.2.1/../../../../arm-none-eabi/lib/thumb/v7-m/nofp\libc_nano.a(lib_a-nano-vfscanf_i.o)
                                                  e:/work/meig/ec618/ec618_sdk_rel_sdk/plat/tools/gcc/bin/../lib/gcc/arm-none-eabi/10.2.1/../../../../arm-none-eabi/lib/thumb/v7-m/nofp\libc_nano.a(lib_a-nano-svfscanf.o)
_scanf_float                                      e:/work/meig/ec618/ec618_sdk_rel_sdk/plat/tools/gcc/bin/../lib/gcc/arm-none-eabi/10.2.1/../../../../arm-none-eabi/lib/thumb/v7-m/nofp\libc_nano.a(lib_a-nano-svfscanf.o)
_scanf_i                                          e:/work/meig/ec618/ec618_sdk_rel_sdk/plat/tools/gcc/bin/../lib/gcc/arm-none-eabi/10.2.1/../../../../arm-none-eabi/lib/thumb/v7-m/nofp\libc_nano.a(lib_a-nano-vfscanf_i.o)
                                                  e:/work/meig/ec618/ec618_sdk_rel_sdk/plat/tools/gcc/bin/../lib/gcc/arm-none-eabi/10.2.1/../../../../arm-none-eabi/lib/thumb/v7-m/nofp\libc_nano.a(lib_a-nano-svfscanf.o)
_signal_r                                         e:/work/meig/ec618/ec618_sdk_rel_sdk/plat/tools/gcc/bin/../lib/gcc/arm-none-eabi/10.2.1/../../../../arm-none-eabi/lib/thumb/v7-m/nofp\libc_nano.a(lib_a-signal.o)
_siprintf_r                                       e:/work/meig/ec618/ec618_sdk_rel_sdk/plat/tools/gcc/bin/../lib/gcc/arm-none-eabi/10.2.1/../../../../arm-none-eabi/lib/thumb/v7-m/nofp\libc_nano.a(lib_a-sprintf.o)
_siscanf_r                                        e:/work/meig/ec618/ec618_sdk_rel_sdk/plat/tools/gcc/bin/../lib/gcc/arm-none-eabi/10.2.1/../../../../arm-none-eabi/lib/thumb/v7-m/nofp\libc_nano.a(lib_a-sscanf.o)
_sprintf_r                                        e:/work/meig/ec618/ec618_sdk_rel_sdk/plat/tools/gcc/bin/../lib/gcc/arm-none-eabi/10.2.1/../../../../arm-none-eabi/lib/thumb/v7-m/nofp\libc_nano.a(lib_a-sprintf.o)
_sscanf_r                                         e:/work/meig/ec618/ec618_sdk_rel_sdk/plat/tools/gcc/bin/../lib/gcc/arm-none-eabi/10.2.1/../../../../arm-none-eabi/lib/thumb/v7-m/nofp\libc_nano.a(lib_a-sscanf.o)
_stack_init                                       e:/work/meig/ec618/ec618_sdk_rel_sdk/plat/tools/gcc/bin/../lib/gcc/arm-none-eabi/10.2.1/../../../../arm-none-eabi/lib/thumb/v7-m/nofp/crt0.o
_start                                            e:/work/meig/ec618/ec618_sdk_rel_sdk/plat/tools/gcc/bin/../lib/gcc/arm-none-eabi/10.2.1/../../../../arm-none-eabi/lib/thumb/v7-m/nofp/crt0.o
_strtol_r                                         e:/work/meig/ec618/ec618_sdk_rel_sdk/plat/tools/gcc/bin/../lib/gcc/arm-none-eabi/10.2.1/../../../../arm-none-eabi/lib/thumb/v7-m/nofp\libc_nano.a(lib_a-strtol.o)
                                                  e:/work/meig/ec618/ec618_sdk_rel_sdk/plat/tools/gcc/bin/../lib/gcc/arm-none-eabi/10.2.1/../../../../arm-none-eabi/lib/thumb/v7-m/nofp\libc_nano.a(lib_a-nano-vfscanf_i.o)
_strtoul_r                                        e:/work/meig/ec618/ec618_sdk_rel_sdk/plat/tools/gcc/bin/../lib/gcc/arm-none-eabi/10.2.1/../../../../arm-none-eabi/lib/thumb/v7-m/nofp\libc_nano.a(lib_a-strtoul.o)
                                                  e:/work/meig/ec618/ec618_sdk_rel_sdk/plat/tools/gcc/bin/../lib/gcc/arm-none-eabi/10.2.1/../../../../arm-none-eabi/lib/thumb/v7-m/nofp\libc_nano.a(lib_a-nano-vfscanf_i.o)
_sungetc_r                                        e:/work/meig/ec618/ec618_sdk_rel_sdk/plat/tools/gcc/bin/../lib/gcc/arm-none-eabi/10.2.1/../../../../arm-none-eabi/lib/thumb/v7-m/nofp\libc_nano.a(lib_a-nano-svfscanf.o)
_svfiprintf_r                                     e:/work/meig/ec618/ec618_sdk_rel_sdk/plat/tools/gcc/bin/../lib/gcc/arm-none-eabi/10.2.1/../../../../arm-none-eabi/lib/thumb/v7-m/nofp\libc_nano.a(lib_a-nano-svfprintf.o)
_svfprintf_r                                      e:/work/meig/ec618/ec618_sdk_rel_sdk/plat/tools/gcc/bin/../lib/gcc/arm-none-eabi/10.2.1/../../../../arm-none-eabi/lib/thumb/v7-m/nofp\libc_nano.a(lib_a-nano-svfprintf.o)
                                                  e:/work/meig/ec618/ec618_sdk_rel_sdk/plat/tools/gcc/bin/../lib/gcc/arm-none-eabi/10.2.1/../../../../arm-none-eabi/lib/thumb/v7-m/nofp\libc_nano.a(lib_a-vsnprintf.o)
                                                  e:/work/meig/ec618/ec618_sdk_rel_sdk/plat/tools/gcc/bin/../lib/gcc/arm-none-eabi/10.2.1/../../../../arm-none-eabi/lib/thumb/v7-m/nofp\libc_nano.a(lib_a-sprintf.o)
_timezone                                         e:/work/meig/ec618/ec618_sdk_rel_sdk/plat/tools/gcc/bin/../lib/gcc/arm-none-eabi/10.2.1/../../../../arm-none-eabi/lib/thumb/v7-m/nofp\libc_nano.a(lib_a-tzvars.o)
                                                  e:/work/meig/ec618/ec618_sdk_rel_sdk/plat/tools/gcc/bin/../lib/gcc/arm-none-eabi/10.2.1/../../../../arm-none-eabi/lib/thumb/v7-m/nofp\libc_nano.a(lib_a-tzset_r.o)
_tzname                                           e:/work/meig/ec618/ec618_sdk_rel_sdk/plat/tools/gcc/bin/../lib/gcc/arm-none-eabi/10.2.1/../../../../arm-none-eabi/lib/thumb/v7-m/nofp\libc_nano.a(lib_a-tzvars.o)
                                                  e:/work/meig/ec618/ec618_sdk_rel_sdk/plat/tools/gcc/bin/../lib/gcc/arm-none-eabi/10.2.1/../../../../arm-none-eabi/lib/thumb/v7-m/nofp\libc_nano.a(lib_a-tzset_r.o)
_tzset_r                                          e:/work/meig/ec618/ec618_sdk_rel_sdk/plat/tools/gcc/bin/../lib/gcc/arm-none-eabi/10.2.1/../../../../arm-none-eabi/lib/thumb/v7-m/nofp\libc_nano.a(lib_a-tzset_r.o)
_tzset_unlocked                                   e:/work/meig/ec618/ec618_sdk_rel_sdk/plat/tools/gcc/bin/../lib/gcc/arm-none-eabi/10.2.1/../../../../arm-none-eabi/lib/thumb/v7-m/nofp\libc_nano.a(lib_a-tzset.o)
                                                  e:/work/meig/ec618/ec618_sdk_rel_sdk/plat/tools/gcc/bin/../lib/gcc/arm-none-eabi/10.2.1/../../../../arm-none-eabi/lib/thumb/v7-m/nofp\libc_nano.a(lib_a-mktime.o)
_tzset_unlocked_r                                 e:/work/meig/ec618/ec618_sdk_rel_sdk/plat/tools/gcc/bin/../lib/gcc/arm-none-eabi/10.2.1/../../../../arm-none-eabi/lib/thumb/v7-m/nofp\libc_nano.a(lib_a-tzset_r.o)
                                                  e:/work/meig/ec618/ec618_sdk_rel_sdk/plat/tools/gcc/bin/../lib/gcc/arm-none-eabi/10.2.1/../../../../arm-none-eabi/lib/thumb/v7-m/nofp\libc_nano.a(lib_a-tzset.o)
_ungetc_r                                         e:/work/meig/ec618/ec618_sdk_rel_sdk/plat/tools/gcc/bin/../lib/gcc/arm-none-eabi/10.2.1/../../../../arm-none-eabi/lib/thumb/v7-m/nofp\libc_nano.a(lib_a-ungetc.o)
_vfiprintf_r                                      e:/work/meig/ec618/ec618_sdk_rel_sdk/plat/tools/gcc/bin/../lib/gcc/arm-none-eabi/10.2.1/../../../../arm-none-eabi/lib/thumb/v7-m/nofp\libc_nano.a(lib_a-nano-vfprintf.o)
_vfprintf_r                                       e:/work/meig/ec618/ec618_sdk_rel_sdk/plat/tools/gcc/bin/../lib/gcc/arm-none-eabi/10.2.1/../../../../arm-none-eabi/lib/thumb/v7-m/nofp\libc_nano.a(lib_a-nano-vfprintf.o)
                                                  e:/work/meig/ec618/ec618_sdk_rel_sdk/plat/tools/gcc/bin/../lib/gcc/arm-none-eabi/10.2.1/../../../../arm-none-eabi/lib/thumb/v7-m/nofp\libc_nano.a(lib_a-printf.o)
                                                  e:/work/meig/ec618/ec618_sdk_rel_sdk/plat/tools/gcc/bin/../lib/gcc/arm-none-eabi/10.2.1/../../../../arm-none-eabi/lib/thumb/v7-m/nofp\libc_nano.a(lib_a-fprintf.o)
_vsniprintf_r                                     e:/work/meig/ec618/ec618_sdk_rel_sdk/plat/tools/gcc/bin/../lib/gcc/arm-none-eabi/10.2.1/../../../../arm-none-eabi/lib/thumb/v7-m/nofp\libc_nano.a(lib_a-vsnprintf.o)
_vsnprintf_r                                      e:/work/meig/ec618/ec618_sdk_rel_sdk/plat/tools/gcc/bin/../lib/gcc/arm-none-eabi/10.2.1/../../../../arm-none-eabi/lib/thumb/v7-m/nofp\libc_nano.a(lib_a-vsnprintf.o)
_write                                            ../../../../../../../PLAT/gccout/ec618_0h00/ap/bootloader/lib/libstartup.a(syscalls.o)
                                                  e:/work/meig/ec618/ec618_sdk_rel_sdk/plat/tools/gcc/bin/../lib/gcc/arm-none-eabi/10.2.1/../../../../arm-none-eabi/lib/thumb/v7-m/nofp\libc_nano.a(lib_a-writer.o)
_write_r                                          e:/work/meig/ec618/ec618_sdk_rel_sdk/plat/tools/gcc/bin/../lib/gcc/arm-none-eabi/10.2.1/../../../../arm-none-eabi/lib/thumb/v7-m/nofp\libc_nano.a(lib_a-writer.o)
                                                  e:/work/meig/ec618/ec618_sdk_rel_sdk/plat/tools/gcc/bin/../lib/gcc/arm-none-eabi/10.2.1/../../../../arm-none-eabi/lib/thumb/v7-m/nofp\libc_nano.a(lib_a-stdio.o)
abort                                             e:/work/meig/ec618/ec618_sdk_rel_sdk/plat/tools/gcc/bin/../lib/gcc/arm-none-eabi/10.2.1/../../../../arm-none-eabi/lib/thumb/v7-m/nofp\libc_nano.a(lib_a-abort.o)
                                                  e:/work/meig/ec618/ec618_sdk_rel_sdk/plat/tools/gcc/bin/../lib/gcc/arm-none-eabi/10.2.1/../../../../arm-none-eabi/lib/thumb/v7-m/nofp\libc_nano.a(lib_a-assert.o)
addr_new                                          ../../../../../../../PLAT/prebuild/PLAT/lib/gcc/libusbbl_priv.a(usbpcd_proc_api.o)
addr_old                                          ../../../../../../../PLAT/prebuild/PLAT/lib/gcc/libusbbl_priv.a(usbpcd_proc_api.o)
aesUpdate                                         ../../../../../../../PLAT/prebuild/PLAT/lib/gcc/libdriver_private_bl.a(tls.o)
apXic0IsrTbl                                      ../../../../../../../PLAT/prebuild/PLAT/lib/gcc/libdriver_private_bl.a(ic.o)
apXic1IsrTbl                                      ../../../../../../../PLAT/prebuild/PLAT/lib/gcc/libdriver_private_bl.a(ic.o)
apXic2IsrTbl                                      ../../../../../../../PLAT/prebuild/PLAT/lib/gcc/libdriver_private_bl.a(ic.o)
apXic3IsrTbl                                      ../../../../../../../PLAT/prebuild/PLAT/lib/gcc/libdriver_private_bl.a(ic.o)
ap_nvram_read                                     ../../../../../../../PLAT/prebuild/PLAT/lib/gcc/libdriver_private_bl.a(hal_trim.o)
apmuAONIOLatchRelease                             ../../../../../../../PLAT/prebuild/PLAT/lib/gcc/libosa.a(ostask.o)
apmuBootDbgGPIOSet                                ../../../../../../../PLAT/gccout/ec618_0h00/ap/bootloader/lib/libdriver.a(hal_misc.o)
apmuCPStartCheck                                  ../../../../../../../PLAT/prebuild/PLAT/lib/gcc/libosa.a(ostask.o)
apmuGetAPBootFlag                                 ../../../../../../../PLAT/prebuild/PLAT/lib/gcc/libosa.a(ostask.o)
apmuGetAPLLBootFlag                               ../../../../../../../PLAT/prebuild/PLAT/lib/gcc/libosa.a(ostask.o)
apmuGetBT10MsCnt                                  ../../../../../../../PLAT/prebuild/PLAT/lib/gcc/libosa.a(osasys.o)
apmuGetHibSecondCount                             ../../../../../../../PLAT/prebuild/PLAT/lib/gcc/libosa.a(osasys.o)
apmuGetLongSlpCfg                                 ../../../../../../../PLAT/gccout/ec618_0h00/ap/bootloader/lib/libdriver.a(hal_misc.o)
apmuHibTimerChangedSet                            ../../../../../../../PLAT/prebuild/PLAT/lib/gcc/libosa.a(osasys.o)
apmuPrintBootTimeStamp                            ../../../../../../../PLAT/prebuild/PLAT/lib/gcc/libosa.a(ostask.o)
apmuRawFlashInitCheck                             ../../../../../../../PLAT/prebuild/PLAT/lib/gcc/libosa.a(ostask.o)
apmuRestoreHibTimer                               ../../../../../../../PLAT/prebuild/PLAT/lib/gcc/libosa.a(ostask.o)
apmuSetBootTimeStamp                              ../../../../../../../PLAT/prebuild/PLAT/lib/gcc/libosa.a(ostask.o)
appEntry                                          ../../../../../../../PLAT/prebuild/PLAT/lib/gcc/libosa.a(ostask.o)
appGetImeiNumSync                                 ../../../../../../../PLAT/prebuild/PLAT/lib/gcc/libosa.a(osasys.o)
atCmdGetServEnt                                   ../../../../../../../PLAT/prebuild/PLAT/lib/gcc/libccio.a(ccio_tfc.o)
atCmdInput                                        ../../../../../../../PLAT/prebuild/PLAT/lib/gcc/libccio.a(serial_entity.o)
atexit                                            e:/work/meig/ec618/ec618_sdk_rel_sdk/plat/tools/gcc/bin/../lib/gcc/arm-none-eabi/10.2.1/../../../../arm-none-eabi/lib/thumb/v7-m/nofp/crt0.o
bkup_refesh_callback_demo                         ../../../../../../../PLAT/prebuild/PLAT/lib/gcc/libdeltapatch.a(patch_main.o)
bl_clk_check                                      ../../../../../../../PLAT/prebuild/PLAT/lib/gcc/libbootloader.a(bl_bsp.o)
ccioAddDevice                                     ../../../../../../../PLAT/prebuild/PLAT/lib/gcc/libccio.a(ccio_device.o)
ccioAddEntity                                     ../../../../../../../PLAT/prebuild/PLAT/lib/gcc/libccio.a(ccio_entity.o)
                                                  ../../../../../../../PLAT/prebuild/PLAT/lib/gcc/libccio.a(serial_entity.o)
                                                  ../../../../../../../PLAT/prebuild/PLAT/lib/gcc/libccio.a(ecm_entity.o)
                                                  ../../../../../../../PLAT/prebuild/PLAT/lib/gcc/libccio.a(eutra_entity.o)
                                                  ../../../../../../../PLAT/prebuild/PLAT/lib/gcc/libccio.a(rndis_entity.o)
ccioAssignDeviceByType                            ../../../../../../../PLAT/prebuild/PLAT/lib/gcc/libccio.a(ccio_device.o)
ccioAssignDeviceByTypes                           ../../../../../../../PLAT/prebuild/PLAT/lib/gcc/libccio.a(ccio_device.o)
                                                  ../../../../../../../PLAT/prebuild/PLAT/lib/gcc/libccio.a(ccio_entity.o)
ccioBuildMsgDevInXfer                             ../../../../../../../PLAT/prebuild/PLAT/lib/gcc/libccio.a(serial_entity.o)
                                                  ../../../../../../../PLAT/prebuild/PLAT/lib/gcc/libccio.a(ecm_entity.o)
                                                  ../../../../../../../PLAT/prebuild/PLAT/lib/gcc/libccio.a(rndis_entity.o)
ccioBuildMsgTfcPolicyEnable                       ../../../../../../../PLAT/prebuild/PLAT/lib/gcc/libccio.a(ccio_tfc.o)
ccioCheckNoDevEntity                              ../../../../../../../PLAT/prebuild/PLAT/lib/gcc/libccio.a(ccio_entity.o)
ccioCreateTfcPolicy                               ../../../../../../../PLAT/prebuild/PLAT/lib/gcc/libccio.a(ccio_tfc.o)
ccioDelDevice                                     ../../../../../../../PLAT/prebuild/PLAT/lib/gcc/libccio.a(ccio_device.o)
ccioDelEntity                                     ../../../../../../../PLAT/prebuild/PLAT/lib/gcc/libccio.a(ccio_entity.o)
                                                  ../../../../../../../PLAT/prebuild/PLAT/lib/gcc/libccio.a(serial_entity.o)
                                                  ../../../../../../../PLAT/prebuild/PLAT/lib/gcc/libccio.a(ecm_entity.o)
                                                  ../../../../../../../PLAT/prebuild/PLAT/lib/gcc/libccio.a(eutra_entity.o)
                                                  ../../../../../../../PLAT/prebuild/PLAT/lib/gcc/libccio.a(rndis_entity.o)
ccioDeleteTfcPolicy                               ../../../../../../../PLAT/prebuild/PLAT/lib/gcc/libccio.a(ccio_tfc.o)
ccioEnableTfcPolicy                               ../../../../../../../PLAT/prebuild/PLAT/lib/gcc/libccio.a(ccio_tfc.o)
ccioFindDevice                                    ../../../../../../../PLAT/prebuild/PLAT/lib/gcc/libccio.a(ccio_device.o)
ccioFindDeviceByTypes                             ../../../../../../../PLAT/prebuild/PLAT/lib/gcc/libccio.a(ccio_device.o)
ccioFindEntity                                    ../../../../../../../PLAT/prebuild/PLAT/lib/gcc/libccio.a(ccio_entity.o)
                                                  ../../../../../../../PLAT/prebuild/PLAT/lib/gcc/libccio.a(ccio_tfc.o)
ccioFreeDeviceUlPdu                               ../../../../../../../PLAT/prebuild/PLAT/lib/gcc/libccio.a(ccio_device.o)
ccioGenDeviceGuid                                 ../../../../../../../PLAT/prebuild/PLAT/lib/gcc/libccio.a(ccio_device.o)
ccioGetDevRdcm                                    ../../../../../../../PLAT/prebuild/PLAT/lib/gcc/libccio.a(ccio_device.o)
ccioGetEntityRbuf                                 ../../../../../../../PLAT/prebuild/PLAT/lib/gcc/libccio.a(ccio_entity.o)
                                                  ../../../../../../../PLAT/prebuild/PLAT/lib/gcc/libccio.a(ccio_rbuf.o)
ccioGetEtherServEnt                               ../../../../../../../PLAT/prebuild/PLAT/lib/gcc/libccio.a(ccio_tfc.o)
ccioGetPppServEnt                                 ../../../../../../../PLAT/prebuild/PLAT/lib/gcc/libccio.a(ccio_tfc.o)
ccioGetProviderRbuf                               ../../../../../../../PLAT/prebuild/PLAT/lib/gcc/libccio.a(serial_entity.o)
                                                  ../../../../../../../PLAT/prebuild/PLAT/lib/gcc/libccio.a(ecm_entity.o)
                                                  ../../../../../../../PLAT/prebuild/PLAT/lib/gcc/libccio.a(rndis_entity.o)
ccioGetRbufCctSize                                ../../../../../../../PLAT/prebuild/PLAT/lib/gcc/libccio.a(serial_entity.o)
                                                  ../../../../../../../PLAT/prebuild/PLAT/lib/gcc/libccio.a(ecm_entity.o)
                                                  ../../../../../../../PLAT/prebuild/PLAT/lib/gcc/libccio.a(rndis_entity.o)
ccioHasFreeDevice                                 ../../../../../../../PLAT/prebuild/PLAT/lib/gcc/libccio.a(ccio_device.o)
                                                  ../../../../../../../PLAT/prebuild/PLAT/lib/gcc/libccio.a(ccio_entity.o)
ccioHoldOnPppSessn                                ../../../../../../../PLAT/prebuild/PLAT/lib/gcc/libccio.a(serial_entity.o)
ccioIsTfcPolicyEnable                             ../../../../../../../PLAT/prebuild/PLAT/lib/gcc/libccio.a(ccio_tfc.o)
ccioIsUldpPppSchemAvlb                            ../../../../../../../PLAT/prebuild/PLAT/lib/gcc/libccio.a(serial_entity.o)
ccioPullDownChannels                              ../../../../../../../PLAT/prebuild/PLAT/lib/gcc/libccio.a(ccio_entity.o)
ccioRbufDeinit                                    ../../../../../../../PLAT/prebuild/PLAT/lib/gcc/libccio.a(ccio_rbuf.o)
                                                  ../../../../../../../PLAT/prebuild/PLAT/lib/gcc/libccio.a(serial_entity.o)
                                                  ../../../../../../../PLAT/prebuild/PLAT/lib/gcc/libccio.a(ecm_entity.o)
                                                  ../../../../../../../PLAT/prebuild/PLAT/lib/gcc/libccio.a(rndis_entity.o)
ccioRbufDeliverBatchXfer                          ../../../../../../../PLAT/prebuild/PLAT/lib/gcc/libccio.a(ccio_rbuf.o)
ccioRbufDequeue                                   ../../../../../../../PLAT/prebuild/PLAT/lib/gcc/libccio.a(ccio_rbuf.o)
                                                  ../../../../../../../PLAT/prebuild/PLAT/lib/gcc/libccio.a(serial_entity.o)
ccioRbufFreeUlPdu                                 ../../../../../../../PLAT/prebuild/PLAT/lib/gcc/libccio.a(ccio_rbuf.o)
                                                  ../../../../../../../PLAT/prebuild/PLAT/lib/gcc/libccio.a(serial_entity.o)
                                                  ../../../../../../../PLAT/prebuild/PLAT/lib/gcc/libccio.a(ecm_entity.o)
                                                  ../../../../../../../PLAT/prebuild/PLAT/lib/gcc/libccio.a(rndis_entity.o)
ccioRbufGet                                       ../../../../../../../PLAT/prebuild/PLAT/lib/gcc/libccio.a(ccio_rbuf.o)
                                                  ../../../../../../../PLAT/prebuild/PLAT/lib/gcc/libccio.a(ccio_entity.o)
ccioRbufGetPtUlPcb                                ../../../../../../../PLAT/prebuild/PLAT/lib/gcc/libccio.a(ccio_rbuf.o)
                                                  ../../../../../../../PLAT/prebuild/PLAT/lib/gcc/libccio.a(serial_entity.o)
ccioRbufGetTotalSize                              ../../../../../../../PLAT/prebuild/PLAT/lib/gcc/libccio.a(ccio_rbuf.o)
ccioRbufInit                                      ../../../../../../../PLAT/prebuild/PLAT/lib/gcc/libccio.a(ccio_rbuf.o)
                                                  ../../../../../../../PLAT/prebuild/PLAT/lib/gcc/libccio.a(serial_entity.o)
                                                  ../../../../../../../PLAT/prebuild/PLAT/lib/gcc/libccio.a(ecm_entity.o)
                                                  ../../../../../../../PLAT/prebuild/PLAT/lib/gcc/libccio.a(rndis_entity.o)
ccioRbufQueue                                     ../../../../../../../PLAT/prebuild/PLAT/lib/gcc/libccio.a(ccio_rbuf.o)
ccioRbufSelFlushXfer                              ../../../../../../../PLAT/prebuild/PLAT/lib/gcc/libccio.a(ccio_rbuf.o)
ccioRbufSetWorkState                              ../../../../../../../PLAT/prebuild/PLAT/lib/gcc/libccio.a(ccio_rbuf.o)
                                                  ../../../../../../../PLAT/prebuild/PLAT/lib/gcc/libccio.a(serial_entity.o)
                                                  ../../../../../../../PLAT/prebuild/PLAT/lib/gcc/libccio.a(ecm_entity.o)
                                                  ../../../../../../../PLAT/prebuild/PLAT/lib/gcc/libccio.a(rndis_entity.o)
ccioRbufSplitPtUlPayload                          ../../../../../../../PLAT/prebuild/PLAT/lib/gcc/libccio.a(ccio_rbuf.o)
                                                  ../../../../../../../PLAT/prebuild/PLAT/lib/gcc/libccio.a(serial_entity.o)
ccioRbufStartRecvXfer                             ../../../../../../../PLAT/prebuild/PLAT/lib/gcc/libccio.a(ccio_rbuf.o)
ccioRbufUnget                                     ../../../../../../../PLAT/prebuild/PLAT/lib/gcc/libccio.a(ccio_rbuf.o)
                                                  ../../../../../../../PLAT/prebuild/PLAT/lib/gcc/libccio.a(ccio_entity.o)
ccioRbufUngetPtUlPcb                              ../../../../../../../PLAT/prebuild/PLAT/lib/gcc/libccio.a(ccio_rbuf.o)
ccioReleaseDevice                                 ../../../../../../../PLAT/prebuild/PLAT/lib/gcc/libccio.a(ccio_device.o)
                                                  ../../../../../../../PLAT/prebuild/PLAT/lib/gcc/libccio.a(ccio_entity.o)
ccioResetBaseEntity                               ../../../../../../../PLAT/prebuild/PLAT/lib/gcc/libccio.a(ccio_entity.o)
                                                  ../../../../../../../PLAT/prebuild/PLAT/lib/gcc/libccio.a(serial_entity.o)
                                                  ../../../../../../../PLAT/prebuild/PLAT/lib/gcc/libccio.a(ecm_entity.o)
                                                  ../../../../../../../PLAT/prebuild/PLAT/lib/gcc/libccio.a(eutra_entity.o)
                                                  ../../../../../../../PLAT/prebuild/PLAT/lib/gcc/libccio.a(rndis_entity.o)
ccioSendMsgToRxTask                               ../../../../../../../PLAT/prebuild/PLAT/lib/gcc/libccio.a(serial_entity.o)
                                                  ../../../../../../../PLAT/prebuild/PLAT/lib/gcc/libccio.a(ecm_entity.o)
                                                  ../../../../../../../PLAT/prebuild/PLAT/lib/gcc/libccio.a(rndis_entity.o)
ccioSendMsgToTxTask                               ../../../../../../../PLAT/prebuild/PLAT/lib/gcc/libccio.a(ccio_tfc.o)
ccioSetBaseEntity                                 ../../../../../../../PLAT/prebuild/PLAT/lib/gcc/libccio.a(ccio_entity.o)
                                                  ../../../../../../../PLAT/prebuild/PLAT/lib/gcc/libccio.a(serial_entity.o)
                                                  ../../../../../../../PLAT/prebuild/PLAT/lib/gcc/libccio.a(ecm_entity.o)
                                                  ../../../../../../../PLAT/prebuild/PLAT/lib/gcc/libccio.a(eutra_entity.o)
                                                  ../../../../../../../PLAT/prebuild/PLAT/lib/gcc/libccio.a(rndis_entity.o)
ccioSetDeviceEntity                               ../../../../../../../PLAT/prebuild/PLAT/lib/gcc/libccio.a(ccio_device.o)
                                                  ../../../../../../../PLAT/prebuild/PLAT/lib/gcc/libccio.a(serial_entity.o)
                                                  ../../../../../../../PLAT/prebuild/PLAT/lib/gcc/libccio.a(ecm_entity.o)
                                                  ../../../../../../../PLAT/prebuild/PLAT/lib/gcc/libccio.a(eutra_entity.o)
                                                  ../../../../../../../PLAT/prebuild/PLAT/lib/gcc/libccio.a(rndis_entity.o)
ccioSetDeviceState                                ../../../../../../../PLAT/prebuild/PLAT/lib/gcc/libccio.a(ccio_device.o)
                                                  ../../../../../../../PLAT/prebuild/PLAT/lib/gcc/libccio.a(serial_entity.o)
                                                  ../../../../../../../PLAT/prebuild/PLAT/lib/gcc/libccio.a(ecm_entity.o)
                                                  ../../../../../../../PLAT/prebuild/PLAT/lib/gcc/libccio.a(eutra_entity.o)
                                                  ../../../../../../../PLAT/prebuild/PLAT/lib/gcc/libccio.a(rndis_entity.o)
ccioSetTfcPolicySuppFlag                          ../../../../../../../PLAT/prebuild/PLAT/lib/gcc/libccio.a(ccio_tfc.o)
ccioSetUpChannels                                 ../../../../../../../PLAT/prebuild/PLAT/lib/gcc/libccio.a(ccio_entity.o)
ccioTraverseDeviceByHwType                        ../../../../../../../PLAT/prebuild/PLAT/lib/gcc/libccio.a(ccio_device.o)
ccioTryAssignDevice                               ../../../../../../../PLAT/prebuild/PLAT/lib/gcc/libccio.a(ccio_entity.o)
ccioUngetProviderRbuf                             ../../../../../../../PLAT/prebuild/PLAT/lib/gcc/libccio.a(serial_entity.o)
                                                  ../../../../../../../PLAT/prebuild/PLAT/lib/gcc/libccio.a(ecm_entity.o)
                                                  ../../../../../../../PLAT/prebuild/PLAT/lib/gcc/libccio.a(rndis_entity.o)
ceioDeinitEntity                                  ../../../../../../../PLAT/prebuild/PLAT/lib/gcc/libccio.a(ecm_entity.o)
ceioInitEntity                                    ../../../../../../../PLAT/prebuild/PLAT/lib/gcc/libccio.a(ecm_entity.o)
ceioPullDownChannel                               ../../../../../../../PLAT/prebuild/PLAT/lib/gcc/libccio.a(ecm_entity.o)
ceioSetUpChannel                                  ../../../../../../../PLAT/prebuild/PLAT/lib/gcc/libccio.a(ecm_entity.o)
checkRngStats                                     ../../../../../../../PLAT/prebuild/PLAT/lib/gcc/libdriver_private_bl.a(rng.o)
check_common_timeout                              ../../../../../../../PLAT/prebuild/PLAT/lib/gcc/libusbbl_priv.a(usb_bl_cmsis_support.o)
cleanup_glue                                      e:/work/meig/ec618/ec618_sdk_rel_sdk/plat/tools/gcc/bin/../lib/gcc/arm-none-eabi/10.2.1/../../../../arm-none-eabi/lib/thumb/v7-m/nofp\libc_nano.a(lib_a-reent.o)
clsdev_ecm_ops                                    ../../../../../../../PLAT/prebuild/PLAT/lib/gcc/libusbbl_priv.a(device_ecm.o)
clsdev_rndis_ops                                  ../../../../../../../PLAT/prebuild/PLAT/lib/gcc/libusbbl_priv.a(device_rndis.o)
clsdev_rxbuf_check                                ../../../../../../../PLAT/prebuild/PLAT/lib/gcc/libusbbl_priv.a(device_vcom.o)
clsdev_rxbuf_query_dlyalloc                       ../../../../../../../PLAT/prebuild/PLAT/lib/gcc/libusbbl_priv.a(device_vcom.o)
clsdev_rxbuf_query_or_dlyalloc                    ../../../../../../../PLAT/prebuild/PLAT/lib/gcc/libusbbl_priv.a(device_vcom.o)
clsdev_txbuf_check                                ../../../../../../../PLAT/prebuild/PLAT/lib/gcc/libusbbl_priv.a(device_vcom.o)
clsdev_txbuf_query_dlyalloc                       ../../../../../../../PLAT/prebuild/PLAT/lib/gcc/libusbbl_priv.a(device_vcom.o)
clsdev_txbuf_query_or_dlyalloc                    ../../../../../../../PLAT/prebuild/PLAT/lib/gcc/libusbbl_priv.a(device_vcom.o)
clsdev_vcom_ops                                   ../../../../../../../PLAT/prebuild/PLAT/lib/gcc/libusbbl_priv.a(device_vcom.o)
cmplt32_rsp_str                                   ../../../../../../../PLAT/prebuild/PLAT/lib/gcc/libusbbl_priv.a(function_rndis.o)
cmsIsPsReady                                      ../../../../../../../PLAT/prebuild/PLAT/lib/gcc/libosa.a(osasys.o)
cmsStartPs                                        ../../../../../../../PLAT/prebuild/PLAT/lib/gcc/libosa.a(osasys.o)
cmsTaskInit                                       ../../../../../../../PLAT/prebuild/PLAT/lib/gcc/libosa.a(ostask.o)
codecGetFs                                        ../../../../../../../PLAT/gccout/ec618_0h00/ap/bootloader/lib/libdriver.a(codecDrv.o)
codecI2cInit                                      ../../../../../../../PLAT/gccout/ec618_0h00/ap/bootloader/lib/libdriver.a(codecDrv.o)
                                                  ../../../../../../../PLAT/gccout/ec618_0h00/ap/bootloader/lib/libdriver.a(es8311.o)
                                                  ../../../../../../../PLAT/gccout/ec618_0h00/ap/bootloader/lib/libdriver.a(nau88c22.o)
                                                  ../../../../../../../PLAT/gccout/ec618_0h00/ap/bootloader/lib/libdriver.a(es8388.o)
codecI2cRead                                      ../../../../../../../PLAT/gccout/ec618_0h00/ap/bootloader/lib/libdriver.a(codecDrv.o)
                                                  ../../../../../../../PLAT/gccout/ec618_0h00/ap/bootloader/lib/libdriver.a(es8311.o)
                                                  ../../../../../../../PLAT/gccout/ec618_0h00/ap/bootloader/lib/libdriver.a(nau88c22.o)
                                                  ../../../../../../../PLAT/gccout/ec618_0h00/ap/bootloader/lib/libdriver.a(es8388.o)
codecI2cWrite                                     ../../../../../../../PLAT/gccout/ec618_0h00/ap/bootloader/lib/libdriver.a(codecDrv.o)
                                                  ../../../../../../../PLAT/gccout/ec618_0h00/ap/bootloader/lib/libdriver.a(es8311.o)
                                                  ../../../../../../../PLAT/gccout/ec618_0h00/ap/bootloader/lib/libdriver.a(nau88c22.o)
                                                  ../../../../../../../PLAT/gccout/ec618_0h00/ap/bootloader/lib/libdriver.a(es8388.o)
codecReadVal                                      ../../../../../../../PLAT/gccout/ec618_0h00/ap/bootloader/lib/libdriver.a(codecDrv.o)
                                                  ../../../../../../../PLAT/gccout/ec618_0h00/ap/bootloader/lib/libdriver.a(es8311.o)
codecWriteVal                                     ../../../../../../../PLAT/gccout/ec618_0h00/ap/bootloader/lib/libdriver.a(codecDrv.o)
                                                  ../../../../../../../PLAT/gccout/ec618_0h00/ap/bootloader/lib/libdriver.a(es8311.o)
                                                  ../../../../../../../PLAT/gccout/ec618_0h00/ap/bootloader/lib/libdriver.a(es8388.o)
connect_status                                    ../../../../../../../PLAT/prebuild/PLAT/lib/gcc/libusbbl_priv.a(function_rndis.o)
                                                  ../../../../../../../PLAT/gccout/ec618_0h00/ap/bootloader/lib/libdriver.a(rndis_protocol.o)
count                                             ../../../../../../../PLAT/gccout/ec618_0h00/ap/bootloader/lib/libdriver.a(oneWire.o)
crioDeinitEntity                                  ../../../../../../../PLAT/prebuild/PLAT/lib/gcc/libccio.a(rndis_entity.o)
crioInitEntity                                    ../../../../../../../PLAT/prebuild/PLAT/lib/gcc/libccio.a(rndis_entity.o)
crioPullDownChannel                               ../../../../../../../PLAT/prebuild/PLAT/lib/gcc/libccio.a(rndis_entity.o)
crioSetUpChannel                                  ../../../../../../../PLAT/prebuild/PLAT/lib/gcc/libccio.a(rndis_entity.o)
csioDeinitAtEntity                                ../../../../../../../PLAT/prebuild/PLAT/lib/gcc/libccio.a(serial_entity.o)
csioDeinitDiagEntity                              ../../../../../../../PLAT/prebuild/PLAT/lib/gcc/libccio.a(serial_entity.o)
csioDeinitOpaqEntity                              ../../../../../../../PLAT/prebuild/PLAT/lib/gcc/libccio.a(serial_entity.o)
csioDeinitPppEntity                               ../../../../../../../PLAT/prebuild/PLAT/lib/gcc/libccio.a(serial_entity.o)
csioGetPppSctRrcm                                 ../../../../../../../PLAT/prebuild/PLAT/lib/gcc/libccio.a(serial_entity.o)
csioInitAtEntity                                  ../../../../../../../PLAT/prebuild/PLAT/lib/gcc/libccio.a(serial_entity.o)
csioInitDiagEntity                                ../../../../../../../PLAT/prebuild/PLAT/lib/gcc/libccio.a(serial_entity.o)
csioInitOpaqEntity                                ../../../../../../../PLAT/prebuild/PLAT/lib/gcc/libccio.a(serial_entity.o)
csioInitPppEntity                                 ../../../../../../../PLAT/prebuild/PLAT/lib/gcc/libccio.a(serial_entity.o)
csioPullDownChannel                               ../../../../../../../PLAT/prebuild/PLAT/lib/gcc/libccio.a(serial_entity.o)
csioSetChanMode                                   ../../../../../../../PLAT/prebuild/PLAT/lib/gcc/libccio.a(serial_entity.o)
csioSetPppAccm                                    ../../../../../../../PLAT/prebuild/PLAT/lib/gcc/libccio.a(serial_entity.o)
csioSetPppSctRrcm                                 ../../../../../../../PLAT/prebuild/PLAT/lib/gcc/libccio.a(serial_entity.o)
csioSetUpChannel                                  ../../../../../../../PLAT/prebuild/PLAT/lib/gcc/libccio.a(serial_entity.o)
cuioDeinitEntity                                  ../../../../../../../PLAT/prebuild/PLAT/lib/gcc/libccio.a(eutra_entity.o)
cuioInitEntity                                    ../../../../../../../PLAT/prebuild/PLAT/lib/gcc/libccio.a(eutra_entity.o)
cuioPullDownChannel                               ../../../../../../../PLAT/prebuild/PLAT/lib/gcc/libccio.a(eutra_entity.o)
cuioSetUpChannel                                  ../../../../../../../PLAT/prebuild/PLAT/lib/gcc/libccio.a(eutra_entity.o)
dataPtr                                           ../../../../../../../PLAT/prebuild/PLAT/lib/gcc/libdriver_private_bl.a(rng.o)
delay_test                                        ../../../../../../../PLAT/prebuild/PLAT/lib/gcc/libdeltapatch.a(patch_main.o)
delay_us                                          ../../../../../../../PLAT/gccout/ec618_0h00/ap/bootloader/lib/libdriver.a(hal_misc.o)
                                                  ../../../../../../../PLAT/prebuild/PLAT/lib/gcc/libusbbl_priv.a(device_vcom.o)
                                                  ../../../../../../../PLAT/prebuild/PLAT/lib/gcc/libdriver_private_bl.a(flash.o)
                                                  ../../../../../../../PLAT/prebuild/PLAT/lib/gcc/libdriver_private_bl.a(rng.o)
                                                  ../../../../../../../PLAT/prebuild/PLAT/lib/gcc/libdriver_private_bl.a(tls.o)
                                                  ../../../../../../../PLAT/prebuild/PLAT/lib/gcc/libdriver_private_bl.a(efuse.o)
                                                  ../../../../../../../PLAT/prebuild/PLAT/lib/gcc/libdriver_private_bl.a(uart.o)
                                                  ../../../../../../../PLAT/gccout/ec618_0h00/ap/bootloader/lib/libdriver.a(oneWire.o)
                                                  ../../../../../../../PLAT/gccout/ec618_0h00/ap/bootloader/lib/libdriver.a(drv_odm_gpio.o)
                                                  ../../../../../../../PLAT/gccout/ec618_0h00/ap/bootloader/lib/libdriver.a(es8311.o)
                                                  ../../../../../../../PLAT/gccout/ec618_0h00/ap/bootloader/lib/libdriver.a(es8388.o)
                                                  ../../../../../../../PLAT/gccout/ec618_0h00/ap/bootloader/PLAT/middleware/developed/fota/custom/src/fota_custom.o
dev_eth_ecm_dnotify_lnkmd_get_epnum               ../../../../../../../PLAT/prebuild/PLAT/lib/gcc/libusbbl_priv.a(device_ecm.o)
dev_eth_ecm_down_lnkmd_get_epnum                  ../../../../../../../PLAT/prebuild/PLAT/lib/gcc/libusbbl_priv.a(device_ecm.o)
dev_eth_ecm_init                                  ../../../../../../../PLAT/prebuild/PLAT/lib/gcc/libusbbl_priv.a(device_ecm.o)
dev_eth_ecm_isconnect                             ../../../../../../../PLAT/prebuild/PLAT/lib/gcc/libusbbl_priv.a(device_ecm.o)
dev_eth_ecm_notify_halt                           ../../../../../../../PLAT/prebuild/PLAT/lib/gcc/libusbbl_priv.a(device_ecm.o)
dev_eth_ecm_ops                                   ../../../../../../../PLAT/prebuild/PLAT/lib/gcc/libusbbl_priv.a(device_ecm.o)
dev_eth_ecm_start_notify_trans                    ../../../../../../../PLAT/prebuild/PLAT/lib/gcc/libusbbl_priv.a(device_ecm.o)
dev_eth_ecm_terminate                             ../../../../../../../PLAT/prebuild/PLAT/lib/gcc/libusbbl_priv.a(device_ecm.o)
dev_eth_ecm_up_lnkmd_get_epnum                    ../../../../../../../PLAT/prebuild/PLAT/lib/gcc/libusbbl_priv.a(device_ecm.o)
dev_eth_ecm_up_lnkmd_xfercfg                      ../../../../../../../PLAT/prebuild/PLAT/lib/gcc/libusbbl_priv.a(device_ecm.o)
dev_eth_rndis_dnotify_lnkmd_get_epnum             ../../../../../../../PLAT/prebuild/PLAT/lib/gcc/libusbbl_priv.a(device_rndis.o)
dev_eth_rndis_down_lnkmd_get_epnum                ../../../../../../../PLAT/prebuild/PLAT/lib/gcc/libusbbl_priv.a(device_rndis.o)
dev_eth_rndis_init                                ../../../../../../../PLAT/prebuild/PLAT/lib/gcc/libusbbl_priv.a(device_rndis.o)
dev_eth_rndis_isconnect                           ../../../../../../../PLAT/prebuild/PLAT/lib/gcc/libusbbl_priv.a(device_rndis.o)
dev_eth_rndis_notify_halt                         ../../../../../../../PLAT/prebuild/PLAT/lib/gcc/libusbbl_priv.a(device_rndis.o)
dev_eth_rndis_ops                                 ../../../../../../../PLAT/prebuild/PLAT/lib/gcc/libusbbl_priv.a(device_rndis.o)
dev_eth_rndis_start_notify_trans                  ../../../../../../../PLAT/prebuild/PLAT/lib/gcc/libusbbl_priv.a(device_rndis.o)
dev_eth_rndis_terminate                           ../../../../../../../PLAT/prebuild/PLAT/lib/gcc/libusbbl_priv.a(device_rndis.o)
dev_eth_rndis_up_lnkmd_get_epnum                  ../../../../../../../PLAT/prebuild/PLAT/lib/gcc/libusbbl_priv.a(device_rndis.o)
dev_eth_rndis_up_lnkmd_xfercfg                    ../../../../../../../PLAT/prebuild/PLAT/lib/gcc/libusbbl_priv.a(device_rndis.o)
dev_serial_rxbuf_check                            ../../../../../../../PLAT/prebuild/PLAT/lib/gcc/libusbbl_priv.a(device_vcom.o)
dev_serial_rxbuf_query_dlyalloc                   ../../../../../../../PLAT/prebuild/PLAT/lib/gcc/libusbbl_priv.a(device_vcom.o)
dev_serial_rxbuf_query_or_dlyalloc                ../../../../../../../PLAT/prebuild/PLAT/lib/gcc/libusbbl_priv.a(device_vcom.o)
dev_serial_txbuf_check                            ../../../../../../../PLAT/prebuild/PLAT/lib/gcc/libusbbl_priv.a(device_vcom.o)
dev_serial_txbuf_query_dlyalloc                   ../../../../../../../PLAT/prebuild/PLAT/lib/gcc/libusbbl_priv.a(device_vcom.o)
dev_serial_txbuf_query_or_dlyalloc                ../../../../../../../PLAT/prebuild/PLAT/lib/gcc/libusbbl_priv.a(device_vcom.o)
dev_serial_vcom_dnotify_lnkmd_get_epnum           ../../../../../../../PLAT/prebuild/PLAT/lib/gcc/libusbbl_priv.a(device_vcom.o)
dev_serial_vcom_down_lnkmd_get_epnum              ../../../../../../../PLAT/prebuild/PLAT/lib/gcc/libusbbl_priv.a(device_vcom.o)
dev_serial_vcom_init                              ../../../../../../../PLAT/prebuild/PLAT/lib/gcc/libusbbl_priv.a(device_vcom.o)
dev_serial_vcom_isconnect                         ../../../../../../../PLAT/prebuild/PLAT/lib/gcc/libusbbl_priv.a(device_vcom.o)
dev_serial_vcom_ops                               ../../../../../../../PLAT/prebuild/PLAT/lib/gcc/libusbbl_priv.a(device_vcom.o)
dev_serial_vcom_start_notify_trans                ../../../../../../../PLAT/prebuild/PLAT/lib/gcc/libusbbl_priv.a(device_vcom.o)
dev_serial_vcom_start_tx_trans                    ../../../../../../../PLAT/prebuild/PLAT/lib/gcc/libusbbl_priv.a(device_vcom.o)
dev_serial_vcom_terminate                         ../../../../../../../PLAT/prebuild/PLAT/lib/gcc/libusbbl_priv.a(device_vcom.o)
dev_serial_vcom_up_lnkmd_get_epnum                ../../../../../../../PLAT/prebuild/PLAT/lib/gcc/libusbbl_priv.a(device_vcom.o)
dev_serial_vcom_up_lnkmd_xfercfg                  ../../../../../../../PLAT/prebuild/PLAT/lib/gcc/libusbbl_priv.a(device_vcom.o)
div                                               e:/work/meig/ec618/ec618_sdk_rel_sdk/plat/tools/gcc/bin/../lib/gcc/arm-none-eabi/10.2.1/../../../../arm-none-eabi/lib/thumb/v7-m/nofp\libc_nano.a(lib_a-div.o)
                                                  e:/work/meig/ec618/ec618_sdk_rel_sdk/plat/tools/gcc/bin/../lib/gcc/arm-none-eabi/10.2.1/../../../../arm-none-eabi/lib/thumb/v7-m/nofp\libc_nano.a(lib_a-mktime.o)
drvGpioDeinit                                     ../../../../../../../PLAT/gccout/ec618_0h00/ap/bootloader/lib/libdriver.a(drv_odm_gpio.o)
drvGpioDisableInterrupt                           ../../../../../../../PLAT/gccout/ec618_0h00/ap/bootloader/lib/libdriver.a(drv_odm_gpio.o)
drvGpioEnableInterrupt                            ../../../../../../../PLAT/gccout/ec618_0h00/ap/bootloader/lib/libdriver.a(drv_odm_gpio.o)
drvGpioGetLevel                                   ../../../../../../../PLAT/gccout/ec618_0h00/ap/bootloader/lib/libdriver.a(drv_odm_gpio.o)
drvGpioInit                                       ../../../../../../../PLAT/gccout/ec618_0h00/ap/bootloader/lib/libdriver.a(drv_odm_gpio.o)
drvGpioSetCallback                                ../../../../../../../PLAT/gccout/ec618_0h00/ap/bootloader/lib/libdriver.a(drv_odm_gpio.o)
drvGpioSetInterrupt                               ../../../../../../../PLAT/gccout/ec618_0h00/ap/bootloader/lib/libdriver.a(drv_odm_gpio.o)
drvGpioSetLevel                                   ../../../../../../../PLAT/gccout/ec618_0h00/ap/bootloader/lib/libdriver.a(drv_odm_gpio.o)
drv_gpio_id                                       ../../../../../../../PLAT/gccout/ec618_0h00/ap/bootloader/lib/libdriver.a(drv_odm_gpio.o)
ec_assert_regs                                    ../../../../../../../PLAT/prebuild/PLAT/lib/gcc/libdriver_private_bl.a(shareinfo.o)
                                                  ../../../../../../../PLAT/prebuild/PLAT/lib/gcc/libdriver_private_bl.a(aonreg.o)
                                                  ../../../../../../../PLAT/prebuild/PLAT/lib/gcc/libdriver_private_bl.a(acmsgtype.o)
                                                  ../../../../../../../PLAT/prebuild/PLAT/lib/gcc/libccio.a(ccio_device.o)
                                                  ../../../../../../../PLAT/prebuild/PLAT/lib/gcc/libccio.a(ccio_entity.o)
                                                  ../../../../../../../PLAT/prebuild/PLAT/lib/gcc/libccio.a(ccio_rbuf.o)
                                                  ../../../../../../../PLAT/prebuild/PLAT/lib/gcc/libccio.a(ccio_tfc.o)
                                                  ../../../../../../../PLAT/prebuild/PLAT/lib/gcc/libccio.a(serial_entity.o)
                                                  ../../../../../../../PLAT/prebuild/PLAT/lib/gcc/libccio.a(ecm_entity.o)
                                                  ../../../../../../../PLAT/prebuild/PLAT/lib/gcc/libccio.a(eutra_entity.o)
                                                  ../../../../../../../PLAT/prebuild/PLAT/lib/gcc/libccio.a(rndis_entity.o)
                                                  ../../../../../../../PLAT/prebuild/PLAT/lib/gcc/libmiddleware_ec_private.a(simbip.o)
                                                  ../../../../../../../PLAT/prebuild/PLAT/lib/gcc/libmiddleware_ec_private.a(psstk_bip.o)
                                                  ../../../../../../../PLAT/prebuild/PLAT/lib/gcc/libosa.a(osacfgnvm.o)
                                                  ../../../../../../../PLAT/prebuild/PLAT/lib/gcc/libosa.a(ostask.o)
                                                  ../../../../../../../PLAT/prebuild/PLAT/lib/gcc/libosa.a(osamempool.o)
                                                  ../../../../../../../PLAT/prebuild/PLAT/lib/gcc/libosa.a(osasig.o)
                                                  ../../../../../../../PLAT/prebuild/PLAT/lib/gcc/libosa.a(osanvm.o)
                                                  ../../../../../../../PLAT/prebuild/PLAT/lib/gcc/libosa.a(asn1util.o)
                                                  ../../../../../../../PLAT/prebuild/PLAT/lib/gcc/libosa.a(osautil.o)
                                                  ../../../../../../../PLAT/prebuild/PLAT/lib/gcc/libosa.a(osasys.o)
ec_main                                           ../../../../../../../PLAT/gccout/ec618_0h00/ap/bootloader/PLAT/project/ec618_0h00/ap/apps/bootloader/code/main/ec_main.o
                                                  ../../../../../../../PLAT/gccout/ec618_0h00/ap/bootloader/lib/libstartup.a(startup_ec618_gcc.o)
ec_strnstr                                        ../../../../../../../PLAT/gccout/ec618_0h00/ap/bootloader/lib/libdriver.a(ec_string.o)
ecm_dev_local_string                              ../../../../../../../PLAT/prebuild/PLAT/lib/gcc/libusbbl_priv.a(function_ecm.o)
ecm_func_bind                                     ../../../../../../../PLAT/prebuild/PLAT/lib/gcc/libusbbl_priv.a(function_ecm.o)
ecm_func_diep_down_lnkmd_get_epnum                ../../../../../../../PLAT/prebuild/PLAT/lib/gcc/libusbbl_priv.a(function_ecm.o)
                                                  ../../../../../../../PLAT/prebuild/PLAT/lib/gcc/libusbbl_priv.a(device_ecm.o)
ecm_func_doep_notify_lnkmd_get_epnum              ../../../../../../../PLAT/prebuild/PLAT/lib/gcc/libusbbl_priv.a(function_ecm.o)
                                                  ../../../../../../../PLAT/prebuild/PLAT/lib/gcc/libusbbl_priv.a(device_ecm.o)
ecm_func_doep_up_lnkmd_get_epnum                  ../../../../../../../PLAT/prebuild/PLAT/lib/gcc/libusbbl_priv.a(function_ecm.o)
                                                  ../../../../../../../PLAT/prebuild/PLAT/lib/gcc/libusbbl_priv.a(device_ecm.o)
ecm_func_hostdet_update                           ../../../../../../../PLAT/prebuild/PLAT/lib/gcc/libusbbl_priv.a(function_ecm.o)
ecm_func_mtd                                      ../../../../../../../PLAT/prebuild/PLAT/lib/gcc/libusbbl_priv.a(function_ecm.o)
ecm_func_recv_trigavail                           ../../../../../../../PLAT/prebuild/PLAT/lib/gcc/libusbbl_priv.a(function_ecm.o)
ecm_func_retwkup_restore                          ../../../../../../../PLAT/prebuild/PLAT/lib/gcc/libusbbl_priv.a(function_ecm.o)
ecm_func_rxbuf_reset                              ../../../../../../../PLAT/prebuild/PLAT/lib/gcc/libusbbl_priv.a(function_ecm.o)
ecm_func_send_trigavail                           ../../../../../../../PLAT/prebuild/PLAT/lib/gcc/libusbbl_priv.a(function_ecm.o)
ecm_func_send_trigger                             ../../../../../../../PLAT/prebuild/PLAT/lib/gcc/libusbbl_priv.a(function_ecm.o)
ecm_func_string_bind                              ../../../../../../../PLAT/prebuild/PLAT/lib/gcc/libusbbl_priv.a(function_ecm.o)
ecm_func_trans_init                               ../../../../../../../PLAT/prebuild/PLAT/lib/gcc/libusbbl_priv.a(function_ecm.o)
ecm_func_txbuf_reset                              ../../../../../../../PLAT/prebuild/PLAT/lib/gcc/libusbbl_priv.a(function_ecm.o)
ecm_func_unbind                                   ../../../../../../../PLAT/prebuild/PLAT/lib/gcc/libusbbl_priv.a(function_ecm.o)
ecm_str_container_tbl                             ../../../../../../../PLAT/prebuild/PLAT/lib/gcc/libusbbl_priv.a(function_ecm.o)
ecm_trace_encbuf                                  ../../../../../../../PLAT/prebuild/PLAT/lib/gcc/libusbbl_priv.a(function_ecm.o)
ecm_trans_api                                     ../../../../../../../PLAT/prebuild/PLAT/lib/gcc/libusbbl_priv.a(function_ecm.o)
ecm_trans_inst_ctrl                               ../../../../../../../PLAT/prebuild/PLAT/lib/gcc/libusbbl_priv.a(function_ecm.o)
ecm_up_lnkmd_xfer_cfg                             ../../../../../../../PLAT/prebuild/PLAT/lib/gcc/libusbbl_priv.a(function_ecm.o)
environ                                           e:/work/meig/ec618/ec618_sdk_rel_sdk/plat/tools/gcc/bin/../lib/gcc/arm-none-eabi/10.2.1/../../../../arm-none-eabi/lib/thumb/v7-m/nofp\libc_nano.a(lib_a-environ.o)
                                                  e:/work/meig/ec618/ec618_sdk_rel_sdk/plat/tools/gcc/bin/../lib/gcc/arm-none-eabi/10.2.1/../../../../arm-none-eabi/lib/thumb/v7-m/nofp\libc_nano.a(lib_a-getenv_r.o)
epin_remap_custom_tbl                             ../../../../../../../PLAT/gccout/ec618_0h00/ap/bootloader/lib/libdriver.a(usbd_multi_usrcfg_custom.o)
epout_remap_custom_tbl                            ../../../../../../../PLAT/gccout/ec618_0h00/ap/bootloader/lib/libdriver.a(usbd_multi_usrcfg_custom.o)
errno                                             e:/work/meig/ec618/ec618_sdk_rel_sdk/plat/tools/gcc/bin/../lib/gcc/arm-none-eabi/10.2.1/../../../../arm-none-eabi/lib/thumb/v7-m/nofp\libc_nano.a(lib_a-reent.o)
                                                  e:/work/meig/ec618/ec618_sdk_rel_sdk/plat/tools/gcc/bin/../lib/gcc/arm-none-eabi/10.2.1/../../../../arm-none-eabi/lib/thumb/v7-m/nofp\libc_nano.a(lib_a-isattyr.o)
                                                  e:/work/meig/ec618/ec618_sdk_rel_sdk/plat/tools/gcc/bin/../lib/gcc/arm-none-eabi/10.2.1/../../../../arm-none-eabi/lib/thumb/v7-m/nofp\libc_nano.a(lib_a-fstatr.o)
                                                  e:/work/meig/ec618/ec618_sdk_rel_sdk/plat/tools/gcc/bin/../lib/gcc/arm-none-eabi/10.2.1/../../../../arm-none-eabi/lib/thumb/v7-m/nofp\libc_nano.a(lib_a-signalr.o)
                                                  e:/work/meig/ec618/ec618_sdk_rel_sdk/plat/tools/gcc/bin/../lib/gcc/arm-none-eabi/10.2.1/../../../../arm-none-eabi/lib/thumb/v7-m/nofp\libc_nano.a(lib_a-readr.o)
                                                  e:/work/meig/ec618/ec618_sdk_rel_sdk/plat/tools/gcc/bin/../lib/gcc/arm-none-eabi/10.2.1/../../../../arm-none-eabi/lib/thumb/v7-m/nofp\libc_nano.a(lib_a-lseekr.o)
                                                  e:/work/meig/ec618/ec618_sdk_rel_sdk/plat/tools/gcc/bin/../lib/gcc/arm-none-eabi/10.2.1/../../../../arm-none-eabi/lib/thumb/v7-m/nofp\libc_nano.a(lib_a-closer.o)
                                                  e:/work/meig/ec618/ec618_sdk_rel_sdk/plat/tools/gcc/bin/../lib/gcc/arm-none-eabi/10.2.1/../../../../arm-none-eabi/lib/thumb/v7-m/nofp\libc_nano.a(lib_a-writer.o)
                                                  e:/work/meig/ec618/ec618_sdk_rel_sdk/plat/tools/gcc/bin/../lib/gcc/arm-none-eabi/10.2.1/../../../../arm-none-eabi/lib/thumb/v7-m/nofp\libc_nano.a(lib_a-sbrkr.o)
es8311GetFs                                       ../../../../../../../PLAT/gccout/ec618_0h00/ap/bootloader/lib/libdriver.a(es8311.o)
                                                  ../../../../../../../PLAT/gccout/ec618_0h00/ap/bootloader/lib/libdriver.a(codecDrv.o)
es8311GetRegCnt                                   ../../../../../../../PLAT/gccout/ec618_0h00/ap/bootloader/lib/libdriver.a(es8311.o)
es8311GetVoiceMute                                ../../../../../../../PLAT/gccout/ec618_0h00/ap/bootloader/lib/libdriver.a(es8311.o)
es8311GetVoiceVolume                              ../../../../../../../PLAT/gccout/ec618_0h00/ap/bootloader/lib/libdriver.a(es8311.o)
es8311MasterInit                                  ../../../../../../../PLAT/gccout/ec618_0h00/ap/bootloader/lib/libdriver.a(es8311.o)
                                                  ../../../../../../../PLAT/gccout/ec618_0h00/ap/bootloader/lib/libdriver.a(hal_i2s.o)
es8311SetMicGain                                  ../../../../../../../PLAT/gccout/ec618_0h00/ap/bootloader/lib/libdriver.a(es8311.o)
es8311SetMode                                     ../../../../../../../PLAT/gccout/ec618_0h00/ap/bootloader/lib/libdriver.a(es8311.o)
es8311SetVoiceMute                                ../../../../../../../PLAT/gccout/ec618_0h00/ap/bootloader/lib/libdriver.a(es8311.o)
es8311SetVoiceVolume                              ../../../../../../../PLAT/gccout/ec618_0h00/ap/bootloader/lib/libdriver.a(es8311.o)
es8311SlaveInit                                   ../../../../../../../PLAT/gccout/ec618_0h00/ap/bootloader/lib/libdriver.a(es8311.o)
                                                  ../../../../../../../PLAT/gccout/ec618_0h00/ap/bootloader/lib/libdriver.a(hal_i2s.o)
es8311_closeRegList                               ../../../../../../../PLAT/gccout/ec618_0h00/ap/bootloader/lib/libdriver.a(es8311.o)
es8311_initRegList                                ../../../../../../../PLAT/gccout/ec618_0h00/ap/bootloader/lib/libdriver.a(es8311.o)
es8388GetFs                                       ../../../../../../../PLAT/gccout/ec618_0h00/ap/bootloader/lib/libdriver.a(es8388.o)
                                                  ../../../../../../../PLAT/gccout/ec618_0h00/ap/bootloader/lib/libdriver.a(codecDrv.o)
es8388GetRegCnt                                   ../../../../../../../PLAT/gccout/ec618_0h00/ap/bootloader/lib/libdriver.a(es8388.o)
es8388MasterInit                                  ../../../../../../../PLAT/gccout/ec618_0h00/ap/bootloader/lib/libdriver.a(es8388.o)
                                                  ../../../../../../../PLAT/gccout/ec618_0h00/ap/bootloader/lib/libdriver.a(hal_i2s.o)
es8388SetMode                                     ../../../../../../../PLAT/gccout/ec618_0h00/ap/bootloader/lib/libdriver.a(es8388.o)
es8388SlaveInit                                   ../../../../../../../PLAT/gccout/ec618_0h00/ap/bootloader/lib/libdriver.a(es8388.o)
                                                  ../../../../../../../PLAT/gccout/ec618_0h00/ap/bootloader/lib/libdriver.a(hal_i2s.o)
es8388_regInfo                                    ../../../../../../../PLAT/gccout/ec618_0h00/ap/bootloader/lib/libdriver.a(es8388.o)
ethDataHasObzpXfer                                ../../../../../../../PLAT/prebuild/PLAT/lib/gcc/libccio.a(ecm_entity.o)
ethDataInput                                      ../../../../../../../PLAT/prebuild/PLAT/lib/gcc/libccio.a(ecm_entity.o)
                                                  ../../../../../../../PLAT/prebuild/PLAT/lib/gcc/libccio.a(rndis_entity.o)
ethDataPreview                                    ../../../../../../../PLAT/prebuild/PLAT/lib/gcc/libccio.a(ecm_entity.o)
excepDumpCheckPoint                               ../../../../../../../PLAT/prebuild/PLAT/lib/gcc/libosa.a(ostask.o)
excepEcAssert                                     ../../../../../../../PLAT/prebuild/PLAT/lib/gcc/libdriver_private_bl.a(shareinfo.o)
                                                  ../../../../../../../PLAT/prebuild/PLAT/lib/gcc/libdriver_private_bl.a(aonreg.o)
                                                  ../../../../../../../PLAT/prebuild/PLAT/lib/gcc/libdriver_private_bl.a(acmsgtype.o)
                                                  ../../../../../../../PLAT/prebuild/PLAT/lib/gcc/libccio.a(ccio_device.o)
                                                  ../../../../../../../PLAT/prebuild/PLAT/lib/gcc/libccio.a(ccio_entity.o)
                                                  ../../../../../../../PLAT/prebuild/PLAT/lib/gcc/libccio.a(ccio_rbuf.o)
                                                  ../../../../../../../PLAT/prebuild/PLAT/lib/gcc/libccio.a(ccio_tfc.o)
                                                  ../../../../../../../PLAT/prebuild/PLAT/lib/gcc/libccio.a(serial_entity.o)
                                                  ../../../../../../../PLAT/prebuild/PLAT/lib/gcc/libccio.a(ecm_entity.o)
                                                  ../../../../../../../PLAT/prebuild/PLAT/lib/gcc/libccio.a(eutra_entity.o)
                                                  ../../../../../../../PLAT/prebuild/PLAT/lib/gcc/libccio.a(rndis_entity.o)
                                                  ../../../../../../../PLAT/prebuild/PLAT/lib/gcc/libmiddleware_ec_private.a(simbip.o)
                                                  ../../../../../../../PLAT/prebuild/PLAT/lib/gcc/libmiddleware_ec_private.a(psstk_bip.o)
                                                  ../../../../../../../PLAT/prebuild/PLAT/lib/gcc/libosa.a(osacfgnvm.o)
                                                  ../../../../../../../PLAT/prebuild/PLAT/lib/gcc/libosa.a(ostask.o)
                                                  ../../../../../../../PLAT/prebuild/PLAT/lib/gcc/libosa.a(osamempool.o)
                                                  ../../../../../../../PLAT/prebuild/PLAT/lib/gcc/libosa.a(osasig.o)
                                                  ../../../../../../../PLAT/prebuild/PLAT/lib/gcc/libosa.a(osanvm.o)
                                                  ../../../../../../../PLAT/prebuild/PLAT/lib/gcc/libosa.a(asn1util.o)
                                                  ../../../../../../../PLAT/prebuild/PLAT/lib/gcc/libosa.a(osautil.o)
                                                  ../../../../../../../PLAT/prebuild/PLAT/lib/gcc/libosa.a(osasys.o)
except_fputc                                      ../../../../../../../PLAT/gccout/ec618_0h00/ap/bootloader/PLAT/project/ec618_0h00/ap/apps/bootloader/code/except/exception_handler.o
except_trace                                      ../../../../../../../PLAT/gccout/ec618_0h00/ap/bootloader/PLAT/project/ec618_0h00/ap/apps/bootloader/code/except/exception_handler.o
exception_init                                    ../../../../../../../PLAT/gccout/ec618_0h00/ap/bootloader/PLAT/project/ec618_0h00/ap/apps/bootloader/code/except/exception_handler.o
exit                                              e:/work/meig/ec618/ec618_sdk_rel_sdk/plat/tools/gcc/bin/../lib/gcc/arm-none-eabi/10.2.1/../../../../arm-none-eabi/lib/thumb/v7-m/nofp\libc_nano.a(lib_a-exit.o)
                                                  e:/work/meig/ec618/ec618_sdk_rel_sdk/plat/tools/gcc/bin/../lib/gcc/arm-none-eabi/10.2.1/../../../../arm-none-eabi/lib/thumb/v7-m/nofp/crt0.o
fakefs_checkfptr                                  ../../../../../../../PLAT/prebuild/PLAT/lib/gcc/libdeltapatch.a(fakefs.o)
fakefs_delta_file_offst                           ../../../../../../../PLAT/prebuild/PLAT/lib/gcc/libdeltapatch.a(fakefs.o)
fakefs_dex_base                                   ../../../../../../../PLAT/prebuild/PLAT/lib/gcc/libdeltapatch.a(fakefs.o)
fakefs_dex_map_zoneid                             ../../../../../../../PLAT/prebuild/PLAT/lib/gcc/libdeltapatch.a(fakefs.o)
fakefs_dex_maponce_flag                           ../../../../../../../PLAT/prebuild/PLAT/lib/gcc/libdeltapatch.a(fakefs.o)
fakefs_dex_size                                   ../../../../../../../PLAT/prebuild/PLAT/lib/gcc/libdeltapatch.a(fakefs.o)
fakefs_dext_file_offst                            ../../../../../../../PLAT/prebuild/PLAT/lib/gcc/libdeltapatch.a(fakefs.o)
fakefs_dlt_base                                   ../../../../../../../PLAT/prebuild/PLAT/lib/gcc/libdeltapatch.a(fakefs.o)
fakefs_dlt_map_zoneid                             ../../../../../../../PLAT/prebuild/PLAT/lib/gcc/libdeltapatch.a(fakefs.o)
fakefs_dlt_maponce_flag                           ../../../../../../../PLAT/prebuild/PLAT/lib/gcc/libdeltapatch.a(fakefs.o)
fakefs_dlt_size                                   ../../../../../../../PLAT/prebuild/PLAT/lib/gcc/libdeltapatch.a(fakefs.o)
fakefs_dst_base                                   ../../../../../../../PLAT/prebuild/PLAT/lib/gcc/libdeltapatch.a(fakefs.o)
fakefs_dst_file_offst                             ../../../../../../../PLAT/prebuild/PLAT/lib/gcc/libdeltapatch.a(fakefs.o)
fakefs_dst_map_zoneid                             ../../../../../../../PLAT/prebuild/PLAT/lib/gcc/libdeltapatch.a(fakefs.o)
fakefs_dst_maponce_flag                           ../../../../../../../PLAT/prebuild/PLAT/lib/gcc/libdeltapatch.a(fakefs.o)
fakefs_dst_size                                   ../../../../../../../PLAT/prebuild/PLAT/lib/gcc/libdeltapatch.a(fakefs.o)
fakefs_file_bind_zoneid_once                      ../../../../../../../PLAT/prebuild/PLAT/lib/gcc/libdeltapatch.a(fakefs.o)
                                                  ../../../../../../../PLAT/prebuild/PLAT/lib/gcc/libdeltapatch.a(patch_main.o)
fakefs_file_get_base                              ../../../../../../../PLAT/prebuild/PLAT/lib/gcc/libdeltapatch.a(fakefs.o)
fakefs_file_get_base_old                          ../../../../../../../PLAT/prebuild/PLAT/lib/gcc/libdeltapatch.a(fakefs.o)
fakefs_file_get_bind_flag                         ../../../../../../../PLAT/prebuild/PLAT/lib/gcc/libdeltapatch.a(fakefs.o)
fakefs_file_get_map_flag                          ../../../../../../../PLAT/prebuild/PLAT/lib/gcc/libdeltapatch.a(fakefs.o)
fakefs_file_get_offst                             ../../../../../../../PLAT/prebuild/PLAT/lib/gcc/libdeltapatch.a(fakefs.o)
fakefs_file_get_zoneid                            ../../../../../../../PLAT/prebuild/PLAT/lib/gcc/libdeltapatch.a(fakefs.o)
fakefs_file_map_once                              ../../../../../../../PLAT/prebuild/PLAT/lib/gcc/libdeltapatch.a(fakefs.o)
fakefs_file_set_offst                             ../../../../../../../PLAT/prebuild/PLAT/lib/gcc/libdeltapatch.a(fakefs.o)
fakefs_file_size                                  ../../../../../../../PLAT/prebuild/PLAT/lib/gcc/libdeltapatch.a(fakefs.o)
fakefs_file_size_raw                              ../../../../../../../PLAT/prebuild/PLAT/lib/gcc/libdeltapatch.a(fakefs.o)
fakefs_file_unbind_zoneid                         ../../../../../../../PLAT/prebuild/PLAT/lib/gcc/libdeltapatch.a(fakefs.o)
                                                  ../../../../../../../PLAT/prebuild/PLAT/lib/gcc/libdeltapatch.a(patch_main.o)
fakefs_file_unmap_all                             ../../../../../../../PLAT/prebuild/PLAT/lib/gcc/libdeltapatch.a(fakefs.o)
                                                  ../../../../../../../PLAT/prebuild/PLAT/lib/gcc/libdeltapatch.a(patch_main.o)
fakefs_fread                                      ../../../../../../../PLAT/prebuild/PLAT/lib/gcc/libdeltapatch.a(fakefs.o)
fakefs_fseek                                      ../../../../../../../PLAT/prebuild/PLAT/lib/gcc/libdeltapatch.a(fakefs.o)
fakefs_fstat                                      ../../../../../../../PLAT/prebuild/PLAT/lib/gcc/libdeltapatch.a(fakefs.o)
fakefs_ftell                                      ../../../../../../../PLAT/prebuild/PLAT/lib/gcc/libdeltapatch.a(fakefs.o)
fakefs_fwrite                                     ../../../../../../../PLAT/prebuild/PLAT/lib/gcc/libdeltapatch.a(fakefs.o)
fakefs_get_file                                   ../../../../../../../PLAT/prebuild/PLAT/lib/gcc/libdeltapatch.a(fakefs.o)
fakefs_get_handle                                 ../../../../../../../PLAT/prebuild/PLAT/lib/gcc/libdeltapatch.a(fakefs.o)
fakefs_get_sector_size                            ../../../../../../../PLAT/prebuild/PLAT/lib/gcc/libdeltapatch.a(fakefs.o)
fakefs_open                                       ../../../../../../../PLAT/prebuild/PLAT/lib/gcc/libdeltapatch.a(fakefs.o)
fakefs_src_base                                   ../../../../../../../PLAT/prebuild/PLAT/lib/gcc/libdeltapatch.a(fakefs.o)
fakefs_src_file_offst                             ../../../../../../../PLAT/prebuild/PLAT/lib/gcc/libdeltapatch.a(fakefs.o)
fakefs_src_map_zoneid                             ../../../../../../../PLAT/prebuild/PLAT/lib/gcc/libdeltapatch.a(fakefs.o)
fakefs_src_maponce_flag                           ../../../../../../../PLAT/prebuild/PLAT/lib/gcc/libdeltapatch.a(fakefs.o)
fakefs_src_size                                   ../../../../../../../PLAT/prebuild/PLAT/lib/gcc/libdeltapatch.a(fakefs.o)
fakefs_zoneid_bind_flag                           ../../../../../../../PLAT/prebuild/PLAT/lib/gcc/libdeltapatch.a(fakefs.o)
fclose                                            e:/work/meig/ec618/ec618_sdk_rel_sdk/plat/tools/gcc/bin/../lib/gcc/arm-none-eabi/10.2.1/../../../../arm-none-eabi/lib/thumb/v7-m/nofp\libc_nano.a(lib_a-fclose.o)
                                                  ../../../../../../../PLAT/prebuild/PLAT/lib/gcc/libdeltapatch.a(bzlib.o)
fclose_std                                        ../../../../../../../PLAT/prebuild/PLAT/lib/gcc/libdeltapatch.a(fakefs.o)
                                                  ../../../../../../../PLAT/prebuild/PLAT/lib/gcc/libdeltapatch.a(patch_main.o)
                                                  ../../../../../../../PLAT/prebuild/PLAT/lib/gcc/libdeltapatch.a(bzlib.o)
feof_std                                          ../../../../../../../PLAT/prebuild/PLAT/lib/gcc/libdeltapatch.a(fakefs.o)
                                                  ../../../../../../../PLAT/prebuild/PLAT/lib/gcc/libdeltapatch.a(patch_main.o)
                                                  ../../../../../../../PLAT/prebuild/PLAT/lib/gcc/libdeltapatch.a(bzlib.o)
fext_ini                                          ../../../../../../../PLAT/prebuild/PLAT/lib/gcc/libdeltapatch.a(fakefs.o)
                                                  ../../../../../../../PLAT/prebuild/PLAT/lib/gcc/libdeltapatch.a(patch_main.o)
fext_isfilematch                                  ../../../../../../../PLAT/prebuild/PLAT/lib/gcc/libdeltapatch.a(fakefs.o)
fext_ispart                                       ../../../../../../../PLAT/prebuild/PLAT/lib/gcc/libdeltapatch.a(fakefs.o)
fflush                                            e:/work/meig/ec618/ec618_sdk_rel_sdk/plat/tools/gcc/bin/../lib/gcc/arm-none-eabi/10.2.1/../../../../arm-none-eabi/lib/thumb/v7-m/nofp\libc_nano.a(lib_a-fflush.o)
fiprintf                                          e:/work/meig/ec618/ec618_sdk_rel_sdk/plat/tools/gcc/bin/../lib/gcc/arm-none-eabi/10.2.1/../../../../arm-none-eabi/lib/thumb/v7-m/nofp\libc_nano.a(lib_a-fprintf.o)
                                                  e:/work/meig/ec618/ec618_sdk_rel_sdk/plat/tools/gcc/bin/../lib/gcc/arm-none-eabi/10.2.1/../../../../arm-none-eabi/lib/thumb/v7-m/nofp\libc_nano.a(lib_a-assert.o)
fopen_std                                         ../../../../../../../PLAT/prebuild/PLAT/lib/gcc/libdeltapatch.a(fakefs.o)
                                                  ../../../../../../../PLAT/prebuild/PLAT/lib/gcc/libdeltapatch.a(patch_main.o)
                                                  ../../../../../../../PLAT/prebuild/PLAT/lib/gcc/libdeltapatch.a(bzlib.o)
fotaAllocMem                                      ../../../../../../../PLAT/gccout/ec618_0h00/ap/bootloader/PLAT/middleware/developed/fota/custom/src/fota_mem.o
                                                  ../../../../../../../PLAT/prebuild/PLAT/lib/gcc/libfota.a(fota_hub.o)
                                                  ../../../../../../../PLAT/gccout/ec618_0h00/ap/bootloader/PLAT/middleware/developed/fota/custom/src/fota_utils.o
fotaCalcChksum                                    ../../../../../../../PLAT/gccout/ec618_0h00/ap/bootloader/PLAT/middleware/developed/fota/custom/src/fota_chksum.o
                                                  ../../../../../../../PLAT/prebuild/PLAT/lib/gcc/libfota.a(fota_hub.o)
                                                  ../../../../../../../PLAT/gccout/ec618_0h00/ap/bootloader/PLAT/middleware/developed/fota/custom/src/fota_utils.o
fotaDoExtension                                   ../../../../../../../PLAT/gccout/ec618_0h00/ap/bootloader/PLAT/middleware/developed/fota/custom/src/fota_custom.o
                                                  ../../../../../../../PLAT/prebuild/PLAT/lib/gcc/libfota.a(fota_hub.o)
                                                  ../../../../../../../PLAT/gccout/ec618_0h00/ap/bootloader/PLAT/middleware/developed/fota/custom/src/fota_entry.o
fotaFreeMem                                       ../../../../../../../PLAT/gccout/ec618_0h00/ap/bootloader/PLAT/middleware/developed/fota/custom/src/fota_mem.o
                                                  ../../../../../../../PLAT/prebuild/PLAT/lib/gcc/libfota.a(fota_hub.o)
                                                  ../../../../../../../PLAT/gccout/ec618_0h00/ap/bootloader/PLAT/middleware/developed/fota/custom/src/fota_utils.o
fotaInitChksum                                    ../../../../../../../PLAT/gccout/ec618_0h00/ap/bootloader/PLAT/middleware/developed/fota/custom/src/fota_chksum.o
                                                  ../../../../../../../PLAT/prebuild/PLAT/lib/gcc/libfota.a(fota_hub.o)
                                                  ../../../../../../../PLAT/gccout/ec618_0h00/ap/bootloader/PLAT/middleware/developed/fota/custom/src/fota_nvm.o
fotaInitMem                                       ../../../../../../../PLAT/gccout/ec618_0h00/ap/bootloader/PLAT/middleware/developed/fota/custom/src/fota_mem.o
                                                  ../../../../../../../PLAT/prebuild/PLAT/lib/gcc/libfota.a(fota_hub.o)
fotaNvmClear                                      ../../../../../../../PLAT/gccout/ec618_0h00/ap/bootloader/PLAT/middleware/developed/fota/custom/src/fota_nvm.o
                                                  ../../../../../../../PLAT/prebuild/PLAT/lib/gcc/libfota.a(fota_hub.o)
                                                  ../../../../../../../PLAT/gccout/ec618_0h00/ap/bootloader/PLAT/middleware/developed/fota/custom/src/fota_entry.o
fotaNvmDeinit                                     ../../../../../../../PLAT/gccout/ec618_0h00/ap/bootloader/PLAT/middleware/developed/fota/custom/src/fota_nvm.o
                                                  ../../../../../../../PLAT/prebuild/PLAT/lib/gcc/libfota.a(fota_hub.o)
fotaNvmDoExtension                                ../../../../../../../PLAT/gccout/ec618_0h00/ap/bootloader/PLAT/middleware/developed/fota/custom/src/fota_nvm.o
                                                  ../../../../../../../PLAT/gccout/ec618_0h00/ap/bootloader/PLAT/middleware/developed/fota/custom/src/fota_custom.o
fotaNvmGetExtras                                  ../../../../../../../PLAT/gccout/ec618_0h00/ap/bootloader/PLAT/middleware/developed/fota/custom/src/fota_nvm.o
                                                  ../../../../../../../PLAT/prebuild/PLAT/lib/gcc/libfota.a(fota_hub.o)
fotaNvmGetHandle                                  ../../../../../../../PLAT/gccout/ec618_0h00/ap/bootloader/PLAT/middleware/developed/fota/custom/src/fota_nvm.o
                                                  ../../../../../../../PLAT/prebuild/PLAT/lib/gcc/libfota.a(fota_hub.o)
fotaNvmGetSize                                    ../../../../../../../PLAT/gccout/ec618_0h00/ap/bootloader/PLAT/middleware/developed/fota/custom/src/fota_nvm.o
                                                  ../../../../../../../PLAT/prebuild/PLAT/lib/gcc/libfota.a(fota_hub.o)
                                                  ../../../../../../../PLAT/gccout/ec618_0h00/ap/bootloader/PLAT/middleware/developed/fota/custom/src/fota_entry.o
fotaNvmInit                                       ../../../../../../../PLAT/gccout/ec618_0h00/ap/bootloader/PLAT/middleware/developed/fota/custom/src/fota_nvm.o
                                                  ../../../../../../../PLAT/prebuild/PLAT/lib/gcc/libfota.a(fota_hub.o)
fotaNvmRead                                       ../../../../../../../PLAT/gccout/ec618_0h00/ap/bootloader/PLAT/middleware/developed/fota/custom/src/fota_nvm.o
                                                  ../../../../../../../PLAT/prebuild/PLAT/lib/gcc/libfota.a(fota_hub.o)
                                                  ../../../../../../../PLAT/gccout/ec618_0h00/ap/bootloader/PLAT/middleware/developed/fota/custom/src/fota_utils.o
fotaNvmWrite                                      ../../../../../../../PLAT/gccout/ec618_0h00/ap/bootloader/PLAT/middleware/developed/fota/custom/src/fota_nvm.o
                                                  ../../../../../../../PLAT/prebuild/PLAT/lib/gcc/libfota.a(fota_hub.o)
fota_main_file_end                                ../../../../../../../PLAT/prebuild/PLAT/lib/gcc/libdeltapatch.a(fakefs.o)
fota_main_file_write_sector                       ../../../../../../../PLAT/prebuild/PLAT/lib/gcc/libdeltapatch.a(fakefs.o)
fota_main_file_write_sector_combile               ../../../../../../../PLAT/prebuild/PLAT/lib/gcc/libdeltapatch.a(fakefs.o)
fota_main_file_write_sector_combile_dicard        ../../../../../../../PLAT/prebuild/PLAT/lib/gcc/libdeltapatch.a(fakefs.o)
fota_main_file_write_sector_raw                   ../../../../../../../PLAT/prebuild/PLAT/lib/gcc/libdeltapatch.a(fakefs.o)
fprintf                                           e:/work/meig/ec618/ec618_sdk_rel_sdk/plat/tools/gcc/bin/../lib/gcc/arm-none-eabi/10.2.1/../../../../arm-none-eabi/lib/thumb/v7-m/nofp\libc_nano.a(lib_a-fprintf.o)
                                                  ../../../../../../../PLAT/prebuild/PLAT/lib/gcc/libdeltapatch.a(decompress.o)
                                                  ../../../../../../../PLAT/prebuild/PLAT/lib/gcc/libdeltapatch.a(bzlib.o)
fputc                                             e:/work/meig/ec618/ec618_sdk_rel_sdk/plat/tools/gcc/bin/../lib/gcc/arm-none-eabi/10.2.1/../../../../arm-none-eabi/lib/thumb/v7-m/nofp\libc_nano.a(lib_a-fputc.o)
                                                  ../../../../../../../PLAT/prebuild/PLAT/lib/gcc/libdeltapatch.a(bzlib.o)
fputs                                             e:/work/meig/ec618/ec618_sdk_rel_sdk/plat/tools/gcc/bin/../lib/gcc/arm-none-eabi/10.2.1/../../../../arm-none-eabi/lib/thumb/v7-m/nofp\libc_nano.a(lib_a-fputs.o)
                                                  ../../../../../../../PLAT/prebuild/PLAT/lib/gcc/libdeltapatch.a(decompress.o)
                                                  ../../../../../../../PLAT/prebuild/PLAT/lib/gcc/libdeltapatch.a(bzlib.o)
fread_std                                         ../../../../../../../PLAT/prebuild/PLAT/lib/gcc/libdeltapatch.a(fakefs.o)
                                                  ../../../../../../../PLAT/prebuild/PLAT/lib/gcc/libdeltapatch.a(patch_main.o)
                                                  ../../../../../../../PLAT/prebuild/PLAT/lib/gcc/libdeltapatch.a(bzlib.o)
free                                              e:/work/meig/ec618/ec618_sdk_rel_sdk/plat/tools/gcc/bin/../lib/gcc/arm-none-eabi/10.2.1/../../../../arm-none-eabi/lib/thumb/v7-m/nofp\libc_nano.a(lib_a-malloc.o)
                                                  e:/work/meig/ec618/ec618_sdk_rel_sdk/plat/tools/gcc/bin/../lib/gcc/arm-none-eabi/10.2.1/../../../../arm-none-eabi/lib/thumb/v7-m/nofp\libc_nano.a(lib_a-tzset_r.o)
                                                  ../../../../../../../PLAT/prebuild/PLAT/lib/gcc/libusbbl_priv.a(function_rndis.o)
                                                  ../../../../../../../PLAT/prebuild/PLAT/lib/gcc/libusbbl_priv.a(function_ecm.o)
                                                  ../../../../../../../PLAT/prebuild/PLAT/lib/gcc/libusbbl_priv.a(function_vcom_tpl.o)
                                                  ../../../../../../../PLAT/prebuild/PLAT/lib/gcc/libusbbl_priv.a(device_vcom.o)
                                                  ../../../../../../../PLAT/prebuild/PLAT/lib/gcc/libdeltapatch.a(patch_main.o)
                                                  ../../../../../../../PLAT/prebuild/PLAT/lib/gcc/libdeltapatch.a(bzlib.o)
                                                  ../../../../../../../PLAT/prebuild/PLAT/lib/gcc/libccio.a(serial_entity.o)
                                                  ../../../../../../../PLAT/gccout/ec618_0h00/ap/bootloader/PLAT/middleware/developed/fota/custom/src/fota_mem.o
fseek_std                                         ../../../../../../../PLAT/prebuild/PLAT/lib/gcc/libdeltapatch.a(fakefs.o)
                                                  ../../../../../../../PLAT/prebuild/PLAT/lib/gcc/libdeltapatch.a(patch_main.o)
ftell_std                                         ../../../../../../../PLAT/prebuild/PLAT/lib/gcc/libdeltapatch.a(fakefs.o)
func_dbg_record_inep_maxpkt                       ../../../../../../../PLAT/prebuild/PLAT/lib/gcc/libusbbl_priv.a(func_dbg.o)
                                                  ../../../../../../../PLAT/prebuild/PLAT/lib/gcc/libusbbl_priv.a(function_rndis.o)
                                                  ../../../../../../../PLAT/prebuild/PLAT/lib/gcc/libusbbl_priv.a(function_ecm.o)
func_rndis_sig_conn_test                          ../../../../../../../PLAT/prebuild/PLAT/lib/gcc/libusbbl_priv.a(function_rndis.o)
fwrite_std                                        ../../../../../../../PLAT/prebuild/PLAT/lib/gcc/libdeltapatch.a(fakefs.o)
                                                  ../../../../../../../PLAT/prebuild/PLAT/lib/gcc/libdeltapatch.a(patch_main.o)
fwrite_std_ext_part                               ../../../../../../../PLAT/prebuild/PLAT/lib/gcc/libdeltapatch.a(fakefs.o)
fwrite_std_normal                                 ../../../../../../../PLAT/prebuild/PLAT/lib/gcc/libdeltapatch.a(fakefs.o)
fwup_refesh_callback_demo                         ../../../../../../../PLAT/prebuild/PLAT/lib/gcc/libdeltapatch.a(patch_main.o)
gBlBootFlag                                       ../../../../../../../PLAT/gccout/ec618_0h00/ap/bootloader/lib/libstartup.a(system_ec618.o)
gBspQspiWriteGranSize                             ../../../../../../../PLAT/prebuild/PLAT/lib/gcc/libdriver_private_bl.a(flash.o)
gClkEnableRegisterAddress                         ../../../../../../../PLAT/prebuild/PLAT/lib/gcc/libdriver_private_bl.a(gpr.o)
gClkResetRegisterAddress                          ../../../../../../../PLAT/prebuild/PLAT/lib/gcc/libdriver_private_bl.a(gpr.o)
gClkSrcVectors                                    ../../../../../../../PLAT/prebuild/PLAT/lib/gcc/libdriver_private_bl.a(gpr.o)
gFlashOpCallback                                  ../../../../../../../PLAT/prebuild/PLAT/lib/gcc/libdriver_private_bl.a(flash.o)
gSerlChdevInCb                                    ../../../../../../../PLAT/prebuild/PLAT/lib/gcc/libccio.a(serial_entity.o)
gShareRstFlag                                     ../../../../../../../PLAT/prebuild/PLAT/lib/gcc/libdriver_private_bl.a(shareinfo.o)
gTotalHeapSize                                    ../../../../../../../PLAT/prebuild/PLAT/lib/gcc/libosa.a(ostask.o)
gXPShareInfo                                      ../../../../../../../PLAT/prebuild/PLAT/lib/gcc/libdriver_private_bl.a(shareinfo.o)
g_fotaLogoInfo                                    ../../../../../../../PLAT/prebuild/PLAT/lib/gcc/libfota.a(fota_man.o)
g_rawFlashPlatConfig                              ../../../../../../../PLAT/gccout/ec618_0h00/ap/bootloader/lib/libdriver.a(plat_config.o)
g_rndis_reset_cnt                                 ../../../../../../../PLAT/prebuild/PLAT/lib/gcc/libusbbl_priv.a(function_rndis.o)
g_setup_packet                                    ../../../../../../../PLAT/prebuild/PLAT/lib/gcc/libusbbl_priv.a(usbc_ctrl.o)
                                                  ../../../../../../../PLAT/prebuild/PLAT/lib/gcc/libusbbl_priv.a(usbpcd_proc_api.o)
                                                  ../../../../../../../PLAT/prebuild/PLAT/lib/gcc/libusbbl_priv.a(usbc_int.o)
g_timerValues                                     ../../../../../../../PLAT/prebuild/PLAT/lib/gcc/libosa.a(osasys.o)
g_timerValuesRam                                  ../../../../../../../PLAT/prebuild/PLAT/lib/gcc/libosa.a(osasys.o)
g_timerValuesRamReadFlag                          ../../../../../../../PLAT/prebuild/PLAT/lib/gcc/libosa.a(osasys.o)
g_timerValuesRead                                 ../../../../../../../PLAT/prebuild/PLAT/lib/gcc/libosa.a(osasys.o)
g_usbd_glb_info                                   ../../../../../../../PLAT/prebuild/PLAT/lib/gcc/libusbbl_priv.a(usbd_funclib.o)
getAPReservedMem                                  ../../../../../../../PLAT/prebuild/PLAT/lib/gcc/libdriver_private_bl.a(shareinfo.o)
get_cfg_max_power                                 ../../../../../../../PLAT/prebuild/PLAT/lib/gcc/libusbbl_priv.a(usbd_proc_cb_lib.o)
                                                  ../../../../../../../PLAT/prebuild/PLAT/lib/gcc/libusbbl_priv.a(usbd_multi.o)
get_cfg_remote_wkup_bit                           ../../../../../../../PLAT/prebuild/PLAT/lib/gcc/libusbbl_priv.a(usbd_proc_cb_lib.o)
                                                  ../../../../../../../PLAT/prebuild/PLAT/lib/gcc/libusbbl_priv.a(usbpcd_proc_api.o)
                                                  ../../../../../../../PLAT/prebuild/PLAT/lib/gcc/libusbbl_priv.a(usbd_multi.o)
get_cfg_self_powered_bit                          ../../../../../../../PLAT/prebuild/PLAT/lib/gcc/libusbbl_priv.a(usbd_proc_cb_lib.o)
                                                  ../../../../../../../PLAT/prebuild/PLAT/lib/gcc/libusbbl_priv.a(usbd_multi.o)
get_cfg_str_desc                                  ../../../../../../../PLAT/prebuild/PLAT/lib/gcc/libusbbl_priv.a(usbd_proc_cb_lib.o)
get_dev_descriptor                                ../../../../../../../PLAT/prebuild/PLAT/lib/gcc/libusbbl_priv.a(usbd_proc_cb_lib.o)
get_ecm_func_cfginfo                              ../../../../../../../PLAT/prebuild/PLAT/lib/gcc/libusbbl_priv.a(function_ecm.o)
get_ecm_func_clstype                              ../../../../../../../PLAT/prebuild/PLAT/lib/gcc/libusbbl_priv.a(function_ecm.o)
get_ecm_func_desc_othcfg_ptr                      ../../../../../../../PLAT/prebuild/PLAT/lib/gcc/libusbbl_priv.a(function_ecm.o)
get_ecm_func_desc_othcfg_size                     ../../../../../../../PLAT/prebuild/PLAT/lib/gcc/libusbbl_priv.a(function_ecm.o)
get_ecm_func_desc_ptr                             ../../../../../../../PLAT/prebuild/PLAT/lib/gcc/libusbbl_priv.a(function_ecm.o)
get_ecm_func_desc_size                            ../../../../../../../PLAT/prebuild/PLAT/lib/gcc/libusbbl_priv.a(function_ecm.o)
get_ecm_func_inst_trans                           ../../../../../../../PLAT/prebuild/PLAT/lib/gcc/libusbbl_priv.a(function_ecm.o)
get_ecm_func_intf_num                             ../../../../../../../PLAT/prebuild/PLAT/lib/gcc/libusbbl_priv.a(function_ecm.o)
get_eth_ecm0_handler                              ../../../../../../../PLAT/prebuild/PLAT/lib/gcc/libusbbl_priv.a(device_ecm.o)
get_eth_rndis0_handler                            ../../../../../../../PLAT/prebuild/PLAT/lib/gcc/libusbbl_priv.a(device_rndis.o)
get_intf_str_desc                                 ../../../../../../../PLAT/prebuild/PLAT/lib/gcc/libusbbl_priv.a(usbd_proc_cb_lib.o)
get_lang_id_desc                                  ../../../../../../../PLAT/prebuild/PLAT/lib/gcc/libusbbl_priv.a(usbd_proc_cb_lib.o)
get_manufacture_str_desc                          ../../../../../../../PLAT/prebuild/PLAT/lib/gcc/libusbbl_priv.a(usbd_proc_cb_lib.o)
get_misc_str_desc                                 ../../../../../../../PLAT/prebuild/PLAT/lib/gcc/libusbbl_priv.a(usbd_proc_cb_lib.o)
get_product_str_desc                              ../../../../../../../PLAT/prebuild/PLAT/lib/gcc/libusbbl_priv.a(usbd_proc_cb_lib.o)
get_qulifier_desc                                 ../../../../../../../PLAT/prebuild/PLAT/lib/gcc/libusbbl_priv.a(usbd_proc_cb_lib.o)
get_rndis_func_cfginfo                            ../../../../../../../PLAT/prebuild/PLAT/lib/gcc/libusbbl_priv.a(function_rndis.o)
get_rndis_func_clstype                            ../../../../../../../PLAT/prebuild/PLAT/lib/gcc/libusbbl_priv.a(function_rndis.o)
get_rndis_func_desc_othcfg_ptr                    ../../../../../../../PLAT/prebuild/PLAT/lib/gcc/libusbbl_priv.a(function_rndis.o)
get_rndis_func_desc_othcfg_size                   ../../../../../../../PLAT/prebuild/PLAT/lib/gcc/libusbbl_priv.a(function_rndis.o)
get_rndis_func_desc_ptr                           ../../../../../../../PLAT/prebuild/PLAT/lib/gcc/libusbbl_priv.a(function_rndis.o)
get_rndis_func_desc_size                          ../../../../../../../PLAT/prebuild/PLAT/lib/gcc/libusbbl_priv.a(function_rndis.o)
get_rndis_func_inst_trans                         ../../../../../../../PLAT/prebuild/PLAT/lib/gcc/libusbbl_priv.a(function_rndis.o)
get_rndis_func_intf_num                           ../../../../../../../PLAT/prebuild/PLAT/lib/gcc/libusbbl_priv.a(function_rndis.o)
get_rndis_func_notifyok_cnt                       ../../../../../../../PLAT/prebuild/PLAT/lib/gcc/libusbbl_priv.a(function_rndis.o)
get_ser_str_desc                                  ../../../../../../../PLAT/prebuild/PLAT/lib/gcc/libusbbl_priv.a(usbd_proc_cb_lib.o)
get_serial_vcom0_handler                          ../../../../../../../PLAT/prebuild/PLAT/lib/gcc/libusbbl_priv.a(device_vcom.o)
get_udev_desc_cb_ops                              ../../../../../../../PLAT/prebuild/PLAT/lib/gcc/libusbbl_priv.a(usbd_proc_cb_lib.o)
                                                  ../../../../../../../PLAT/prebuild/PLAT/lib/gcc/libusbbl_priv.a(usbpcd_proc.o)
get_udev_notify_cb_ops                            ../../../../../../../PLAT/prebuild/PLAT/lib/gcc/libusbbl_priv.a(usbd_proc_cb_lib.o)
                                                  ../../../../../../../PLAT/prebuild/PLAT/lib/gcc/libusbbl_priv.a(usbpcd_proc.o)
get_vcom_func_inst_trans                          ../../../../../../../PLAT/prebuild/PLAT/lib/gcc/libusbbl_priv.a(function_vcom_tpl.o)
get_vcom_tplfunc_cfginfo                          ../../../../../../../PLAT/prebuild/PLAT/lib/gcc/libusbbl_priv.a(function_vcom_tpl.o)
get_vcom_tplfunc_clstype                          ../../../../../../../PLAT/prebuild/PLAT/lib/gcc/libusbbl_priv.a(function_vcom_tpl.o)
get_vcom_tplfunc_desc_othcfg_ptr                  ../../../../../../../PLAT/prebuild/PLAT/lib/gcc/libusbbl_priv.a(function_vcom_tpl.o)
get_vcom_tplfunc_desc_othcfg_size                 ../../../../../../../PLAT/prebuild/PLAT/lib/gcc/libusbbl_priv.a(function_vcom_tpl.o)
get_vcom_tplfunc_desc_ptr                         ../../../../../../../PLAT/prebuild/PLAT/lib/gcc/libusbbl_priv.a(function_vcom_tpl.o)
get_vcom_tplfunc_desc_size                        ../../../../../../../PLAT/prebuild/PLAT/lib/gcc/libusbbl_priv.a(function_vcom_tpl.o)
get_vcom_tplfunc_intf_num                         ../../../../../../../PLAT/prebuild/PLAT/lib/gcc/libusbbl_priv.a(function_vcom_tpl.o)
gmtime_ec                                         ../../../../../../../PLAT/prebuild/PLAT/lib/gcc/libosa.a(osatime.o)
                                                  ../../../../../../../PLAT/prebuild/PLAT/lib/gcc/libosa.a(osasys.o)
hCpXIP                                            ../../../../../../../PLAT/prebuild/PLAT/lib/gcc/libdriver_private_bl.a(cpxip.o)
halPhyRestoreDcxoFTBuf                            ../../../../../../../PLAT/prebuild/PLAT/lib/gcc/libdriver_private_bl.a(shareinfo.o)
hardware_init_hook                                e:/work/meig/ec618/ec618_sdk_rel_sdk/plat/tools/gcc/bin/../lib/gcc/arm-none-eabi/10.2.1/../../../../arm-none-eabi/lib/thumb/v7-m/nofp/crt0.o
hibTimerAdd                                       ../../../../../../../PLAT/prebuild/PLAT/lib/gcc/libosa.a(osasys.o)
hibTimerCheckValid                                ../../../../../../../PLAT/prebuild/PLAT/lib/gcc/libosa.a(osasys.o)
hibTimerDelete                                    ../../../../../../../PLAT/prebuild/PLAT/lib/gcc/libosa.a(osasys.o)
hibTimerGetHandle                                 ../../../../../../../PLAT/prebuild/PLAT/lib/gcc/libosa.a(osasys.o)
hibTimerGlobalCntGet6P25HZ                        ../../../../../../../PLAT/prebuild/PLAT/lib/gcc/libosa.a(osasys.o)
hibTimerReplace                                   ../../../../../../../PLAT/prebuild/PLAT/lib/gcc/libosa.a(osasys.o)
hibresetcnt                                       ../../../../../../../PLAT/prebuild/PLAT/lib/gcc/libusbbl_priv.a(usbc_int.o)
hibresumecnt                                      ../../../../../../../PLAT/prebuild/PLAT/lib/gcc/libusbbl_priv.a(usbc_int.o)
hibwkgpwrdn                                       ../../../../../../../PLAT/prebuild/PLAT/lib/gcc/libusbbl_priv.a(usbc_int.o)
hqspi                                             ../../../../../../../PLAT/prebuild/PLAT/lib/gcc/libdriver_private_bl.a(qspi.o)
i2s0DmaRxDesc                                     ../../../../../../../PLAT/gccout/ec618_0h00/ap/bootloader/lib/libdriver.a(i2s.o)
i2s0DmaRxEvent                                    ../../../../../../../PLAT/gccout/ec618_0h00/ap/bootloader/lib/libdriver.a(i2s.o)
i2s0DmaTxDesc                                     ../../../../../../../PLAT/gccout/ec618_0h00/ap/bootloader/lib/libdriver.a(i2s.o)
i2s0DmaTxEvent                                    ../../../../../../../PLAT/gccout/ec618_0h00/ap/bootloader/lib/libdriver.a(i2s.o)
i2s0GetTotalCnt                                   ../../../../../../../PLAT/gccout/ec618_0h00/ap/bootloader/lib/libdriver.a(i2s.o)
i2sBclkFsCtrl                                     ../../../../../../../PLAT/gccout/ec618_0h00/ap/bootloader/lib/libdriver.a(i2s.o)
                                                  ../../../../../../../PLAT/gccout/ec618_0h00/ap/bootloader/lib/libdriver.a(hal_i2s.o)
i2sControl                                        ../../../../../../../PLAT/gccout/ec618_0h00/ap/bootloader/lib/libdriver.a(i2s.o)
i2sCtrl                                           ../../../../../../../PLAT/gccout/ec618_0h00/ap/bootloader/lib/libdriver.a(i2s.o)
                                                  ../../../../../../../PLAT/gccout/ec618_0h00/ap/bootloader/lib/libdriver.a(hal_i2s.o)
i2sDataFmt                                        ../../../../../../../PLAT/gccout/ec618_0h00/ap/bootloader/lib/libdriver.a(i2s.o)
                                                  ../../../../../../../PLAT/gccout/ec618_0h00/ap/bootloader/lib/libdriver.a(hal_i2s.o)
i2sDeInit                                         ../../../../../../../PLAT/gccout/ec618_0h00/ap/bootloader/lib/libdriver.a(i2s.o)
i2sDmaCtrl                                        ../../../../../../../PLAT/gccout/ec618_0h00/ap/bootloader/lib/libdriver.a(i2s.o)
                                                  ../../../../../../../PLAT/gccout/ec618_0h00/ap/bootloader/lib/libdriver.a(hal_i2s.o)
i2sDmaRxEvent                                     ../../../../../../../PLAT/gccout/ec618_0h00/ap/bootloader/lib/libdriver.a(i2s.o)
i2sDmaTxEvent                                     ../../../../../../../PLAT/gccout/ec618_0h00/ap/bootloader/lib/libdriver.a(i2s.o)
i2sDrvInterface0                                  ../../../../../../../PLAT/gccout/ec618_0h00/ap/bootloader/lib/libdriver.a(i2s.o)
                                                  ../../../../../../../PLAT/gccout/ec618_0h00/ap/bootloader/lib/libdriver.a(hal_i2s.o)
i2sGetTotalCnt                                    ../../../../../../../PLAT/gccout/ec618_0h00/ap/bootloader/lib/libdriver.a(i2s.o)
i2sInit                                           ../../../../../../../PLAT/gccout/ec618_0h00/ap/bootloader/lib/libdriver.a(i2s.o)
i2sPowerCtrl                                      ../../../../../../../PLAT/gccout/ec618_0h00/ap/bootloader/lib/libdriver.a(i2s.o)
i2sRecv                                           ../../../../../../../PLAT/gccout/ec618_0h00/ap/bootloader/lib/libdriver.a(i2s.o)
i2sSampleRateTbl                                  ../../../../../../../PLAT/gccout/ec618_0h00/ap/bootloader/lib/libdriver.a(i2s.o)
i2sSend                                           ../../../../../../../PLAT/gccout/ec618_0h00/ap/bootloader/lib/libdriver.a(i2s.o)
i2sSlotCtrl                                       ../../../../../../../PLAT/gccout/ec618_0h00/ap/bootloader/lib/libdriver.a(i2s.o)
                                                  ../../../../../../../PLAT/gccout/ec618_0h00/ap/bootloader/lib/libdriver.a(hal_i2s.o)
io_getchar                                        ../../../../../../../PLAT/prebuild/PLAT/lib/gcc/libbootloader.a(bl_bsp.o)
io_putchar                                        ../../../../../../../PLAT/prebuild/PLAT/lib/gcc/libbootloader.a(bl_bsp.o)
                                                  ../../../../../../../PLAT/gccout/ec618_0h00/ap/bootloader/lib/libstartup.a(syscalls.o)
iprintf                                           e:/work/meig/ec618/ec618_sdk_rel_sdk/plat/tools/gcc/bin/../lib/gcc/arm-none-eabi/10.2.1/../../../../arm-none-eabi/lib/thumb/v7-m/nofp\libc_nano.a(lib_a-printf.o)
irqNo                                             ../../../../../../../PLAT/gccout/ec618_0h00/ap/bootloader/lib/libdriver.a(oneWire.o)
logToolCommandHandle                              ../../../../../../../PLAT/prebuild/PLAT/lib/gcc/libccio.a(serial_entity.o)
lwip_bind_cid                                     ../../../../../../../PLAT/prebuild/PLAT/lib/gcc/libmiddleware_ec_private.a(simbip.o)
lwip_close                                        ../../../../../../../PLAT/prebuild/PLAT/lib/gcc/libmiddleware_ec_private.a(simbip.o)
lwip_connect                                      ../../../../../../../PLAT/prebuild/PLAT/lib/gcc/libmiddleware_ec_private.a(simbip.o)
lwip_htons                                        ../../../../../../../PLAT/prebuild/PLAT/lib/gcc/libmiddleware_ec_private.a(simbip.o)
lwip_recv                                         ../../../../../../../PLAT/prebuild/PLAT/lib/gcc/libmiddleware_ec_private.a(simbip.o)
lwip_select                                       ../../../../../../../PLAT/prebuild/PLAT/lib/gcc/libmiddleware_ec_private.a(simbip.o)
lwip_send                                         ../../../../../../../PLAT/prebuild/PLAT/lib/gcc/libmiddleware_ec_private.a(simbip.o)
lwip_setsockopt                                   ../../../../../../../PLAT/prebuild/PLAT/lib/gcc/libmiddleware_ec_private.a(simbip.o)
lwip_socket                                       ../../../../../../../PLAT/prebuild/PLAT/lib/gcc/libmiddleware_ec_private.a(simbip.o)
mDelay                                            ../../../../../../../PLAT/gccout/ec618_0h00/ap/bootloader/PLAT/project/ec618_0h00/ap/apps/bootloader/code/main/ec_main.o
main                                              e:/work/meig/ec618/ec618_sdk_rel_sdk/plat/tools/gcc/bin/../lib/gcc/arm-none-eabi/10.2.1/../../../../arm-none-eabi/lib/thumb/v7-m/nofp/crt0.o
malloc                                            e:/work/meig/ec618/ec618_sdk_rel_sdk/plat/tools/gcc/bin/../lib/gcc/arm-none-eabi/10.2.1/../../../../arm-none-eabi/lib/thumb/v7-m/nofp\libc_nano.a(lib_a-malloc.o)
                                                  e:/work/meig/ec618/ec618_sdk_rel_sdk/plat/tools/gcc/bin/../lib/gcc/arm-none-eabi/10.2.1/../../../../arm-none-eabi/lib/thumb/v7-m/nofp\libc_nano.a(lib_a-setvbuf.o)
                                                  e:/work/meig/ec618/ec618_sdk_rel_sdk/plat/tools/gcc/bin/../lib/gcc/arm-none-eabi/10.2.1/../../../../arm-none-eabi/lib/thumb/v7-m/nofp\libc_nano.a(lib_a-rand.o)
                                                  ../../../../../../../PLAT/prebuild/PLAT/lib/gcc/libusbbl_priv.a(function_rndis.o)
                                                  ../../../../../../../PLAT/prebuild/PLAT/lib/gcc/libusbbl_priv.a(function_ecm.o)
                                                  ../../../../../../../PLAT/prebuild/PLAT/lib/gcc/libusbbl_priv.a(function_vcom_tpl.o)
                                                  ../../../../../../../PLAT/prebuild/PLAT/lib/gcc/libusbbl_priv.a(device_vcom.o)
                                                  ../../../../../../../PLAT/prebuild/PLAT/lib/gcc/libdeltapatch.a(patch_main.o)
                                                  ../../../../../../../PLAT/prebuild/PLAT/lib/gcc/libdeltapatch.a(bzlib.o)
                                                  ../../../../../../../PLAT/prebuild/PLAT/lib/gcc/libccio.a(serial_entity.o)
                                                  ../../../../../../../PLAT/gccout/ec618_0h00/ap/bootloader/PLAT/middleware/developed/fota/custom/src/fota_mem.o
match_epinfo_bitmap                               ../../../../../../../PLAT/prebuild/PLAT/lib/gcc/libusbbl_priv.a(usbd_funclib.o)
mbedtls_internal_sha256_process                   ../../../../../../../PLAT/prebuild/PLAT/lib/gcc/libbootloader.a(sha256.o)
mbedtls_sha256                                    ../../../../../../../PLAT/prebuild/PLAT/lib/gcc/libbootloader.a(sha256.o)
mbedtls_sha256_clone                              ../../../../../../../PLAT/prebuild/PLAT/lib/gcc/libbootloader.a(sha256.o)
mbedtls_sha256_finish                             ../../../../../../../PLAT/prebuild/PLAT/lib/gcc/libbootloader.a(sha256.o)
mbedtls_sha256_finish_ret                         ../../../../../../../PLAT/prebuild/PLAT/lib/gcc/libbootloader.a(sha256.o)
                                                  ../../../../../../../PLAT/prebuild/PLAT/lib/gcc/libbootloader.a(hash.o)
                                                  ../../../../../../../PLAT/gccout/ec618_0h00/ap/bootloader/PLAT/middleware/developed/fota/custom/src/fota_chksum.o
mbedtls_sha256_free                               ../../../../../../../PLAT/prebuild/PLAT/lib/gcc/libbootloader.a(sha256.o)
mbedtls_sha256_init                               ../../../../../../../PLAT/prebuild/PLAT/lib/gcc/libbootloader.a(sha256.o)
                                                  ../../../../../../../PLAT/prebuild/PLAT/lib/gcc/libbootloader.a(hash.o)
                                                  ../../../../../../../PLAT/gccout/ec618_0h00/ap/bootloader/PLAT/middleware/developed/fota/custom/src/fota_chksum.o
mbedtls_sha256_process                            ../../../../../../../PLAT/prebuild/PLAT/lib/gcc/libbootloader.a(sha256.o)
mbedtls_sha256_ret                                ../../../../../../../PLAT/prebuild/PLAT/lib/gcc/libbootloader.a(sha256.o)
mbedtls_sha256_starts                             ../../../../../../../PLAT/prebuild/PLAT/lib/gcc/libbootloader.a(sha256.o)
mbedtls_sha256_starts_ret                         ../../../../../../../PLAT/prebuild/PLAT/lib/gcc/libbootloader.a(sha256.o)
                                                  ../../../../../../../PLAT/prebuild/PLAT/lib/gcc/libbootloader.a(hash.o)
                                                  ../../../../../../../PLAT/gccout/ec618_0h00/ap/bootloader/PLAT/middleware/developed/fota/custom/src/fota_chksum.o
mbedtls_sha256_update                             ../../../../../../../PLAT/prebuild/PLAT/lib/gcc/libbootloader.a(sha256.o)
mbedtls_sha256_update_ret                         ../../../../../../../PLAT/prebuild/PLAT/lib/gcc/libbootloader.a(sha256.o)
                                                  ../../../../../../../PLAT/prebuild/PLAT/lib/gcc/libbootloader.a(hash.o)
                                                  ../../../../../../../PLAT/gccout/ec618_0h00/ap/bootloader/PLAT/middleware/developed/fota/custom/src/fota_chksum.o
mcuModeInit                                       ../../../../../../../PLAT/prebuild/PLAT/lib/gcc/libosa.a(ostask.o)
memchr                                            e:/work/meig/ec618/ec618_sdk_rel_sdk/plat/tools/gcc/bin/../lib/gcc/arm-none-eabi/10.2.1/../../../../arm-none-eabi/lib/thumb/v7-m/nofp\libc_nano.a(lib_a-memchr-stub.o)
                                                  e:/work/meig/ec618/ec618_sdk_rel_sdk/plat/tools/gcc/bin/../lib/gcc/arm-none-eabi/10.2.1/../../../../arm-none-eabi/lib/thumb/v7-m/nofp\libc_nano.a(lib_a-nano-vfscanf_i.o)
                                                  e:/work/meig/ec618/ec618_sdk_rel_sdk/plat/tools/gcc/bin/../lib/gcc/arm-none-eabi/10.2.1/../../../../arm-none-eabi/lib/thumb/v7-m/nofp\libc_nano.a(lib_a-nano-svfscanf.o)
                                                  e:/work/meig/ec618/ec618_sdk_rel_sdk/plat/tools/gcc/bin/../lib/gcc/arm-none-eabi/10.2.1/../../../../arm-none-eabi/lib/thumb/v7-m/nofp\libc_nano.a(lib_a-nano-svfprintf.o)
                                                  e:/work/meig/ec618/ec618_sdk_rel_sdk/plat/tools/gcc/bin/../lib/gcc/arm-none-eabi/10.2.1/../../../../arm-none-eabi/lib/thumb/v7-m/nofp\libc_nano.a(lib_a-fvwrite.o)
                                                  e:/work/meig/ec618/ec618_sdk_rel_sdk/plat/tools/gcc/bin/../lib/gcc/arm-none-eabi/10.2.1/../../../../arm-none-eabi/lib/thumb/v7-m/nofp\libc_nano.a(lib_a-nano-vfprintf_i.o)
                                                  e:/work/meig/ec618/ec618_sdk_rel_sdk/plat/tools/gcc/bin/../lib/gcc/arm-none-eabi/10.2.1/../../../../arm-none-eabi/lib/thumb/v7-m/nofp\libc_nano.a(lib_a-nano-vfprintf.o)
memcmp                                            e:/work/meig/ec618/ec618_sdk_rel_sdk/plat/tools/gcc/bin/../lib/gcc/arm-none-eabi/10.2.1/../../../../arm-none-eabi/lib/thumb/v7-m/nofp\libc_nano.a(lib_a-memcmp.o)
                                                  ../../../../../../../PLAT/prebuild/PLAT/lib/gcc/libfota.a(fota_parchive.o)
                                                  ../../../../../../../PLAT/prebuild/PLAT/lib/gcc/libfota.a(fota_man.o)
                                                  ../../../../../../../PLAT/prebuild/PLAT/lib/gcc/libdeltapatch.a(patch_main.o)
                                                  ../../../../../../../PLAT/prebuild/PLAT/lib/gcc/libbootloader.a(image.o)
                                                  ../../../../../../../PLAT/gccout/ec618_0h00/ap/bootloader/PLAT/middleware/developed/fota/custom/src/fota_nvm.o
memcpy                                            ../../../../../../../PLAT/gccout/ec618_0h00/ap/bootloader/lib/libdriver.a(memcpy-armv7m.o)
                                                  e:/work/meig/ec618/ec618_sdk_rel_sdk/plat/tools/gcc/bin/../lib/gcc/arm-none-eabi/10.2.1/../../../../arm-none-eabi/lib/thumb/v7-m/nofp\libc_nano.a(lib_a-ungetc.o)
                                                  e:/work/meig/ec618/ec618_sdk_rel_sdk/plat/tools/gcc/bin/../lib/gcc/arm-none-eabi/10.2.1/../../../../arm-none-eabi/lib/thumb/v7-m/nofp\libc_nano.a(lib_a-nano-svfprintf.o)
                                                  e:/work/meig/ec618/ec618_sdk_rel_sdk/plat/tools/gcc/bin/../lib/gcc/arm-none-eabi/10.2.1/../../../../arm-none-eabi/lib/thumb/v7-m/nofp\libc_nano.a(lib_a-nano-reallocr.o)
                                                  e:/work/meig/ec618/ec618_sdk_rel_sdk/plat/tools/gcc/bin/../lib/gcc/arm-none-eabi/10.2.1/../../../../arm-none-eabi/lib/thumb/v7-m/nofp\libc_nano.a(lib_a-fvwrite.o)
                                                  ../../../../../../../PLAT/prebuild/PLAT/lib/gcc/libusbbl_priv.a(function_vcom_tpl.o)
                                                  ../../../../../../../PLAT/prebuild/PLAT/lib/gcc/libusbbl_priv.a(lib_rbuf.o)
                                                  ../../../../../../../PLAT/prebuild/PLAT/lib/gcc/libusbbl_priv.a(usbd_multi.o)
                                                  ../../../../../../../PLAT/prebuild/PLAT/lib/gcc/libdriver_private_bl.a(flash.o)
                                                  ../../../../../../../PLAT/prebuild/PLAT/lib/gcc/libdriver_private_bl.a(efuse.o)
                                                  ../../../../../../../PLAT/prebuild/PLAT/lib/gcc/libdriver_private_bl.a(cpxip.o)
                                                  ../../../../../../../PLAT/prebuild/PLAT/lib/gcc/libdriver_private_bl.a(acmsgtype.o)
                                                  ../../../../../../../PLAT/prebuild/PLAT/lib/gcc/libfota.a(fota_man.o)
                                                  ../../../../../../../PLAT/prebuild/PLAT/lib/gcc/libdeltapatch.a(fakefs.o)
                                                  ../../../../../../../PLAT/prebuild/PLAT/lib/gcc/libdeltapatch.a(decompress.o)
                                                  ../../../../../../../PLAT/prebuild/PLAT/lib/gcc/libccio.a(serial_entity.o)
                                                  ../../../../../../../PLAT/prebuild/PLAT/lib/gcc/libmiddleware_ec_private.a(psstk_bip.o)
                                                  ../../../../../../../PLAT/prebuild/PLAT/lib/gcc/libosa.a(osacfgnvm.o)
                                                  ../../../../../../../PLAT/prebuild/PLAT/lib/gcc/libosa.a(osanvm.o)
                                                  ../../../../../../../PLAT/prebuild/PLAT/lib/gcc/libosa.a(asn1util.o)
                                                  ../../../../../../../PLAT/prebuild/PLAT/lib/gcc/libosa.a(osasys.o)
                                                  ../../../../../../../PLAT/prebuild/PLAT/lib/gcc/libbootloader.a(sha256.o)
                                                  ../../../../../../../PLAT/prebuild/PLAT/lib/gcc/libbootloader.a(uECC.o)
                                                  ../../../../../../../PLAT/prebuild/PLAT/lib/gcc/libbootloader.a(image.o)
                                                  ../../../../../../../PLAT/gccout/ec618_0h00/ap/bootloader/lib/libdriver.a(function_vcom_custp2.o)
                                                  ../../../../../../../PLAT/gccout/ec618_0h00/ap/bootloader/lib/libdriver.a(function_vcom_custp1.o)
                                                  ../../../../../../../PLAT/gccout/ec618_0h00/ap/bootloader/lib/libdriver.a(function_vcom_inherent.o)
                                                  ../../../../../../../PLAT/gccout/ec618_0h00/ap/bootloader/lib/libdriver.a(rndis_protocol.o)
                                                  ../../../../../../../PLAT/gccout/ec618_0h00/ap/bootloader/lib/libdriver.a(usb_bl_test.o)
memmove                                           e:/work/meig/ec618/ec618_sdk_rel_sdk/plat/tools/gcc/bin/../lib/gcc/arm-none-eabi/10.2.1/../../../../arm-none-eabi/lib/thumb/v7-m/nofp\libc_nano.a(lib_a-memmove.o)
                                                  e:/work/meig/ec618/ec618_sdk_rel_sdk/plat/tools/gcc/bin/../lib/gcc/arm-none-eabi/10.2.1/../../../../arm-none-eabi/lib/thumb/v7-m/nofp\libc_nano.a(lib_a-nano-svfprintf.o)
                                                  e:/work/meig/ec618/ec618_sdk_rel_sdk/plat/tools/gcc/bin/../lib/gcc/arm-none-eabi/10.2.1/../../../../arm-none-eabi/lib/thumb/v7-m/nofp\libc_nano.a(lib_a-fvwrite.o)
                                                  ../../../../../../../PLAT/prebuild/PLAT/lib/gcc/libdeltapatch.a(decompress.o)
                                                  ../../../../../../../PLAT/prebuild/PLAT/lib/gcc/libosa.a(osacfgnvm.o)
                                                  ../../../../../../../PLAT/prebuild/PLAT/lib/gcc/libbootloader.a(uECC.o)
memset                                            e:/work/meig/ec618/ec618_sdk_rel_sdk/plat/tools/gcc/bin/../lib/gcc/arm-none-eabi/10.2.1/../../../../arm-none-eabi/lib/thumb/v7-m/nofp\libc_nano.a(lib_a-memset.o)
                                                  e:/work/meig/ec618/ec618_sdk_rel_sdk/plat/tools/gcc/bin/../lib/gcc/arm-none-eabi/10.2.1/../../../../arm-none-eabi/lib/thumb/v7-m/nofp\libc_nano.a(lib_a-findfp.o)
                                                  ../../../../../../../PLAT/prebuild/PLAT/lib/gcc/libusbbl_priv.a(usbc_bsp.o)
                                                  ../../../../../../../PLAT/prebuild/PLAT/lib/gcc/libusbbl_priv.a(function_rndis.o)
                                                  ../../../../../../../PLAT/prebuild/PLAT/lib/gcc/libusbbl_priv.a(function_ecm.o)
                                                  ../../../../../../../PLAT/prebuild/PLAT/lib/gcc/libusbbl_priv.a(function_vcom_tpl.o)
                                                  ../../../../../../../PLAT/prebuild/PLAT/lib/gcc/libusbbl_priv.a(device_ecm.o)
                                                  ../../../../../../../PLAT/prebuild/PLAT/lib/gcc/libusbbl_priv.a(device_rndis.o)
                                                  ../../../../../../../PLAT/prebuild/PLAT/lib/gcc/libusbbl_priv.a(device_vcom.o)
                                                  ../../../../../../../PLAT/prebuild/PLAT/lib/gcc/libusbbl_priv.a(usbd_funclib.o)
                                                  ../../../../../../../PLAT/prebuild/PLAT/lib/gcc/libdriver_private_bl.a(shareinfo.o)
                                                  ../../../../../../../PLAT/prebuild/PLAT/lib/gcc/libdriver_private_bl.a(tls.o)
                                                  ../../../../../../../PLAT/prebuild/PLAT/lib/gcc/libdriver_private_bl.a(uart.o)
                                                  ../../../../../../../PLAT/prebuild/PLAT/lib/gcc/libfota.a(fota_parchive.o)
                                                  ../../../../../../../PLAT/prebuild/PLAT/lib/gcc/libfota.a(fota_man.o)
                                                  ../../../../../../../PLAT/prebuild/PLAT/lib/gcc/libdeltapatch.a(patch_main.o)
                                                  ../../../../../../../PLAT/prebuild/PLAT/lib/gcc/libdeltapatch.a(huffman.o)
                                                  ../../../../../../../PLAT/prebuild/PLAT/lib/gcc/libdeltapatch.a(decompress.o)
                                                  ../../../../../../../PLAT/prebuild/PLAT/lib/gcc/libdeltapatch.a(bzlib.o)
                                                  ../../../../../../../PLAT/prebuild/PLAT/lib/gcc/libccio.a(ccio_entity.o)
                                                  ../../../../../../../PLAT/prebuild/PLAT/lib/gcc/libccio.a(ccio_rbuf.o)
                                                  ../../../../../../../PLAT/prebuild/PLAT/lib/gcc/libccio.a(ccio_tfc.o)
                                                  ../../../../../../../PLAT/prebuild/PLAT/lib/gcc/libccio.a(serial_entity.o)
                                                  ../../../../../../../PLAT/prebuild/PLAT/lib/gcc/libccio.a(ecm_entity.o)
                                                  ../../../../../../../PLAT/prebuild/PLAT/lib/gcc/libccio.a(eutra_entity.o)
                                                  ../../../../../../../PLAT/prebuild/PLAT/lib/gcc/libccio.a(rndis_entity.o)
                                                  ../../../../../../../PLAT/prebuild/PLAT/lib/gcc/libmiddleware_ec_private.a(simbip.o)
                                                  ../../../../../../../PLAT/prebuild/PLAT/lib/gcc/libmiddleware_ec_private.a(psstk_bip.o)
                                                  ../../../../../../../PLAT/prebuild/PLAT/lib/gcc/libosa.a(ostask.o)
                                                  ../../../../../../../PLAT/prebuild/PLAT/lib/gcc/libosa.a(osasig.o)
                                                  ../../../../../../../PLAT/prebuild/PLAT/lib/gcc/libosa.a(osanvm.o)
                                                  ../../../../../../../PLAT/prebuild/PLAT/lib/gcc/libosa.a(asn1util.o)
                                                  ../../../../../../../PLAT/prebuild/PLAT/lib/gcc/libosa.a(osasys.o)
                                                  ../../../../../../../PLAT/prebuild/PLAT/lib/gcc/libbootloader.a(bl_bsp.o)
                                                  ../../../../../../../PLAT/prebuild/PLAT/lib/gcc/libbootloader.a(sha256.o)
                                                  ../../../../../../../PLAT/prebuild/PLAT/lib/gcc/libbootloader.a(uECC.o)
                                                  ../../../../../../../PLAT/prebuild/PLAT/lib/gcc/libbootloader.a(image.o)
                                                  ../../../../../../../PLAT/gccout/ec618_0h00/ap/bootloader/lib/libdriver.a(usb_bl_test.o)
                                                  ../../../../../../../PLAT/gccout/ec618_0h00/ap/bootloader/lib/libdriver.a(i2s.o)
                                                  ../../../../../../../PLAT/gccout/ec618_0h00/ap/bootloader/lib/libdriver.a(plat_config.o)
                                                  ../../../../../../../PLAT/gccout/ec618_0h00/ap/bootloader/PLAT/middleware/developed/fota/custom/src/fota_nvm.o
                                                  ../../../../../../../PLAT/gccout/ec618_0h00/ap/bootloader/PLAT/middleware/developed/fota/custom/src/fota_utils.o
                                                  e:/work/meig/ec618/ec618_sdk_rel_sdk/plat/tools/gcc/bin/../lib/gcc/arm-none-eabi/10.2.1/../../../../arm-none-eabi/lib/thumb/v7-m/nofp/crt0.o
middleware_init                                   ../../../../../../../PLAT/prebuild/PLAT/lib/gcc/libosa.a(ostask.o)
mktime                                            e:/work/meig/ec618/ec618_sdk_rel_sdk/plat/tools/gcc/bin/../lib/gcc/arm-none-eabi/10.2.1/../../../../arm-none-eabi/lib/thumb/v7-m/nofp\libc_nano.a(lib_a-mktime.o)
                                                  ../../../../../../../PLAT/prebuild/PLAT/lib/gcc/libosa.a(osasys.o)
multidev_vcom_ext_msg                             ../../../../../../../PLAT/prebuild/PLAT/lib/gcc/libusbbl_priv.a(device_vcom.o)
                                                  ../../../../../../../PLAT/prebuild/PLAT/lib/gcc/libusbbl_priv.a(usbd_multi_usrcfg_lib.o)
mwAonBeUtcTimeSync                                ../../../../../../../PLAT/prebuild/PLAT/lib/gcc/libosa.a(osasys.o)
mwNvmInfoGetPhyDebugAtCmdInfo                     ../../../../../../../PLAT/prebuild/PLAT/lib/gcc/libdriver_private_bl.a(shareinfo.o)
nau88c22MasterInit                                ../../../../../../../PLAT/gccout/ec618_0h00/ap/bootloader/lib/libdriver.a(nau88c22.o)
                                                  ../../../../../../../PLAT/gccout/ec618_0h00/ap/bootloader/lib/libdriver.a(hal_i2s.o)
nau88c22SlaveInit                                 ../../../../../../../PLAT/gccout/ec618_0h00/ap/bootloader/lib/libdriver.a(nau88c22.o)
                                                  ../../../../../../../PLAT/gccout/ec618_0h00/ap/bootloader/lib/libdriver.a(hal_i2s.o)
ntcGetTemperature                                 ../../../../../../../PLAT/gccout/ec618_0h00/ap/bootloader/lib/libdriver.a(ntc.o)
nvramAfterInit                                    ../../../../../../../PLAT/prebuild/PLAT/lib/gcc/libosa.a(ostask.o)
opaqDataInput                                     ../../../../../../../PLAT/prebuild/PLAT/lib/gcc/libccio.a(serial_entity.o)
osDelay                                           ../../../../../../../PLAT/gccout/ec618_0h00/ap/bootloader/PLAT/project/ec618_0h00/ap/apps/bootloader/code/main/stub_os.o
                                                  ../../../../../../../PLAT/prebuild/PLAT/lib/gcc/libmiddleware_ec_private.a(simbip.o)
                                                  ../../../../../../../PLAT/prebuild/PLAT/lib/gcc/libosa.a(ostask.o)
                                                  ../../../../../../../PLAT/gccout/ec618_0h00/ap/bootloader/PLAT/middleware/developed/fota/custom/src/fota_nvm.o
osIsInISRContext                                  ../../../../../../../PLAT/prebuild/PLAT/lib/gcc/libosa.a(ostask.o)
osKernelGetState                                  ../../../../../../../PLAT/gccout/ec618_0h00/ap/bootloader/PLAT/project/ec618_0h00/ap/apps/bootloader/code/main/stub_os.o
osKernelGetTickCount                              ../../../../../../../PLAT/prebuild/PLAT/lib/gcc/libosa.a(osasys.o)
osMessageQueueDelete                              ../../../../../../../PLAT/prebuild/PLAT/lib/gcc/libmiddleware_ec_private.a(simbip.o)
osMessageQueueGet                                 ../../../../../../../PLAT/prebuild/PLAT/lib/gcc/libmiddleware_ec_private.a(simbip.o)
                                                  ../../../../../../../PLAT/prebuild/PLAT/lib/gcc/libosa.a(osasig.o)
osMessageQueueGetCount                            ../../../../../../../PLAT/prebuild/PLAT/lib/gcc/libosa.a(osasig.o)
osMessageQueueGetSpace                            ../../../../../../../PLAT/prebuild/PLAT/lib/gcc/libosa.a(osasig.o)
osMessageQueueNew                                 ../../../../../../../PLAT/prebuild/PLAT/lib/gcc/libmiddleware_ec_private.a(psstk_bip.o)
                                                  ../../../../../../../PLAT/prebuild/PLAT/lib/gcc/libosa.a(ostask.o)
osMessageQueuePut                                 ../../../../../../../PLAT/prebuild/PLAT/lib/gcc/libmiddleware_ec_private.a(simbip.o)
                                                  ../../../../../../../PLAT/prebuild/PLAT/lib/gcc/libmiddleware_ec_private.a(psstk_bip.o)
                                                  ../../../../../../../PLAT/prebuild/PLAT/lib/gcc/libosa.a(osasig.o)
osMessageQueuePutToFront                          ../../../../../../../PLAT/prebuild/PLAT/lib/gcc/libosa.a(osasig.o)
osSemaphoreAcquire                                ../../../../../../../PLAT/gccout/ec618_0h00/ap/bootloader/PLAT/project/ec618_0h00/ap/apps/bootloader/code/main/stub_os.o
                                                  ../../../../../../../PLAT/prebuild/PLAT/lib/gcc/libccio.a(ccio_tfc.o)
osSemaphoreDelete                                 ../../../../../../../PLAT/gccout/ec618_0h00/ap/bootloader/PLAT/project/ec618_0h00/ap/apps/bootloader/code/main/stub_os.o
                                                  ../../../../../../../PLAT/prebuild/PLAT/lib/gcc/libccio.a(ccio_tfc.o)
                                                  ../../../../../../../PLAT/prebuild/PLAT/lib/gcc/libccio.a(serial_entity.o)
osSemaphoreNew                                    ../../../../../../../PLAT/gccout/ec618_0h00/ap/bootloader/PLAT/project/ec618_0h00/ap/apps/bootloader/code/main/stub_os.o
                                                  ../../../../../../../PLAT/prebuild/PLAT/lib/gcc/libccio.a(ccio_tfc.o)
                                                  ../../../../../../../PLAT/prebuild/PLAT/lib/gcc/libccio.a(serial_entity.o)
osSemaphoreRelease                                ../../../../../../../PLAT/gccout/ec618_0h00/ap/bootloader/PLAT/project/ec618_0h00/ap/apps/bootloader/code/main/stub_os.o
                                                  ../../../../../../../PLAT/prebuild/PLAT/lib/gcc/libccio.a(ccio_tfc.o)
                                                  ../../../../../../../PLAT/prebuild/PLAT/lib/gcc/libccio.a(serial_entity.o)
osThreadExit                                      ../../../../../../../PLAT/prebuild/PLAT/lib/gcc/libmiddleware_ec_private.a(simbip.o)
osThreadFlagsClear                                ../../../../../../../PLAT/prebuild/PLAT/lib/gcc/libosa.a(osasys.o)
osThreadFlagsSet                                  ../../../../../../../PLAT/prebuild/PLAT/lib/gcc/libosa.a(osasys.o)
osThreadFlagsWait                                 ../../../../../../../PLAT/prebuild/PLAT/lib/gcc/libosa.a(osasys.o)
osThreadGetId                                     ../../../../../../../PLAT/prebuild/PLAT/lib/gcc/libosa.a(ostask.o)
osThreadGetName                                   ../../../../../../../PLAT/prebuild/PLAT/lib/gcc/libosa.a(ostask.o)
osThreadGetPriority                               ../../../../../../../PLAT/prebuild/PLAT/lib/gcc/libosa.a(ostask.o)
osThreadIsSuspendAll                              ../../../../../../../PLAT/gccout/ec618_0h00/ap/bootloader/PLAT/project/ec618_0h00/ap/apps/bootloader/code/main/stub_os.o
osThreadNew                                       ../../../../../../../PLAT/prebuild/PLAT/lib/gcc/libmiddleware_ec_private.a(psstk_bip.o)
                                                  ../../../../../../../PLAT/prebuild/PLAT/lib/gcc/libosa.a(ostask.o)
osThreadResumeAll                                 ../../../../../../../PLAT/prebuild/PLAT/lib/gcc/libosa.a(ostask.o)
                                                  ../../../../../../../PLAT/prebuild/PLAT/lib/gcc/libosa.a(osasys.o)
osThreadSetPriority                               ../../../../../../../PLAT/prebuild/PLAT/lib/gcc/libosa.a(ostask.o)
osThreadSuspendAll                                ../../../../../../../PLAT/prebuild/PLAT/lib/gcc/libosa.a(ostask.o)
                                                  ../../../../../../../PLAT/prebuild/PLAT/lib/gcc/libosa.a(osasys.o)
osTimerDelete                                     ../../../../../../../PLAT/prebuild/PLAT/lib/gcc/libosa.a(osasys.o)
osTimerIsRunning                                  ../../../../../../../PLAT/prebuild/PLAT/lib/gcc/libosa.a(osasys.o)
osTimerNew                                        ../../../../../../../PLAT/prebuild/PLAT/lib/gcc/libosa.a(osasys.o)
osTimerStart                                      ../../../../../../../PLAT/prebuild/PLAT/lib/gcc/libosa.a(osasys.o)
osTimerStop                                       ../../../../../../../PLAT/prebuild/PLAT/lib/gcc/libosa.a(osasys.o)
owDeInit                                          ../../../../../../../PLAT/gccout/ec618_0h00/ap/bootloader/lib/libdriver.a(oneWire.o)
owInit                                            ../../../../../../../PLAT/gccout/ec618_0h00/ap/bootloader/lib/libdriver.a(oneWire.o)
owIrqHandler                                      ../../../../../../../PLAT/gccout/ec618_0h00/ap/bootloader/lib/libdriver.a(oneWire.o)
owReadBit                                         ../../../../../../../PLAT/gccout/ec618_0h00/ap/bootloader/lib/libdriver.a(oneWire.o)
owReadByte                                        ../../../../../../../PLAT/gccout/ec618_0h00/ap/bootloader/lib/libdriver.a(oneWire.o)
owReset                                           ../../../../../../../PLAT/gccout/ec618_0h00/ap/bootloader/lib/libdriver.a(oneWire.o)
owResetPd                                         ../../../../../../../PLAT/gccout/ec618_0h00/ap/bootloader/lib/libdriver.a(oneWire.o)
owSetMode                                         ../../../../../../../PLAT/gccout/ec618_0h00/ap/bootloader/lib/libdriver.a(oneWire.o)
owTouchByte                                       ../../../../../../../PLAT/gccout/ec618_0h00/ap/bootloader/lib/libdriver.a(oneWire.o)
owWriteBit                                        ../../../../../../../PLAT/gccout/ec618_0h00/ap/bootloader/lib/libdriver.a(oneWire.o)
owWriteByte                                       ../../../../../../../PLAT/gccout/ec618_0h00/ap/bootloader/lib/libdriver.a(oneWire.o)
pBipDynCtx                                        ../../../../../../../PLAT/prebuild/PLAT/lib/gcc/libmiddleware_ec_private.a(psstk_bip.o)
pFreeRbufHead                                     ../../../../../../../PLAT/prebuild/PLAT/lib/gcc/libosa.a(osautil.o)
pFreeRbufTail                                     ../../../../../../../PLAT/prebuild/PLAT/lib/gcc/libosa.a(osautil.o)
p_func_usbd_get_misc_str                          ../../../../../../../PLAT/prebuild/PLAT/lib/gcc/libusbbl_priv.a(usbd_proc_cb_lib.o)
p_notify_event                                    ../../../../../../../PLAT/prebuild/PLAT/lib/gcc/libusbbl_priv.a(function_ecm.o)
p_usbc_dev_int_fops                               ../../../../../../../PLAT/prebuild/PLAT/lib/gcc/libusbbl_priv.a(usbpcd_proc.o)
                                                  ../../../../../../../PLAT/prebuild/PLAT/lib/gcc/libusbbl_priv.a(usbc_int.o)
patch_alloc_once                                  ../../../../../../../PLAT/prebuild/PLAT/lib/gcc/libdeltapatch.a(patch_main.o)
patch_backup_block                                ../../../../../../../PLAT/prebuild/PLAT/lib/gcc/libdeltapatch.a(patch_main.o)
patch_bkup_refresh                                ../../../../../../../PLAT/prebuild/PLAT/lib/gcc/libdeltapatch.a(patch_main.o)
patch_common                                      ../../../../../../../PLAT/prebuild/PLAT/lib/gcc/libdeltapatch.a(patch_main.o)
patch_context                                     ../../../../../../../PLAT/prebuild/PLAT/lib/gcc/libdeltapatch.a(patch_main.o)
patch_file_map_once                               ../../../../../../../PLAT/prebuild/PLAT/lib/gcc/libdeltapatch.a(fakefs.o)
                                                  ../../../../../../../PLAT/prebuild/PLAT/lib/gcc/libdeltapatch.a(patch_main.o)
patch_file_wrap_erase_sector                      ../../../../../../../PLAT/prebuild/PLAT/lib/gcc/libdeltapatch.a(fakefs.o)
                                                  ../../../../../../../PLAT/prebuild/PLAT/lib/gcc/libdeltapatch.a(patch_main.o)
patch_file_wrap_read                              ../../../../../../../PLAT/prebuild/PLAT/lib/gcc/libdeltapatch.a(fakefs.o)
                                                  ../../../../../../../PLAT/prebuild/PLAT/lib/gcc/libdeltapatch.a(patch_main.o)
patch_file_wrap_write                             ../../../../../../../PLAT/prebuild/PLAT/lib/gcc/libdeltapatch.a(fakefs.o)
                                                  ../../../../../../../PLAT/prebuild/PLAT/lib/gcc/libdeltapatch.a(patch_main.o)
patch_integrate_entry                             ../../../../../../../PLAT/prebuild/PLAT/lib/gcc/libdeltapatch.a(patch_main.o)
                                                  ../../../../../../../PLAT/prebuild/PLAT/lib/gcc/libfota.a(fota_patch.o)
patch_integrate_proc                              ../../../../../../../PLAT/prebuild/PLAT/lib/gcc/libdeltapatch.a(patch_main.o)
patch_part                                        ../../../../../../../PLAT/prebuild/PLAT/lib/gcc/libdeltapatch.a(patch_main.o)
patch_part_compare                                ../../../../../../../PLAT/prebuild/PLAT/lib/gcc/libdeltapatch.a(patch_main.o)
patch_restore_block                               ../../../../../../../PLAT/prebuild/PLAT/lib/gcc/libdeltapatch.a(patch_main.o)
patch_safe                                        ../../../../../../../PLAT/prebuild/PLAT/lib/gcc/libdeltapatch.a(patch_main.o)
pcTaskGetName                                     ../../../../../../../PLAT/gccout/ec618_0h00/ap/bootloader/PLAT/project/ec618_0h00/ap/apps/bootloader/code/main/stub_os.o
phyRestorePhyDebugAtCmdInfo                       ../../../../../../../PLAT/prebuild/PLAT/lib/gcc/libdriver_private_bl.a(shareinfo.o)
pppDataIsSpecPattn                                ../../../../../../../PLAT/prebuild/PLAT/lib/gcc/libccio.a(serial_entity.o)
ppp_pbuf_init                                     ../../../../../../../PLAT/prebuild/PLAT/lib/gcc/libccio.a(serial_entity.o)
pppos_escape                                      ../../../../../../../PLAT/prebuild/PLAT/lib/gcc/libccio.a(serial_entity.o)
pppos_input                                       ../../../../../../../PLAT/prebuild/PLAT/lib/gcc/libccio.a(serial_entity.o)
pppos_input_ulpdu                                 ../../../../../../../PLAT/prebuild/PLAT/lib/gcc/libccio.a(serial_entity.o)
printf                                            e:/work/meig/ec618/ec618_sdk_rel_sdk/plat/tools/gcc/bin/../lib/gcc/arm-none-eabi/10.2.1/../../../../arm-none-eabi/lib/thumb/v7-m/nofp\libc_nano.a(lib_a-printf.o)
                                                  ../../../../../../../PLAT/prebuild/PLAT/lib/gcc/libdriver_private_bl.a(ic.o)
                                                  ../../../../../../../PLAT/prebuild/PLAT/lib/gcc/libdriver_private_bl.a(pwrkey.o)
                                                  ../../../../../../../PLAT/prebuild/PLAT/lib/gcc/libfota.a(fota_hub.o)
                                                  ../../../../../../../PLAT/prebuild/PLAT/lib/gcc/libfota.a(fota_parchive.o)
                                                  ../../../../../../../PLAT/prebuild/PLAT/lib/gcc/libfota.a(fota_man.o)
                                                  ../../../../../../../PLAT/prebuild/PLAT/lib/gcc/libdeltapatch.a(patch_main.o)
                                                  ../../../../../../../PLAT/prebuild/PLAT/lib/gcc/libbootloader.a(bl_bsp.o)
                                                  ../../../../../../../PLAT/prebuild/PLAT/lib/gcc/libbootloader.a(image.o)
                                                  ../../../../../../../PLAT/gccout/ec618_0h00/ap/bootloader/lib/libdriver.a(usb_bl_test.o)
                                                  ../../../../../../../PLAT/gccout/ec618_0h00/ap/bootloader/lib/libdriver.a(es8311.o)
                                                  ../../../../../../../PLAT/gccout/ec618_0h00/ap/bootloader/lib/libdriver.a(nau88c22.o)
                                                  ../../../../../../../PLAT/gccout/ec618_0h00/ap/bootloader/lib/libdriver.a(es8388.o)
                                                  ../../../../../../../PLAT/gccout/ec618_0h00/ap/bootloader/lib/libdriver.a(plat_config.o)
                                                  ../../../../../../../PLAT/gccout/ec618_0h00/ap/bootloader/PLAT/middleware/developed/fota/custom/src/fota_custom.o
                                                  ../../../../../../../PLAT/gccout/ec618_0h00/ap/bootloader/PLAT/middleware/developed/fota/custom/src/fota_chksum.o
                                                  ../../../../../../../PLAT/gccout/ec618_0h00/ap/bootloader/PLAT/middleware/developed/fota/custom/src/fota_nvm.o
                                                  ../../../../../../../PLAT/gccout/ec618_0h00/ap/bootloader/PLAT/middleware/developed/fota/custom/src/fota_utils.o
                                                  ../../../../../../../PLAT/gccout/ec618_0h00/ap/bootloader/PLAT/middleware/developed/fota/custom/src/fota_entry.o
psCamCmiReq                                       ../../../../../../../PLAT/prebuild/PLAT/lib/gcc/libmiddleware_ec_private.a(psstk_bip.o)
psDelCGDCONTSync                                  ../../../../../../../PLAT/prebuild/PLAT/lib/gcc/libmiddleware_ec_private.a(psstk_bip.o)
psDialGetUpMemAndSize                             ../../../../../../../PLAT/prebuild/PLAT/lib/gcc/libdriver_private_bl.a(shareinfo.o)
psEventCallbackInit                               ../../../../../../../PLAT/prebuild/PLAT/lib/gcc/libosa.a(ostask.o)
psQueueHandleTable                                ../../../../../../../PLAT/prebuild/PLAT/lib/gcc/libosa.a(ostask.o)
                                                  ../../../../../../../PLAT/prebuild/PLAT/lib/gcc/libosa.a(osasig.o)
psStkBipProcCmiCnf                                ../../../../../../../PLAT/prebuild/PLAT/lib/gcc/libmiddleware_ec_private.a(psstk_bip.o)
psStkBipProcCmiInd                                ../../../../../../../PLAT/prebuild/PLAT/lib/gcc/libmiddleware_ec_private.a(psstk_bip.o)
psStkBipProcSimBipSig                             ../../../../../../../PLAT/prebuild/PLAT/lib/gcc/libmiddleware_ec_private.a(psstk_bip.o)
psTaskIdTable                                     ../../../../../../../PLAT/prebuild/PLAT/lib/gcc/libosa.a(ostask.o)
                                                  ../../../../../../../PLAT/prebuild/PLAT/lib/gcc/libosa.a(osasys.o)
psTaskInitTable                                   ../../../../../../../PLAT/prebuild/PLAT/lib/gcc/libosa.a(ostask.o)
psTaskQueue                                       ../../../../../../../PLAT/prebuild/PLAT/lib/gcc/libosa.a(ostask.o)
putc                                              e:/work/meig/ec618/ec618_sdk_rel_sdk/plat/tools/gcc/bin/../lib/gcc/arm-none-eabi/10.2.1/../../../../arm-none-eabi/lib/thumb/v7-m/nofp\libc_nano.a(lib_a-putc.o)
puts                                              e:/work/meig/ec618/ec618_sdk_rel_sdk/plat/tools/gcc/bin/../lib/gcc/arm-none-eabi/10.2.1/../../../../arm-none-eabi/lib/thumb/v7-m/nofp\libc_nano.a(lib_a-puts.o)
                                                  ../../../../../../../PLAT/prebuild/PLAT/lib/gcc/libdriver_private_bl.a(pwrkey.o)
                                                  ../../../../../../../PLAT/prebuild/PLAT/lib/gcc/libfota.a(fota_hub.o)
                                                  ../../../../../../../PLAT/prebuild/PLAT/lib/gcc/libfota.a(fota_parchive.o)
                                                  ../../../../../../../PLAT/prebuild/PLAT/lib/gcc/libfota.a(fota_callbacks.o)
                                                  ../../../../../../../PLAT/prebuild/PLAT/lib/gcc/libfota.a(fota_man.o)
                                                  ../../../../../../../PLAT/prebuild/PLAT/lib/gcc/libdeltapatch.a(patch_main.o)
                                                  ../../../../../../../PLAT/prebuild/PLAT/lib/gcc/libbootloader.a(image.o)
                                                  ../../../../../../../PLAT/gccout/ec618_0h00/ap/bootloader/lib/libdriver.a(usb_bl_test.o)
                                                  ../../../../../../../PLAT/gccout/ec618_0h00/ap/bootloader/PLAT/middleware/developed/fota/custom/src/fota_custom.o
                                                  ../../../../../../../PLAT/gccout/ec618_0h00/ap/bootloader/PLAT/middleware/developed/fota/custom/src/fota_nvm.o
                                                  ../../../../../../../PLAT/gccout/ec618_0h00/ap/bootloader/PLAT/middleware/developed/fota/custom/src/fota_utils.o
                                                  ../../../../../../../PLAT/gccout/ec618_0h00/ap/bootloader/PLAT/middleware/developed/fota/custom/src/fota_entry.o
                                                  ../../../../../../../PLAT/gccout/ec618_0h00/ap/bootloader/PLAT/project/ec618_0h00/ap/apps/bootloader/code/main/ec_main.o
pvPortAssertMalloc                                ../../../../../../../PLAT/prebuild/PLAT/lib/gcc/libdriver_private_bl.a(acmsgtype.o)
                                                  ../../../../../../../PLAT/prebuild/PLAT/lib/gcc/libosa.a(osanvm.o)
                                                  ../../../../../../../PLAT/prebuild/PLAT/lib/gcc/libosa.a(osasys.o)
pvPortMallocEC                                    ../../../../../../../PLAT/prebuild/PLAT/lib/gcc/libosa.a(osasig.o)
                                                  ../../../../../../../PLAT/prebuild/PLAT/lib/gcc/libosa.a(osautil.o)
pvPortZeroAssertMalloc                            ../../../../../../../PLAT/prebuild/PLAT/lib/gcc/libmiddleware_ec_private.a(simbip.o)
                                                  ../../../../../../../PLAT/prebuild/PLAT/lib/gcc/libmiddleware_ec_private.a(psstk_bip.o)
                                                  ../../../../../../../PLAT/prebuild/PLAT/lib/gcc/libosa.a(asn1util.o)
                                                  ../../../../../../../PLAT/prebuild/PLAT/lib/gcc/libosa.a(osautil.o)
                                                  ../../../../../../../PLAT/prebuild/PLAT/lib/gcc/libosa.a(osasys.o)
pvPortZeroMalloc                                  ../../../../../../../PLAT/prebuild/PLAT/lib/gcc/libosa.a(osasig.o)
pwrKeyGetPinLevel                                 ../../../../../../../PLAT/prebuild/PLAT/lib/gcc/libdriver_private_bl.a(pwrkey.o)
pwrKeyGetPwrKeyMode                               ../../../../../../../PLAT/prebuild/PLAT/lib/gcc/libdriver_private_bl.a(pwrkey.o)
                                                  ../../../../../../../PLAT/gccout/ec618_0h00/ap/bootloader/PLAT/project/ec618_0h00/ap/apps/bootloader/code/main/ec_main.o
pwrKeyHwDeinit                                    ../../../../../../../PLAT/prebuild/PLAT/lib/gcc/libdriver_private_bl.a(pwrkey.o)
pwrKeyHwInit                                      ../../../../../../../PLAT/prebuild/PLAT/lib/gcc/libdriver_private_bl.a(pwrkey.o)
pwrKeyIsSwPorReset                                ../../../../../../../PLAT/prebuild/PLAT/lib/gcc/libdriver_private_bl.a(pwrkey.o)
pwrKeyPopKey                                      ../../../../../../../PLAT/prebuild/PLAT/lib/gcc/libdriver_private_bl.a(pwrkey.o)
pwrKeyPushKey                                     ../../../../../../../PLAT/prebuild/PLAT/lib/gcc/libdriver_private_bl.a(pwrkey.o)
pwrKeyStartPowerOff                               ../../../../../../../PLAT/prebuild/PLAT/lib/gcc/libdriver_private_bl.a(pwrkey.o)
pwrkeyPwrOnDebounce                               ../../../../../../../PLAT/prebuild/PLAT/lib/gcc/libdriver_private_bl.a(pwrkey.o)
                                                  ../../../../../../../PLAT/gccout/ec618_0h00/ap/bootloader/PLAT/project/ec618_0h00/ap/apps/bootloader/code/main/ec_main.o
radioDevFreeUlPduList                             ../../../../../../../PLAT/prebuild/PLAT/lib/gcc/libosa.a(osautil.o)
radioDevHoldOnPppSessn                            ../../../../../../../PLAT/prebuild/PLAT/lib/gcc/libccio.a(serial_entity.o)
raise                                             e:/work/meig/ec618/ec618_sdk_rel_sdk/plat/tools/gcc/bin/../lib/gcc/arm-none-eabi/10.2.1/../../../../arm-none-eabi/lib/thumb/v7-m/nofp\libc_nano.a(lib_a-signal.o)
                                                  e:/work/meig/ec618/ec618_sdk_rel_sdk/plat/tools/gcc/bin/../lib/gcc/arm-none-eabi/10.2.1/../../../../arm-none-eabi/lib/thumb/v7-m/nofp\libc_nano.a(lib_a-abort.o)
rand                                              e:/work/meig/ec618/ec618_sdk_rel_sdk/plat/tools/gcc/bin/../lib/gcc/arm-none-eabi/10.2.1/../../../../arm-none-eabi/lib/thumb/v7-m/nofp\libc_nano.a(lib_a-rand.o)
                                                  ../../../../../../../PLAT/prebuild/PLAT/lib/gcc/libfota.a(fota_man.o)
                                                  ../../../../../../../PLAT/prebuild/PLAT/lib/gcc/libosa.a(osasys.o)
random_num                                        ../../../../../../../PLAT/prebuild/PLAT/lib/gcc/libbootloader.a(uECC.o)
raw_clear_event_flags                             ../../../../../../../PLAT/prebuild/PLAT/lib/gcc/libusbbl_priv.a(usb_bl_cmsis_support.o)
                                                  ../../../../../../../PLAT/prebuild/PLAT/lib/gcc/libusbbl_priv.a(device_ecm.o)
                                                  ../../../../../../../PLAT/prebuild/PLAT/lib/gcc/libusbbl_priv.a(device_rndis.o)
                                                  ../../../../../../../PLAT/prebuild/PLAT/lib/gcc/libusbbl_priv.a(device_vcom.o)
raw_event_flags_iserror                           ../../../../../../../PLAT/prebuild/PLAT/lib/gcc/libusbbl_priv.a(usb_bl_cmsis_support.o)
raw_get_event_flags                               ../../../../../../../PLAT/prebuild/PLAT/lib/gcc/libusbbl_priv.a(usb_bl_cmsis_support.o)
                                                  ../../../../../../../PLAT/prebuild/PLAT/lib/gcc/libusbbl_priv.a(device_ecm.o)
                                                  ../../../../../../../PLAT/prebuild/PLAT/lib/gcc/libusbbl_priv.a(device_rndis.o)
                                                  ../../../../../../../PLAT/prebuild/PLAT/lib/gcc/libusbbl_priv.a(device_vcom.o)
raw_set_event_flags                               ../../../../../../../PLAT/prebuild/PLAT/lib/gcc/libusbbl_priv.a(usb_bl_cmsis_support.o)
                                                  ../../../../../../../PLAT/prebuild/PLAT/lib/gcc/libusbbl_priv.a(device_ecm.o)
                                                  ../../../../../../../PLAT/prebuild/PLAT/lib/gcc/libusbbl_priv.a(device_rndis.o)
                                                  ../../../../../../../PLAT/prebuild/PLAT/lib/gcc/libusbbl_priv.a(device_vcom.o)
raw_wait_event_flags                              ../../../../../../../PLAT/prebuild/PLAT/lib/gcc/libusbbl_priv.a(usb_bl_cmsis_support.o)
                                                  ../../../../../../../PLAT/prebuild/PLAT/lib/gcc/libusbbl_priv.a(device_vcom.o)
rbuf_get_nb                                       ../../../../../../../PLAT/prebuild/PLAT/lib/gcc/libusbbl_priv.a(lib_rbuf.o)
                                                  ../../../../../../../PLAT/prebuild/PLAT/lib/gcc/libusbbl_priv.a(device_vcom.o)
rbuf_get_part_blank                               ../../../../../../../PLAT/prebuild/PLAT/lib/gcc/libusbbl_priv.a(lib_rbuf.o)
                                                  ../../../../../../../PLAT/prebuild/PLAT/lib/gcc/libusbbl_priv.a(device_vcom.o)
rbuf_init                                         ../../../../../../../PLAT/prebuild/PLAT/lib/gcc/libusbbl_priv.a(lib_rbuf.o)
                                                  ../../../../../../../PLAT/prebuild/PLAT/lib/gcc/libusbbl_priv.a(device_vcom.o)
rbuf_is_inited                                    ../../../../../../../PLAT/prebuild/PLAT/lib/gcc/libusbbl_priv.a(lib_rbuf.o)
                                                  ../../../../../../../PLAT/prebuild/PLAT/lib/gcc/libusbbl_priv.a(device_vcom.o)
rbuf_put_nb                                       ../../../../../../../PLAT/prebuild/PLAT/lib/gcc/libusbbl_priv.a(lib_rbuf.o)
                                                  ../../../../../../../PLAT/prebuild/PLAT/lib/gcc/libusbbl_priv.a(device_vcom.o)
rbuf_reset                                        ../../../../../../../PLAT/prebuild/PLAT/lib/gcc/libusbbl_priv.a(lib_rbuf.o)
                                                  ../../../../../../../PLAT/prebuild/PLAT/lib/gcc/libusbbl_priv.a(device_vcom.o)
rbuf_spare_cnt                                    ../../../../../../../PLAT/prebuild/PLAT/lib/gcc/libusbbl_priv.a(lib_rbuf.o)
                                                  ../../../../../../../PLAT/prebuild/PLAT/lib/gcc/libusbbl_priv.a(device_vcom.o)
rbuf_uninit                                       ../../../../../../../PLAT/prebuild/PLAT/lib/gcc/libusbbl_priv.a(lib_rbuf.o)
                                                  ../../../../../../../PLAT/prebuild/PLAT/lib/gcc/libusbbl_priv.a(device_vcom.o)
rbuf_used_cnt                                     ../../../../../../../PLAT/prebuild/PLAT/lib/gcc/libusbbl_priv.a(lib_rbuf.o)
                                                  ../../../../../../../PLAT/prebuild/PLAT/lib/gcc/libusbbl_priv.a(device_vcom.o)
readBuf                                           ../../../../../../../PLAT/gccout/ec618_0h00/ap/bootloader/lib/libdriver.a(oneWire.o)
registerAppEntry                                  ../../../../../../../PLAT/prebuild/PLAT/lib/gcc/libosa.a(ostask.o)
rndisPacketDecap                                  ../../../../../../../PLAT/prebuild/PLAT/lib/gcc/libccio.a(rndis_entity.o)
rndis_func_bind                                   ../../../../../../../PLAT/prebuild/PLAT/lib/gcc/libusbbl_priv.a(function_rndis.o)
rndis_func_diep_down_lnkmd_get_epnum              ../../../../../../../PLAT/prebuild/PLAT/lib/gcc/libusbbl_priv.a(function_rndis.o)
                                                  ../../../../../../../PLAT/prebuild/PLAT/lib/gcc/libusbbl_priv.a(device_rndis.o)
rndis_func_doep_notify_lnkmd_get_epnum            ../../../../../../../PLAT/prebuild/PLAT/lib/gcc/libusbbl_priv.a(function_rndis.o)
                                                  ../../../../../../../PLAT/prebuild/PLAT/lib/gcc/libusbbl_priv.a(device_rndis.o)
rndis_func_doep_up_lnkmd_get_epnum                ../../../../../../../PLAT/prebuild/PLAT/lib/gcc/libusbbl_priv.a(function_rndis.o)
                                                  ../../../../../../../PLAT/prebuild/PLAT/lib/gcc/libusbbl_priv.a(device_rndis.o)
rndis_func_mtd                                    ../../../../../../../PLAT/prebuild/PLAT/lib/gcc/libusbbl_priv.a(function_rndis.o)
rndis_func_query                                  ../../../../../../../PLAT/prebuild/PLAT/lib/gcc/libusbbl_priv.a(function_rndis.o)
rndis_func_recv_trigavail                         ../../../../../../../PLAT/prebuild/PLAT/lib/gcc/libusbbl_priv.a(function_rndis.o)
rndis_func_retwkup_restore                        ../../../../../../../PLAT/prebuild/PLAT/lib/gcc/libusbbl_priv.a(function_rndis.o)
rndis_func_rxbuf_reset                            ../../../../../../../PLAT/prebuild/PLAT/lib/gcc/libusbbl_priv.a(function_rndis.o)
rndis_func_send_trigavail                         ../../../../../../../PLAT/prebuild/PLAT/lib/gcc/libusbbl_priv.a(function_rndis.o)
rndis_func_send_trigger                           ../../../../../../../PLAT/prebuild/PLAT/lib/gcc/libusbbl_priv.a(function_rndis.o)
rndis_func_set_msg                                ../../../../../../../PLAT/prebuild/PLAT/lib/gcc/libusbbl_priv.a(function_rndis.o)
rndis_func_string_bind                            ../../../../../../../PLAT/prebuild/PLAT/lib/gcc/libusbbl_priv.a(function_rndis.o)
rndis_func_trans_init                             ../../../../../../../PLAT/prebuild/PLAT/lib/gcc/libusbbl_priv.a(function_rndis.o)
rndis_func_txbuf_reset                            ../../../../../../../PLAT/prebuild/PLAT/lib/gcc/libusbbl_priv.a(function_rndis.o)
rndis_func_unbind                                 ../../../../../../../PLAT/prebuild/PLAT/lib/gcc/libusbbl_priv.a(function_rndis.o)
rndis_handle_config_parm                          ../../../../../../../PLAT/prebuild/PLAT/lib/gcc/libusbbl_priv.a(function_rndis.o)
rndis_notify_halt_msg                             ../../../../../../../PLAT/prebuild/PLAT/lib/gcc/libusbbl_priv.a(function_rndis.o)
rndis_packetFilter                                ../../../../../../../PLAT/prebuild/PLAT/lib/gcc/libusbbl_priv.a(function_rndis.o)
rndis_reset_rndis_context_addr                    ../../../../../../../PLAT/prebuild/PLAT/lib/gcc/libusbbl_priv.a(function_rndis.o)
rndis_str_container_tbl                           ../../../../../../../PLAT/prebuild/PLAT/lib/gcc/libusbbl_priv.a(function_rndis.o)
rndis_trace_encbuf                                ../../../../../../../PLAT/prebuild/PLAT/lib/gcc/libusbbl_priv.a(function_rndis.o)
rndis_trans_api                                   ../../../../../../../PLAT/prebuild/PLAT/lib/gcc/libusbbl_priv.a(function_rndis.o)
rndis_trans_inst_ctrl                             ../../../../../../../PLAT/prebuild/PLAT/lib/gcc/libusbbl_priv.a(function_rndis.o)
rndis_up_lnkmd_xfer_cfg                           ../../../../../../../PLAT/prebuild/PLAT/lib/gcc/libusbbl_priv.a(function_rndis.o)
rngGenRandom                                      ../../../../../../../PLAT/prebuild/PLAT/lib/gcc/libdriver_private_bl.a(rng.o)
                                                  ../../../../../../../PLAT/prebuild/PLAT/lib/gcc/libosa.a(osasys.o)
rngGeneratorOnce                                  ../../../../../../../PLAT/prebuild/PLAT/lib/gcc/libdriver_private_bl.a(rng.o)
rngInit                                           ../../../../../../../PLAT/prebuild/PLAT/lib/gcc/libdriver_private_bl.a(rng.o)
rngSetSampleCnt                                   ../../../../../../../PLAT/prebuild/PLAT/lib/gcc/libdriver_private_bl.a(rng.o)
sctInit                                           ../../../../../../../PLAT/prebuild/PLAT/lib/gcc/libdriver_private_bl.a(tls.o)
serial_vcom0_chk_match_ulog                       ../../../../../../../PLAT/prebuild/PLAT/lib/gcc/libusbbl_priv.a(device_vcom.o)
serial_vcom0_dnotify_lnkmd_get_epnum              ../../../../../../../PLAT/prebuild/PLAT/lib/gcc/libusbbl_priv.a(device_vcom.o)
serial_vcom0_downlink_get_epnum                   ../../../../../../../PLAT/prebuild/PLAT/lib/gcc/libusbbl_priv.a(device_vcom.o)
serial_vcom0_get_handler                          ../../../../../../../PLAT/prebuild/PLAT/lib/gcc/libusbbl_priv.a(device_vcom.o)
serial_vcom0_is_connect                           ../../../../../../../PLAT/prebuild/PLAT/lib/gcc/libusbbl_priv.a(device_vcom.o)
serial_vcom0_read                                 ../../../../../../../PLAT/prebuild/PLAT/lib/gcc/libusbbl_priv.a(device_vcom.o)
serial_vcom0_uplink_get_epnum                     ../../../../../../../PLAT/prebuild/PLAT/lib/gcc/libusbbl_priv.a(device_vcom.o)
serial_vcom0_uplink_xfer_cfg                      ../../../../../../../PLAT/prebuild/PLAT/lib/gcc/libusbbl_priv.a(device_vcom.o)
serial_vcom0_write                                ../../../../../../../PLAT/prebuild/PLAT/lib/gcc/libusbbl_priv.a(device_vcom.o)
serial_vcom1_chk_match_ulog                       ../../../../../../../PLAT/prebuild/PLAT/lib/gcc/libusbbl_priv.a(device_vcom.o)
serial_vcom1_dnotify_lnkmd_get_epnum              ../../../../../../../PLAT/prebuild/PLAT/lib/gcc/libusbbl_priv.a(device_vcom.o)
serial_vcom1_downlink_get_epnum                   ../../../../../../../PLAT/prebuild/PLAT/lib/gcc/libusbbl_priv.a(device_vcom.o)
serial_vcom1_get_handler                          ../../../../../../../PLAT/prebuild/PLAT/lib/gcc/libusbbl_priv.a(device_vcom.o)
serial_vcom1_read                                 ../../../../../../../PLAT/prebuild/PLAT/lib/gcc/libusbbl_priv.a(device_vcom.o)
serial_vcom1_uplink_get_epnum                     ../../../../../../../PLAT/prebuild/PLAT/lib/gcc/libusbbl_priv.a(device_vcom.o)
serial_vcom1_uplink_xfer_cfg                      ../../../../../../../PLAT/prebuild/PLAT/lib/gcc/libusbbl_priv.a(device_vcom.o)
serial_vcom1_write                                ../../../../../../../PLAT/prebuild/PLAT/lib/gcc/libusbbl_priv.a(device_vcom.o)
serial_vcom2_chk_match_ulog                       ../../../../../../../PLAT/prebuild/PLAT/lib/gcc/libusbbl_priv.a(device_vcom.o)
serial_vcom2_dnotify_lnkmd_get_epnum              ../../../../../../../PLAT/prebuild/PLAT/lib/gcc/libusbbl_priv.a(device_vcom.o)
serial_vcom2_downlink_get_epnum                   ../../../../../../../PLAT/prebuild/PLAT/lib/gcc/libusbbl_priv.a(device_vcom.o)
serial_vcom2_get_handler                          ../../../../../../../PLAT/prebuild/PLAT/lib/gcc/libusbbl_priv.a(device_vcom.o)
serial_vcom2_read                                 ../../../../../../../PLAT/prebuild/PLAT/lib/gcc/libusbbl_priv.a(device_vcom.o)
serial_vcom2_uplink_get_epnum                     ../../../../../../../PLAT/prebuild/PLAT/lib/gcc/libusbbl_priv.a(device_vcom.o)
serial_vcom2_uplink_xfer_cfg                      ../../../../../../../PLAT/prebuild/PLAT/lib/gcc/libusbbl_priv.a(device_vcom.o)
serial_vcom2_write                                ../../../../../../../PLAT/prebuild/PLAT/lib/gcc/libusbbl_priv.a(device_vcom.o)
serial_vcom3_chk_match_ulog                       ../../../../../../../PLAT/prebuild/PLAT/lib/gcc/libusbbl_priv.a(device_vcom.o)
serial_vcom3_dnotify_lnkmd_get_epnum              ../../../../../../../PLAT/prebuild/PLAT/lib/gcc/libusbbl_priv.a(device_vcom.o)
serial_vcom3_downlink_get_epnum                   ../../../../../../../PLAT/prebuild/PLAT/lib/gcc/libusbbl_priv.a(device_vcom.o)
serial_vcom3_get_handler                          ../../../../../../../PLAT/prebuild/PLAT/lib/gcc/libusbbl_priv.a(device_vcom.o)
serial_vcom3_is_connect                           ../../../../../../../PLAT/prebuild/PLAT/lib/gcc/libusbbl_priv.a(device_vcom.o)
serial_vcom3_read                                 ../../../../../../../PLAT/prebuild/PLAT/lib/gcc/libusbbl_priv.a(device_vcom.o)
serial_vcom3_uplink_get_epnum                     ../../../../../../../PLAT/prebuild/PLAT/lib/gcc/libusbbl_priv.a(device_vcom.o)
serial_vcom3_uplink_xfer_cfg                      ../../../../../../../PLAT/prebuild/PLAT/lib/gcc/libusbbl_priv.a(device_vcom.o)
serial_vcom3_write                                ../../../../../../../PLAT/prebuild/PLAT/lib/gcc/libusbbl_priv.a(device_vcom.o)
serial_vcom_cmn_chk_match_ulog                    ../../../../../../../PLAT/prebuild/PLAT/lib/gcc/libusbbl_priv.a(device_vcom.o)
serial_vcom_cmn_try_tx_dlyalloc                   ../../../../../../../PLAT/prebuild/PLAT/lib/gcc/libusbbl_priv.a(device_vcom.o)
serial_vcom_cmn_uplink_get_epnum                  ../../../../../../../PLAT/prebuild/PLAT/lib/gcc/libusbbl_priv.a(device_vcom.o)
serial_vcom_cmn_write                             ../../../../../../../PLAT/prebuild/PLAT/lib/gcc/libusbbl_priv.a(device_vcom.o)
serial_vcom_notify_msg                            ../../../../../../../PLAT/prebuild/PLAT/lib/gcc/libusbbl_priv.a(device_vcom.o)
set_test_mode                                     ../../../../../../../PLAT/prebuild/PLAT/lib/gcc/libusbbl_priv.a(usbpcd_proc.o)
                                                  ../../../../../../../PLAT/prebuild/PLAT/lib/gcc/libusbbl_priv.a(usbpcd_proc_api.o)
setup_req_arr                                     ../../../../../../../PLAT/prebuild/PLAT/lib/gcc/libusbbl_priv.a(usbc_trace.o)
setup_req_idx                                     ../../../../../../../PLAT/prebuild/PLAT/lib/gcc/libusbbl_priv.a(usbc_trace.o)
setup_req_total_cnt                               ../../../../../../../PLAT/prebuild/PLAT/lib/gcc/libusbbl_priv.a(usbc_trace.o)
setvbuf                                           e:/work/meig/ec618/ec618_sdk_rel_sdk/plat/tools/gcc/bin/../lib/gcc/arm-none-eabi/10.2.1/../../../../arm-none-eabi/lib/thumb/v7-m/nofp\libc_nano.a(lib_a-setvbuf.o)
                                                  ../../../../../../../PLAT/prebuild/PLAT/lib/gcc/libbootloader.a(bl_bsp.o)
sha256_init                                       ../../../../../../../PLAT/prebuild/PLAT/lib/gcc/libbootloader.a(hash.o)
                                                  ../../../../../../../PLAT/prebuild/PLAT/lib/gcc/libbootloader.a(image.o)
sha256_update                                     ../../../../../../../PLAT/prebuild/PLAT/lib/gcc/libbootloader.a(hash.o)
                                                  ../../../../../../../PLAT/prebuild/PLAT/lib/gcc/libbootloader.a(image.o)
shaUpdate                                         ../../../../../../../PLAT/prebuild/PLAT/lib/gcc/libdriver_private_bl.a(tls.o)
signal                                            e:/work/meig/ec618/ec618_sdk_rel_sdk/plat/tools/gcc/bin/../lib/gcc/arm-none-eabi/10.2.1/../../../../arm-none-eabi/lib/thumb/v7-m/nofp\libc_nano.a(lib_a-signal.o)
simBipQueueHandle                                 ../../../../../../../PLAT/prebuild/PLAT/lib/gcc/libmiddleware_ec_private.a(psstk_bip.o)
                                                  ../../../../../../../PLAT/prebuild/PLAT/lib/gcc/libmiddleware_ec_private.a(simbip.o)
simBipTaskQueue                                   ../../../../../../../PLAT/prebuild/PLAT/lib/gcc/libmiddleware_ec_private.a(psstk_bip.o)
siprintf                                          e:/work/meig/ec618/ec618_sdk_rel_sdk/plat/tools/gcc/bin/../lib/gcc/arm-none-eabi/10.2.1/../../../../arm-none-eabi/lib/thumb/v7-m/nofp\libc_nano.a(lib_a-sprintf.o)
siscanf                                           e:/work/meig/ec618/ec618_sdk_rel_sdk/plat/tools/gcc/bin/../lib/gcc/arm-none-eabi/10.2.1/../../../../arm-none-eabi/lib/thumb/v7-m/nofp\libc_nano.a(lib_a-sscanf.o)
                                                  e:/work/meig/ec618/ec618_sdk_rel_sdk/plat/tools/gcc/bin/../lib/gcc/arm-none-eabi/10.2.1/../../../../arm-none-eabi/lib/thumb/v7-m/nofp\libc_nano.a(lib_a-tzset_r.o)
slpManAONIOLatchEn                                ../../../../../../../PLAT/prebuild/PLAT/lib/gcc/libbootloader.a(bl_slpman.o)
slpManAONIOPowerOff                               ../../../../../../../PLAT/prebuild/PLAT/lib/gcc/libbootloader.a(bl_slpman.o)
slpManAONIOPowerOn                                ../../../../../../../PLAT/prebuild/PLAT/lib/gcc/libbootloader.a(bl_slpman.o)
slpManAONIOVoltGet                                ../../../../../../../PLAT/prebuild/PLAT/lib/gcc/libbootloader.a(bl_slpman.o)
slpManAONIOVoltSet                                ../../../../../../../PLAT/prebuild/PLAT/lib/gcc/libbootloader.a(bl_slpman.o)
slpManDrvVoteSleep                                ../../../../../../../PLAT/gccout/ec618_0h00/ap/bootloader/PLAT/project/ec618_0h00/ap/apps/bootloader/code/main/stub_os.o
slpManGetChargePinValue                           ../../../../../../../PLAT/prebuild/PLAT/lib/gcc/libbootloader.a(bl_slpman.o)
slpManGetIOSelPin                                 ../../../../../../../PLAT/prebuild/PLAT/lib/gcc/libbootloader.a(bl_slpman.o)
slpManGetLastSlpState                             ../../../../../../../PLAT/prebuild/PLAT/lib/gcc/libosa.a(ostask.o)
slpManGetPwrkeyPinValue                           ../../../../../../../PLAT/prebuild/PLAT/lib/gcc/libbootloader.a(bl_slpman.o)
slpManGetWakeupPinValue                           ../../../../../../../PLAT/prebuild/PLAT/lib/gcc/libbootloader.a(bl_slpman.o)
slpManNormalIOVoltGet                             ../../../../../../../PLAT/prebuild/PLAT/lib/gcc/libbootloader.a(bl_slpman.o)
slpManNormalIOVoltSet                             ../../../../../../../PLAT/prebuild/PLAT/lib/gcc/libbootloader.a(bl_slpman.o)
slpManRegisterPredefinedBackupCb                  ../../../../../../../PLAT/gccout/ec618_0h00/ap/bootloader/PLAT/project/ec618_0h00/ap/apps/bootloader/code/main/stub_os.o
slpManRegisterPredefinedRestoreCb                 ../../../../../../../PLAT/gccout/ec618_0h00/ap/bootloader/PLAT/project/ec618_0h00/ap/apps/bootloader/code/main/stub_os.o
sock_get_errno                                    ../../../../../../../PLAT/prebuild/PLAT/lib/gcc/libmiddleware_ec_private.a(simbip.o)
socket_error_is_fatal                             ../../../../../../../PLAT/prebuild/PLAT/lib/gcc/libmiddleware_ec_private.a(simbip.o)
software_init_hook                                e:/work/meig/ec618/ec618_sdk_rel_sdk/plat/tools/gcc/bin/../lib/gcc/arm-none-eabi/10.2.1/../../../../arm-none-eabi/lib/thumb/v7-m/nofp/crt0.o
sprintf                                           e:/work/meig/ec618/ec618_sdk_rel_sdk/plat/tools/gcc/bin/../lib/gcc/arm-none-eabi/10.2.1/../../../../arm-none-eabi/lib/thumb/v7-m/nofp\libc_nano.a(lib_a-sprintf.o)
                                                  ../../../../../../../PLAT/gccout/ec618_0h00/ap/bootloader/PLAT/middleware/developed/fota/custom/src/fota_utils.o
srand                                             e:/work/meig/ec618/ec618_sdk_rel_sdk/plat/tools/gcc/bin/../lib/gcc/arm-none-eabi/10.2.1/../../../../arm-none-eabi/lib/thumb/v7-m/nofp\libc_nano.a(lib_a-rand.o)
                                                  ../../../../../../../PLAT/prebuild/PLAT/lib/gcc/libosa.a(osasys.o)
sscanf                                            e:/work/meig/ec618/ec618_sdk_rel_sdk/plat/tools/gcc/bin/../lib/gcc/arm-none-eabi/10.2.1/../../../../arm-none-eabi/lib/thumb/v7-m/nofp\libc_nano.a(lib_a-sscanf.o)
strcasecmp                                        e:/work/meig/ec618/ec618_sdk_rel_sdk/plat/tools/gcc/bin/../lib/gcc/arm-none-eabi/10.2.1/../../../../arm-none-eabi/lib/thumb/v7-m/nofp\libc_nano.a(lib_a-strcasecmp.o)
                                                  ../../../../../../../PLAT/prebuild/PLAT/lib/gcc/libosa.a(osasys.o)
strcat                                            e:/work/meig/ec618/ec618_sdk_rel_sdk/plat/tools/gcc/bin/../lib/gcc/arm-none-eabi/10.2.1/../../../../arm-none-eabi/lib/thumb/v7-m/nofp\libc_nano.a(lib_a-strcat.o)
                                                  ../../../../../../../PLAT/prebuild/PLAT/lib/gcc/libdeltapatch.a(bzlib.o)
strcmp                                            e:/work/meig/ec618/ec618_sdk_rel_sdk/plat/tools/gcc/bin/../lib/gcc/arm-none-eabi/10.2.1/../../../../arm-none-eabi/lib/thumb/v7-m/nofp\libc_nano.a(lib_a-strcmp.o)
                                                  e:/work/meig/ec618/ec618_sdk_rel_sdk/plat/tools/gcc/bin/../lib/gcc/arm-none-eabi/10.2.1/../../../../arm-none-eabi/lib/thumb/v7-m/nofp\libc_nano.a(lib_a-tzset_r.o)
                                                  ../../../../../../../PLAT/prebuild/PLAT/lib/gcc/libusbbl_priv.a(usbd_multi_usrcfg_lib.o)
                                                  ../../../../../../../PLAT/gccout/ec618_0h00/ap/bootloader/lib/libdriver.a(codecDrv.o)
                                                  ../../../../../../../PLAT/gccout/ec618_0h00/ap/bootloader/lib/libdriver.a(es8311.o)
                                                  ../../../../../../../PLAT/gccout/ec618_0h00/ap/bootloader/lib/libdriver.a(nau88c22.o)
                                                  ../../../../../../../PLAT/gccout/ec618_0h00/ap/bootloader/lib/libdriver.a(es8388.o)
strcpy                                            e:/work/meig/ec618/ec618_sdk_rel_sdk/plat/tools/gcc/bin/../lib/gcc/arm-none-eabi/10.2.1/../../../../arm-none-eabi/lib/thumb/v7-m/nofp\libc_nano.a(lib_a-strcpy.o)
                                                  e:/work/meig/ec618/ec618_sdk_rel_sdk/plat/tools/gcc/bin/../lib/gcc/arm-none-eabi/10.2.1/../../../../arm-none-eabi/lib/thumb/v7-m/nofp\libc_nano.a(lib_a-tzset_r.o)
                                                  ../../../../../../../PLAT/prebuild/PLAT/lib/gcc/libosa.a(osasys.o)
                                                  ../../../../../../../PLAT/gccout/ec618_0h00/ap/bootloader/PLAT/middleware/developed/fota/custom/src/fota_nvm.o
strlen                                            e:/work/meig/ec618/ec618_sdk_rel_sdk/plat/tools/gcc/bin/../lib/gcc/arm-none-eabi/10.2.1/../../../../arm-none-eabi/lib/thumb/v7-m/nofp\libc_nano.a(lib_a-strlen.o)
                                                  e:/work/meig/ec618/ec618_sdk_rel_sdk/plat/tools/gcc/bin/../lib/gcc/arm-none-eabi/10.2.1/../../../../arm-none-eabi/lib/thumb/v7-m/nofp\libc_nano.a(lib_a-sscanf.o)
                                                  e:/work/meig/ec618/ec618_sdk_rel_sdk/plat/tools/gcc/bin/../lib/gcc/arm-none-eabi/10.2.1/../../../../arm-none-eabi/lib/thumb/v7-m/nofp\libc_nano.a(lib_a-tzset_r.o)
                                                  ../../../../../../../PLAT/prebuild/PLAT/lib/gcc/libfota.a(fota_man.o)
                                                  ../../../../../../../PLAT/prebuild/PLAT/lib/gcc/libosa.a(osanvm.o)
                                                  ../../../../../../../PLAT/gccout/ec618_0h00/ap/bootloader/lib/libdriver.a(ec_string.o)
strlen_fast                                       ../../../../../../../PLAT/gccout/ec618_0h00/ap/bootloader/lib/libdriver.a(ec_string.o)
strncasecmp                                       e:/work/meig/ec618/ec618_sdk_rel_sdk/plat/tools/gcc/bin/../lib/gcc/arm-none-eabi/10.2.1/../../../../arm-none-eabi/lib/thumb/v7-m/nofp\libc_nano.a(lib_a-strncasecmp.o)
                                                  ../../../../../../../PLAT/prebuild/PLAT/lib/gcc/libosa.a(ostask.o)
strncmp                                           e:/work/meig/ec618/ec618_sdk_rel_sdk/plat/tools/gcc/bin/../lib/gcc/arm-none-eabi/10.2.1/../../../../arm-none-eabi/lib/thumb/v7-m/nofp\libc_nano.a(lib_a-strncmp.o)
                                                  e:/work/meig/ec618/ec618_sdk_rel_sdk/plat/tools/gcc/bin/../lib/gcc/arm-none-eabi/10.2.1/../../../../arm-none-eabi/lib/thumb/v7-m/nofp\libc_nano.a(lib_a-getenv_r.o)
                                                  ../../../../../../../PLAT/prebuild/PLAT/lib/gcc/libusbbl_priv.a(usbd_multi_usrcfg_lib.o)
                                                  ../../../../../../../PLAT/prebuild/PLAT/lib/gcc/libusbbl_priv.a(usbd_funclib.o)
                                                  ../../../../../../../PLAT/prebuild/PLAT/lib/gcc/libdeltapatch.a(fakefs.o)
                                                  ../../../../../../../PLAT/prebuild/PLAT/lib/gcc/libosa.a(osanvm.o)
                                                  ../../../../../../../PLAT/gccout/ec618_0h00/ap/bootloader/lib/libdriver.a(ec_string.o)
                                                  ../../../../../../../PLAT/gccout/ec618_0h00/ap/bootloader/PLAT/middleware/developed/fota/custom/src/fota_nvm.o
strncpy                                           e:/work/meig/ec618/ec618_sdk_rel_sdk/plat/tools/gcc/bin/../lib/gcc/arm-none-eabi/10.2.1/../../../../arm-none-eabi/lib/thumb/v7-m/nofp\libc_nano.a(lib_a-strncpy.o)
                                                  ../../../../../../../PLAT/prebuild/PLAT/lib/gcc/libosa.a(osanvm.o)
strtol                                            e:/work/meig/ec618/ec618_sdk_rel_sdk/plat/tools/gcc/bin/../lib/gcc/arm-none-eabi/10.2.1/../../../../arm-none-eabi/lib/thumb/v7-m/nofp\libc_nano.a(lib_a-strtol.o)
strtol_l                                          e:/work/meig/ec618/ec618_sdk_rel_sdk/plat/tools/gcc/bin/../lib/gcc/arm-none-eabi/10.2.1/../../../../arm-none-eabi/lib/thumb/v7-m/nofp\libc_nano.a(lib_a-strtol.o)
strtoul                                           e:/work/meig/ec618/ec618_sdk_rel_sdk/plat/tools/gcc/bin/../lib/gcc/arm-none-eabi/10.2.1/../../../../arm-none-eabi/lib/thumb/v7-m/nofp\libc_nano.a(lib_a-strtoul.o)
                                                  e:/work/meig/ec618/ec618_sdk_rel_sdk/plat/tools/gcc/bin/../lib/gcc/arm-none-eabi/10.2.1/../../../../arm-none-eabi/lib/thumb/v7-m/nofp\libc_nano.a(lib_a-tzset_r.o)
strtoul_l                                         e:/work/meig/ec618/ec618_sdk_rel_sdk/plat/tools/gcc/bin/../lib/gcc/arm-none-eabi/10.2.1/../../../../arm-none-eabi/lib/thumb/v7-m/nofp\libc_nano.a(lib_a-strtoul.o)
swLogDumpPolling                                  ../../../../../../../PLAT/prebuild/PLAT/lib/gcc/libosa.a(osasig.o)
swLogPrintf                                       ../../../../../../../PLAT/prebuild/PLAT/lib/gcc/libccio.a(ccio_device.o)
                                                  ../../../../../../../PLAT/prebuild/PLAT/lib/gcc/libccio.a(ccio_entity.o)
                                                  ../../../../../../../PLAT/prebuild/PLAT/lib/gcc/libccio.a(ccio_rbuf.o)
                                                  ../../../../../../../PLAT/prebuild/PLAT/lib/gcc/libccio.a(ccio_tfc.o)
                                                  ../../../../../../../PLAT/prebuild/PLAT/lib/gcc/libccio.a(serial_entity.o)
                                                  ../../../../../../../PLAT/prebuild/PLAT/lib/gcc/libccio.a(ecm_entity.o)
                                                  ../../../../../../../PLAT/prebuild/PLAT/lib/gcc/libccio.a(eutra_entity.o)
                                                  ../../../../../../../PLAT/prebuild/PLAT/lib/gcc/libccio.a(rndis_entity.o)
                                                  ../../../../../../../PLAT/prebuild/PLAT/lib/gcc/libmiddleware_ec_private.a(simbip.o)
                                                  ../../../../../../../PLAT/prebuild/PLAT/lib/gcc/libmiddleware_ec_private.a(psstk_bip.o)
                                                  ../../../../../../../PLAT/prebuild/PLAT/lib/gcc/libosa.a(osacfgnvm.o)
                                                  ../../../../../../../PLAT/prebuild/PLAT/lib/gcc/libosa.a(ostask.o)
                                                  ../../../../../../../PLAT/prebuild/PLAT/lib/gcc/libosa.a(osamempool.o)
                                                  ../../../../../../../PLAT/prebuild/PLAT/lib/gcc/libosa.a(osanvm.o)
                                                  ../../../../../../../PLAT/prebuild/PLAT/lib/gcc/libosa.a(asn1util.o)
                                                  ../../../../../../../PLAT/prebuild/PLAT/lib/gcc/libosa.a(osautil.o)
                                                  ../../../../../../../PLAT/prebuild/PLAT/lib/gcc/libosa.a(osasys.o)
sw_eptype_reg_bits                                ../../../../../../../PLAT/prebuild/PLAT/lib/gcc/libusbbl_priv.a(usbd_funclib.o)
sysROSpaceCheck                                   ../../../../../../../PLAT/gccout/ec618_0h00/ap/bootloader/lib/libstartup.a(system_ec618.o)
                                                  ../../../../../../../PLAT/prebuild/PLAT/lib/gcc/libdriver_private_bl.a(flash.o)
tBsPatchContext                                   ../../../../../../../PLAT/prebuild/PLAT/lib/gcc/libdeltapatch.a(patch_main.o)
tDExtFile                                         ../../../../../../../PLAT/prebuild/PLAT/lib/gcc/libdeltapatch.a(fakefs.o)
tDeltaFile                                        ../../../../../../../PLAT/prebuild/PLAT/lib/gcc/libdeltapatch.a(fakefs.o)
tDstFile                                          ../../../../../../../PLAT/prebuild/PLAT/lib/gcc/libdeltapatch.a(fakefs.o)
tFlashInfo                                        ../../../../../../../PLAT/prebuild/PLAT/lib/gcc/libdriver_private_bl.a(flash.o)
tSrcFile                                          ../../../../../../../PLAT/prebuild/PLAT/lib/gcc/libdeltapatch.a(fakefs.o)
t_ecm_context                                     ../../../../../../../PLAT/prebuild/PLAT/lib/gcc/libusbbl_priv.a(function_ecm.o)
t_func_ecm_data                                   ../../../../../../../PLAT/prebuild/PLAT/lib/gcc/libusbbl_priv.a(function_ecm.o)
t_func_rndis_data                                 ../../../../../../../PLAT/prebuild/PLAT/lib/gcc/libusbbl_priv.a(function_rndis.o)
t_multidev_map_res_info                           ../../../../../../../PLAT/prebuild/PLAT/lib/gcc/libusbbl_priv.a(usbd_multi_usrcfg_lib.o)
t_notify_buf                                      ../../../../../../../PLAT/prebuild/PLAT/lib/gcc/libusbbl_priv.a(function_ecm.o)
t_rndis_context                                   ../../../../../../../PLAT/prebuild/PLAT/lib/gcc/libusbbl_priv.a(function_rndis.o)
t_tplfunc_vcom_data                               ../../../../../../../PLAT/prebuild/PLAT/lib/gcc/libusbbl_priv.a(function_vcom_tpl.o)
t_udev_desc_cb_ops                                ../../../../../../../PLAT/prebuild/PLAT/lib/gcc/libusbbl_priv.a(usbd_proc_cb_lib.o)
t_udev_ecm0_cls_entry                             ../../../../../../../PLAT/prebuild/PLAT/lib/gcc/libusbbl_priv.a(device_ecm.o)
                                                  ../../../../../../../PLAT/prebuild/PLAT/lib/gcc/libusbbl_priv.a(usbd_multi_usrcfg_lib.o)
t_udev_notify_cb_ops                              ../../../../../../../PLAT/prebuild/PLAT/lib/gcc/libusbbl_priv.a(usbd_proc_cb_lib.o)
t_udev_rndis0_cls_entry                           ../../../../../../../PLAT/prebuild/PLAT/lib/gcc/libusbbl_priv.a(device_rndis.o)
                                                  ../../../../../../../PLAT/prebuild/PLAT/lib/gcc/libusbbl_priv.a(usbd_multi_usrcfg_lib.o)
t_udev_vcom0_cls_entry                            ../../../../../../../PLAT/prebuild/PLAT/lib/gcc/libusbbl_priv.a(device_vcom.o)
                                                  ../../../../../../../PLAT/prebuild/PLAT/lib/gcc/libusbbl_priv.a(usbd_multi_usrcfg_lib.o)
t_udev_vcom1_cls_entry                            ../../../../../../../PLAT/prebuild/PLAT/lib/gcc/libusbbl_priv.a(device_vcom.o)
                                                  ../../../../../../../PLAT/prebuild/PLAT/lib/gcc/libusbbl_priv.a(usbd_multi_usrcfg_lib.o)
t_udev_vcom2_cls_entry                            ../../../../../../../PLAT/prebuild/PLAT/lib/gcc/libusbbl_priv.a(device_vcom.o)
                                                  ../../../../../../../PLAT/prebuild/PLAT/lib/gcc/libusbbl_priv.a(usbd_multi_usrcfg_lib.o)
t_udev_vcom3_cls_entry                            ../../../../../../../PLAT/prebuild/PLAT/lib/gcc/libusbbl_priv.a(device_vcom.o)
                                                  ../../../../../../../PLAT/prebuild/PLAT/lib/gcc/libusbbl_priv.a(usbd_multi_usrcfg_lib.o)
t_usbc_core_top                                   ../../../../../../../PLAT/prebuild/PLAT/lib/gcc/libusbbl_priv.a(usbc_ctrl.o)
                                                  ../../../../../../../PLAT/prebuild/PLAT/lib/gcc/libusbbl_priv.a(usbc_bsp.o)
                                                  ../../../../../../../PLAT/prebuild/PLAT/lib/gcc/libusbbl_priv.a(usbpcd_proc_req.o)
                                                  ../../../../../../../PLAT/prebuild/PLAT/lib/gcc/libusbbl_priv.a(usbpcd_proc_api.o)
                                                  ../../../../../../../PLAT/prebuild/PLAT/lib/gcc/libusbbl_priv.a(usbpcd_proc.o)
                                                  ../../../../../../../PLAT/prebuild/PLAT/lib/gcc/libusbbl_priv.a(usbc_int.o)
                                                  ../../../../../../../PLAT/prebuild/PLAT/lib/gcc/libusbbl_priv.a(usbc_dev_if.o)
                                                  ../../../../../../../PLAT/prebuild/PLAT/lib/gcc/libusbbl_priv.a(usbd_multi.o)
t_usbc_int_cb                                     ../../../../../../../PLAT/prebuild/PLAT/lib/gcc/libusbbl_priv.a(usbpcd_proc.o)
t_usbc_trace_switch                               ../../../../../../../PLAT/prebuild/PLAT/lib/gcc/libusbbl_priv.a(usbc_trace.o)
t_usbcustom_multidev_ops                          ../../../../../../../PLAT/prebuild/PLAT/lib/gcc/libusbbl_priv.a(usbd_multi_usrcfg_lib.o)
t_usbd_cdc_desc_custp1                            ../../../../../../../PLAT/gccout/ec618_0h00/ap/bootloader/lib/libdriver.a(function_vcom_custp1.o)
t_usbd_cdc_desc_custp2                            ../../../../../../../PLAT/gccout/ec618_0h00/ap/bootloader/lib/libdriver.a(function_vcom_custp2.o)
t_usbd_cdc_desc_inhrnt                            ../../../../../../../PLAT/gccout/ec618_0h00/ap/bootloader/lib/libdriver.a(function_vcom_inherent.o)
t_usbd_enum_trace_arr                             ../../../../../../../PLAT/prebuild/PLAT/lib/gcc/libusbbl_priv.a(usbc_trace.o)
t_usbd_enum_trace_arr_tick                        ../../../../../../../PLAT/prebuild/PLAT/lib/gcc/libusbbl_priv.a(usbc_trace.o)
t_usbd_enum_trace_idx                             ../../../../../../../PLAT/prebuild/PLAT/lib/gcc/libusbbl_priv.a(usbc_trace.o)
t_usbd_enum_trace_totalcnt                        ../../../../../../../PLAT/prebuild/PLAT/lib/gcc/libusbbl_priv.a(usbc_trace.o)
t_usbd_multidev_ccinst_res                        ../../../../../../../PLAT/gccout/ec618_0h00/ap/bootloader/lib/libdriver.a(usbd_multi_usrcfg_custom.o)
t_vcom_custp0_base_setting                        ../../../../../../../PLAT/gccout/ec618_0h00/ap/bootloader/lib/libdriver.a(function_vcom_inherent.o)
t_vcom_custp0_setting_arr                         ../../../../../../../PLAT/gccout/ec618_0h00/ap/bootloader/lib/libdriver.a(function_vcom_inherent.o)
t_vcom_func_custp0_inhrnt_arr                     ../../../../../../../PLAT/gccout/ec618_0h00/ap/bootloader/lib/libdriver.a(function_vcom_inherent.o)
                                                  ../../../../../../../PLAT/gccout/ec618_0h00/ap/bootloader/lib/libdriver.a(usbd_multi_usrcfg_custom.o)
table1_month                                      ../../../../../../../PLAT/prebuild/PLAT/lib/gcc/libosa.a(osatime.o)
table2_month                                      ../../../../../../../PLAT/prebuild/PLAT/lib/gcc/libosa.a(osatime.o)
targetValue                                       ../../../../../../../PLAT/prebuild/PLAT/lib/gcc/libdriver_private_bl.a(aonreg.o)
tcpip_init                                        ../../../../../../../PLAT/prebuild/PLAT/lib/gcc/libosa.a(ostask.o)
test_iep_stat_finishcnt                           ../../../../../../../PLAT/prebuild/PLAT/lib/gcc/libusbbl_priv.a(usbc_int.o)
test_oep_stat_setup_pendcnt                       ../../../../../../../PLAT/prebuild/PLAT/lib/gcc/libusbbl_priv.a(usbc_int.o)
test_oep_stat_xfercomp_pendcnt                    ../../../../../../../PLAT/prebuild/PLAT/lib/gcc/libusbbl_priv.a(usbc_int.o)
tftc_eptype_reg_bits                              ../../../../../../../PLAT/prebuild/PLAT/lib/gcc/libusbbl_priv.a(usbd_funclib.o)
trimAdcGetCalCode                                 ../../../../../../../PLAT/prebuild/PLAT/lib/gcc/libdriver_private_bl.a(hal_trim.o)
trimAdcGetT0Code                                  ../../../../../../../PLAT/prebuild/PLAT/lib/gcc/libdriver_private_bl.a(hal_trim.o)
trimAdcSetGolbalVar                               ../../../../../../../PLAT/prebuild/PLAT/lib/gcc/libdriver_private_bl.a(hal_trim.o)
trimAptDacScaleRead                               ../../../../../../../PLAT/prebuild/PLAT/lib/gcc/libdriver_private_bl.a(efuse.o)
                                                  ../../../../../../../PLAT/prebuild/PLAT/lib/gcc/libdriver_private_bl.a(hal_trim.o)
trimAuxAdcCode0p5vRead                            ../../../../../../../PLAT/prebuild/PLAT/lib/gcc/libdriver_private_bl.a(efuse.o)
                                                  ../../../../../../../PLAT/prebuild/PLAT/lib/gcc/libdriver_private_bl.a(hal_trim.o)
trimAuxAdcCode0p9vRead                            ../../../../../../../PLAT/prebuild/PLAT/lib/gcc/libdriver_private_bl.a(efuse.o)
                                                  ../../../../../../../PLAT/prebuild/PLAT/lib/gcc/libdriver_private_bl.a(hal_trim.o)
trimAuxAdcCodeT0Read                              ../../../../../../../PLAT/prebuild/PLAT/lib/gcc/libdriver_private_bl.a(efuse.o)
                                                  ../../../../../../../PLAT/prebuild/PLAT/lib/gcc/libdriver_private_bl.a(hal_trim.o)
trimAuxAdcT0Read                                  ../../../../../../../PLAT/prebuild/PLAT/lib/gcc/libdriver_private_bl.a(efuse.o)
                                                  ../../../../../../../PLAT/prebuild/PLAT/lib/gcc/libdriver_private_bl.a(hal_trim.o)
trimDcdcPaRead                                    ../../../../../../../PLAT/prebuild/PLAT/lib/gcc/libdriver_private_bl.a(efuse.o)
                                                  ../../../../../../../PLAT/prebuild/PLAT/lib/gcc/libdriver_private_bl.a(hal_trim.o)
trimDcxoRead                                      ../../../../../../../PLAT/prebuild/PLAT/lib/gcc/libdriver_private_bl.a(efuse.o)
trimEfuseAon                                      ../../../../../../../PLAT/prebuild/PLAT/lib/gcc/libdriver_private_bl.a(hal_trim.o)
                                                  ../../../../../../../PLAT/gccout/ec618_0h00/ap/bootloader/lib/libstartup.a(system_ec618.o)
trimEfuseNotAon                                   ../../../../../../../PLAT/prebuild/PLAT/lib/gcc/libdriver_private_bl.a(hal_trim.o)
trimFromCalNv2Aon                                 ../../../../../../../PLAT/prebuild/PLAT/lib/gcc/libdriver_private_bl.a(hal_trim.o)
                                                  ../../../../../../../PLAT/prebuild/PLAT/lib/gcc/libosa.a(ostask.o)
trimLdoFemIoRead                                  ../../../../../../../PLAT/prebuild/PLAT/lib/gcc/libdriver_private_bl.a(efuse.o)
                                                  ../../../../../../../PLAT/prebuild/PLAT/lib/gcc/libdriver_private_bl.a(hal_trim.o)
trimLdoFemRead                                    ../../../../../../../PLAT/prebuild/PLAT/lib/gcc/libdriver_private_bl.a(efuse.o)
                                                  ../../../../../../../PLAT/prebuild/PLAT/lib/gcc/libdriver_private_bl.a(hal_trim.o)
trimLdoFlashRead                                  ../../../../../../../PLAT/prebuild/PLAT/lib/gcc/libdriver_private_bl.a(efuse.o)
trimLdoIo33Read                                   ../../../../../../../PLAT/prebuild/PLAT/lib/gcc/libdriver_private_bl.a(efuse.o)
trimLdoRet09Read                                  ../../../../../../../PLAT/prebuild/PLAT/lib/gcc/libdriver_private_bl.a(efuse.o)
                                                  ../../../../../../../PLAT/prebuild/PLAT/lib/gcc/libdriver_private_bl.a(hal_trim.o)
trimLdoSimRead                                    ../../../../../../../PLAT/prebuild/PLAT/lib/gcc/libdriver_private_bl.a(efuse.o)
                                                  ../../../../../../../PLAT/prebuild/PLAT/lib/gcc/libdriver_private_bl.a(hal_trim.o)
trimLdoTcxoRead                                   ../../../../../../../PLAT/prebuild/PLAT/lib/gcc/libdriver_private_bl.a(efuse.o)
trimLdoUsb11Read                                  ../../../../../../../PLAT/prebuild/PLAT/lib/gcc/libdriver_private_bl.a(efuse.o)
trimLdoUsb11RetRead                               ../../../../../../../PLAT/prebuild/PLAT/lib/gcc/libdriver_private_bl.a(efuse.o)
                                                  ../../../../../../../PLAT/prebuild/PLAT/lib/gcc/libdriver_private_bl.a(hal_trim.o)
trimLdoUsb33Read                                  ../../../../../../../PLAT/prebuild/PLAT/lib/gcc/libdriver_private_bl.a(efuse.o)
                                                  ../../../../../../../PLAT/prebuild/PLAT/lib/gcc/libdriver_private_bl.a(hal_trim.o)
trimRevertBit                                     ../../../../../../../PLAT/prebuild/PLAT/lib/gcc/libdriver_private_bl.a(efuse.o)
trimRfBgRead                                      ../../../../../../../PLAT/prebuild/PLAT/lib/gcc/libdriver_private_bl.a(efuse.o)
trimSimo1p1Read                                   ../../../../../../../PLAT/prebuild/PLAT/lib/gcc/libdriver_private_bl.a(efuse.o)
trimSimo1p5Read                                   ../../../../../../../PLAT/prebuild/PLAT/lib/gcc/libdriver_private_bl.a(efuse.o)
trimSimo1p9Read                                   ../../../../../../../PLAT/prebuild/PLAT/lib/gcc/libdriver_private_bl.a(efuse.o)
trimUsb33InvFlagRead                              ../../../../../../../PLAT/prebuild/PLAT/lib/gcc/libdriver_private_bl.a(efuse.o)
trimVbatSenseRead                                 ../../../../../../../PLAT/prebuild/PLAT/lib/gcc/libdriver_private_bl.a(efuse.o)
                                                  ../../../../../../../PLAT/prebuild/PLAT/lib/gcc/libdriver_private_bl.a(hal_trim.o)
tzset                                             e:/work/meig/ec618/ec618_sdk_rel_sdk/plat/tools/gcc/bin/../lib/gcc/arm-none-eabi/10.2.1/../../../../arm-none-eabi/lib/thumb/v7-m/nofp\libc_nano.a(lib_a-tzset.o)
uDelay                                            ../../../../../../../PLAT/gccout/ec618_0h00/ap/bootloader/PLAT/project/ec618_0h00/ap/apps/bootloader/code/main/ec_main.o
uECC_compress                                     ../../../../../../../PLAT/prebuild/PLAT/lib/gcc/libbootloader.a(uECC.o)
uECC_compute_public_key                           ../../../../../../../PLAT/prebuild/PLAT/lib/gcc/libbootloader.a(uECC.o)
uECC_curve_private_key_size                       ../../../../../../../PLAT/prebuild/PLAT/lib/gcc/libbootloader.a(uECC.o)
uECC_curve_public_key_size                        ../../../../../../../PLAT/prebuild/PLAT/lib/gcc/libbootloader.a(uECC.o)
uECC_decompress                                   ../../../../../../../PLAT/prebuild/PLAT/lib/gcc/libbootloader.a(uECC.o)
uECC_get_rng                                      ../../../../../../../PLAT/prebuild/PLAT/lib/gcc/libbootloader.a(uECC.o)
uECC_make_key                                     ../../../../../../../PLAT/prebuild/PLAT/lib/gcc/libbootloader.a(uECC.o)
uECC_secp224r1                                    ../../../../../../../PLAT/prebuild/PLAT/lib/gcc/libbootloader.a(uECC.o)
                                                  ../../../../../../../PLAT/prebuild/PLAT/lib/gcc/libbootloader.a(image.o)
uECC_set_rng                                      ../../../../../../../PLAT/prebuild/PLAT/lib/gcc/libbootloader.a(uECC.o)
uECC_shared_secret                                ../../../../../../../PLAT/prebuild/PLAT/lib/gcc/libbootloader.a(uECC.o)
uECC_sign                                         ../../../../../../../PLAT/prebuild/PLAT/lib/gcc/libbootloader.a(uECC.o)
uECC_sign_deterministic                           ../../../../../../../PLAT/prebuild/PLAT/lib/gcc/libbootloader.a(uECC.o)
uECC_valid_point                                  ../../../../../../../PLAT/prebuild/PLAT/lib/gcc/libbootloader.a(uECC.o)
uECC_valid_public_key                             ../../../../../../../PLAT/prebuild/PLAT/lib/gcc/libbootloader.a(uECC.o)
                                                  ../../../../../../../PLAT/prebuild/PLAT/lib/gcc/libbootloader.a(image.o)
uECC_verify                                       ../../../../../../../PLAT/prebuild/PLAT/lib/gcc/libbootloader.a(uECC.o)
                                                  ../../../../../../../PLAT/prebuild/PLAT/lib/gcc/libbootloader.a(image.o)
uartDevGetDefaultIdx                              ../../../../../../../PLAT/prebuild/PLAT/lib/gcc/libccio.a(serial_entity.o)
ucHeap                                            ../../../../../../../PLAT/prebuild/PLAT/lib/gcc/libosa.a(ostask.o)
udev_ecm0                                         ../../../../../../../PLAT/prebuild/PLAT/lib/gcc/libusbbl_priv.a(device_ecm.o)
udev_get_last_err                                 ../../../../../../../PLAT/gccout/ec618_0h00/ap/bootloader/lib/libdriver.a(usbd_proc_cb_custom.o)
                                                  ../../../../../../../PLAT/prebuild/PLAT/lib/gcc/libusbbl_priv.a(usbc_trace.o)
udev_last_err                                     ../../../../../../../PLAT/gccout/ec618_0h00/ap/bootloader/lib/libdriver.a(usbd_proc_cb_custom.o)
udev_notify_device_config                         ../../../../../../../PLAT/gccout/ec618_0h00/ap/bootloader/lib/libdriver.a(usbd_proc_cb_custom.o)
                                                  ../../../../../../../PLAT/prebuild/PLAT/lib/gcc/libusbbl_priv.a(usbd_proc_cb_lib.o)
udev_notify_device_connect                        ../../../../../../../PLAT/gccout/ec618_0h00/ap/bootloader/lib/libdriver.a(usbd_proc_cb_custom.o)
                                                  ../../../../../../../PLAT/prebuild/PLAT/lib/gcc/libusbbl_priv.a(usbd_proc_cb_lib.o)
udev_notify_device_disconnect                     ../../../../../../../PLAT/gccout/ec618_0h00/ap/bootloader/lib/libdriver.a(usbd_proc_cb_custom.o)
                                                  ../../../../../../../PLAT/prebuild/PLAT/lib/gcc/libusbbl_priv.a(usbd_proc_cb_lib.o)
udev_notify_device_reset                          ../../../../../../../PLAT/gccout/ec618_0h00/ap/bootloader/lib/libdriver.a(usbd_proc_cb_custom.o)
                                                  ../../../../../../../PLAT/prebuild/PLAT/lib/gcc/libusbbl_priv.a(usbd_proc_cb_lib.o)
udev_notify_device_resume                         ../../../../../../../PLAT/gccout/ec618_0h00/ap/bootloader/lib/libdriver.a(usbd_proc_cb_custom.o)
                                                  ../../../../../../../PLAT/prebuild/PLAT/lib/gcc/libusbbl_priv.a(usbd_proc_cb_lib.o)
udev_notify_device_suspend                        ../../../../../../../PLAT/gccout/ec618_0h00/ap/bootloader/lib/libdriver.a(usbd_proc_cb_custom.o)
                                                  ../../../../../../../PLAT/prebuild/PLAT/lib/gcc/libusbbl_priv.a(usbd_proc_cb_lib.o)
udev_notify_init                                  ../../../../../../../PLAT/gccout/ec618_0h00/ap/bootloader/lib/libdriver.a(usbd_proc_cb_custom.o)
                                                  ../../../../../../../PLAT/prebuild/PLAT/lib/gcc/libusbbl_priv.a(usbd_proc_cb_lib.o)
udev_rndis0                                       ../../../../../../../PLAT/prebuild/PLAT/lib/gcc/libusbbl_priv.a(device_rndis.o)
udev_set_last_err                                 ../../../../../../../PLAT/gccout/ec618_0h00/ap/bootloader/lib/libdriver.a(usbd_proc_cb_custom.o)
                                                  ../../../../../../../PLAT/prebuild/PLAT/lib/gcc/libusbbl_priv.a(usbc_trace.o)
udev_vcom0                                        ../../../../../../../PLAT/prebuild/PLAT/lib/gcc/libusbbl_priv.a(device_vcom.o)
udev_vcom1                                        ../../../../../../../PLAT/prebuild/PLAT/lib/gcc/libusbbl_priv.a(device_vcom.o)
udev_vcom2                                        ../../../../../../../PLAT/prebuild/PLAT/lib/gcc/libusbbl_priv.a(device_vcom.o)
udev_vcom3                                        ../../../../../../../PLAT/prebuild/PLAT/lib/gcc/libusbbl_priv.a(device_vcom.o)
ulog_cls_cache_entry                              ../../../../../../../PLAT/prebuild/PLAT/lib/gcc/libusbbl_priv.a(usbd_multi_usrcfg_lib.o)
ulog_cls_cache_stat                               ../../../../../../../PLAT/prebuild/PLAT/lib/gcc/libusbbl_priv.a(usbd_multi_usrcfg_lib.o)
ulog_vcom_chkdtr                                  ../../../../../../../PLAT/prebuild/PLAT/lib/gcc/libusbbl_priv.a(device_vcom.o)
ulog_vcom_polling_write                           ../../../../../../../PLAT/prebuild/PLAT/lib/gcc/libusbbl_priv.a(device_vcom.o)
ungetc                                            e:/work/meig/ec618/ec618_sdk_rel_sdk/plat/tools/gcc/bin/../lib/gcc/arm-none-eabi/10.2.1/../../../../arm-none-eabi/lib/thumb/v7-m/nofp\libc_nano.a(lib_a-ungetc.o)
uniLogFlushOut                                    ../../../../../../../PLAT/prebuild/PLAT/lib/gcc/libosa.a(ostask.o)
                                                  ../../../../../../../PLAT/prebuild/PLAT/lib/gcc/libosa.a(osasys.o)
update_ecm_mac                                    ../../../../../../../PLAT/gccout/ec618_0h00/ap/bootloader/lib/libdriver.a(usbd_multi_usrcfg_custom.o)
usb_func_ecm                                      ../../../../../../../PLAT/prebuild/PLAT/lib/gcc/libusbbl_priv.a(function_ecm.o)
                                                  ../../../../../../../PLAT/prebuild/PLAT/lib/gcc/libusbbl_priv.a(usbd_multi_usrcfg_lib.o)
usb_func_rndis                                    ../../../../../../../PLAT/prebuild/PLAT/lib/gcc/libusbbl_priv.a(function_rndis.o)
                                                  ../../../../../../../PLAT/prebuild/PLAT/lib/gcc/libusbbl_priv.a(usbd_multi_usrcfg_lib.o)
usb_func_vcom                                     ../../../../../../../PLAT/prebuild/PLAT/lib/gcc/libusbbl_priv.a(function_vcom_tpl.o)
                                                  ../../../../../../../PLAT/prebuild/PLAT/lib/gcc/libusbbl_priv.a(usbd_multi_usrcfg_lib.o)
usb_innophy_norm_suspend_enterpatch               ../../../../../../../PLAT/prebuild/PLAT/lib/gcc/libusbbl_priv.a(innophy.o)
                                                  ../../../../../../../PLAT/prebuild/PLAT/lib/gcc/libusbbl_priv.a(usbc_int.o)
usb_innophy_norm_suspend_exitpatch                ../../../../../../../PLAT/prebuild/PLAT/lib/gcc/libusbbl_priv.a(innophy.o)
                                                  ../../../../../../../PLAT/prebuild/PLAT/lib/gcc/libusbbl_priv.a(usbc_int.o)
usb_module_powrdown_seq                           ../../../../../../../PLAT/prebuild/PLAT/lib/gcc/libusbbl_priv.a(usbc_bsp.o)
usb_module_powron_seq                             ../../../../../../../PLAT/prebuild/PLAT/lib/gcc/libusbbl_priv.a(usbc_bsp.o)
usb_module_retwkup_clkinit                        ../../../../../../../PLAT/prebuild/PLAT/lib/gcc/libusbbl_priv.a(usbc_bsp.o)
usb_module_retwkup_pwrseq                         ../../../../../../../PLAT/prebuild/PLAT/lib/gcc/libusbbl_priv.a(usbc_bsp.o)
usb_multi_init_para_check                         ../../../../../../../PLAT/prebuild/PLAT/lib/gcc/libusbbl_priv.a(usbd_multi.o)
usb_portmon_wkuppad_level                         ../../../../../../../PLAT/prebuild/PLAT/lib/gcc/libusbbl_priv.a(usbc_bsp.o)
usb_udelay_cycle_accurate                         ../../../../../../../PLAT/prebuild/PLAT/lib/gcc/libusbbl_priv.a(usbc_bsp.o)
usb_udelay_cycle_div6                             ../../../../../../../PLAT/prebuild/PLAT/lib/gcc/libusbbl_priv.a(usbc_bsp.o)
usb_uldpmux_dataout_handler                       ../../../../../../../PLAT/prebuild/PLAT/lib/gcc/libusbbl_priv.a(usbpcd_proc.o)
usbc_ctrl_bsp_deinit                              ../../../../../../../PLAT/prebuild/PLAT/lib/gcc/libusbbl_priv.a(usbc_bsp.o)
                                                  ../../../../../../../PLAT/prebuild/PLAT/lib/gcc/libusbbl_priv.a(usbpcd_proc.o)
usbc_ctrl_bsp_disable_intr                        ../../../../../../../PLAT/prebuild/PLAT/lib/gcc/libusbbl_priv.a(usbc_bsp.o)
                                                  ../../../../../../../PLAT/prebuild/PLAT/lib/gcc/libusbbl_priv.a(usbpcd_proc.o)
usbc_ctrl_bsp_enable_intr                         ../../../../../../../PLAT/prebuild/PLAT/lib/gcc/libusbbl_priv.a(usbc_bsp.o)
                                                  ../../../../../../../PLAT/prebuild/PLAT/lib/gcc/libusbbl_priv.a(usbpcd_proc.o)
usbc_ctrl_bsp_init                                ../../../../../../../PLAT/prebuild/PLAT/lib/gcc/libusbbl_priv.a(usbc_bsp.o)
                                                  ../../../../../../../PLAT/prebuild/PLAT/lib/gcc/libusbbl_priv.a(usbpcd_proc.o)
usbc_ctrl_bsp_mdelay                              ../../../../../../../PLAT/prebuild/PLAT/lib/gcc/libusbbl_priv.a(usbc_bsp.o)
                                                  ../../../../../../../PLAT/prebuild/PLAT/lib/gcc/libusbbl_priv.a(usbpcd_proc.o)
                                                  ../../../../../../../PLAT/prebuild/PLAT/lib/gcc/libusbbl_priv.a(usbc_ctrl.o)
usbc_ctrl_bsp_mdelay_unit                         ../../../../../../../PLAT/prebuild/PLAT/lib/gcc/libusbbl_priv.a(usbc_bsp.o)
usbc_ctrl_bsp_udelay                              ../../../../../../../PLAT/prebuild/PLAT/lib/gcc/libusbbl_priv.a(usbc_bsp.o)
                                                  ../../../../../../../PLAT/prebuild/PLAT/lib/gcc/libusbbl_priv.a(usbpcd_proc.o)
                                                  ../../../../../../../PLAT/prebuild/PLAT/lib/gcc/libusbbl_priv.a(usbc_ctrl.o)
usbc_ctrl_cfg_fifo_hs_auto                        ../../../../../../../PLAT/prebuild/PLAT/lib/gcc/libusbbl_priv.a(usbc_ctrl.o)
usbc_ctrl_cfg_fifo_hs_normal                      ../../../../../../../PLAT/prebuild/PLAT/lib/gcc/libusbbl_priv.a(usbc_ctrl.o)
usbc_ctrl_core_dev_init                           ../../../../../../../PLAT/prebuild/PLAT/lib/gcc/libusbbl_priv.a(usbc_ctrl.o)
                                                  ../../../../../../../PLAT/prebuild/PLAT/lib/gcc/libusbbl_priv.a(usbc_dev_if.o)
usbc_ctrl_core_dma_configtest                     ../../../../../../../PLAT/prebuild/PLAT/lib/gcc/libusbbl_priv.a(usbc_ctrl.o)
usbc_ctrl_core_init                               ../../../../../../../PLAT/prebuild/PLAT/lib/gcc/libusbbl_priv.a(usbc_ctrl.o)
                                                  ../../../../../../../PLAT/prebuild/PLAT/lib/gcc/libusbbl_priv.a(usbc_dev_if.o)
usbc_ctrl_core_retwkups2_init                     ../../../../../../../PLAT/prebuild/PLAT/lib/gcc/libusbbl_priv.a(usbc_ctrl.o)
usbc_ctrl_dev_init                                ../../../../../../../PLAT/prebuild/PLAT/lib/gcc/libusbbl_priv.a(usbc_dev_if.o)
                                                  ../../../../../../../PLAT/prebuild/PLAT/lib/gcc/libusbbl_priv.a(usbpcd_proc.o)
usbc_ctrl_dev_retwkups2_init                      ../../../../../../../PLAT/prebuild/PLAT/lib/gcc/libusbbl_priv.a(usbpcd_proc.o)
usbc_ctrl_dev_set_addr                            ../../../../../../../PLAT/prebuild/PLAT/lib/gcc/libusbbl_priv.a(usbc_dev_if.o)
                                                  ../../../../../../../PLAT/prebuild/PLAT/lib/gcc/libusbbl_priv.a(usbpcd_proc_api.o)
usbc_ctrl_diep_mask                               ../../../../../../../PLAT/prebuild/PLAT/lib/gcc/libusbbl_priv.a(usbc_ctrl.o)
usbc_ctrl_diep_unmask                             ../../../../../../../PLAT/prebuild/PLAT/lib/gcc/libusbbl_priv.a(usbc_ctrl.o)
usbc_ctrl_doep_mask                               ../../../../../../../PLAT/prebuild/PLAT/lib/gcc/libusbbl_priv.a(usbc_ctrl.o)
usbc_ctrl_doep_unmask                             ../../../../../../../PLAT/prebuild/PLAT/lib/gcc/libusbbl_priv.a(usbc_ctrl.o)
usbc_ctrl_enable_dev_interrupts                   ../../../../../../../PLAT/prebuild/PLAT/lib/gcc/libusbbl_priv.a(usbc_ctrl.o)
usbc_ctrl_ep0_activate                            ../../../../../../../PLAT/prebuild/PLAT/lib/gcc/libusbbl_priv.a(usbc_ctrl.o)
                                                  ../../../../../../../PLAT/prebuild/PLAT/lib/gcc/libusbbl_priv.a(usbc_int.o)
usbc_ctrl_ep0_lowlvl_outstart                     ../../../../../../../PLAT/prebuild/PLAT/lib/gcc/libusbbl_priv.a(usbc_ctrl.o)
usbc_ctrl_ep0_norm_outstart                       ../../../../../../../PLAT/prebuild/PLAT/lib/gcc/libusbbl_priv.a(usbc_ctrl.o)
                                                  ../../../../../../../PLAT/prebuild/PLAT/lib/gcc/libusbbl_priv.a(usbpcd_proc_api.o)
                                                  ../../../../../../../PLAT/prebuild/PLAT/lib/gcc/libusbbl_priv.a(usbc_int.o)
usbc_ctrl_ep0_stagstat_outstart                   ../../../../../../../PLAT/prebuild/PLAT/lib/gcc/libusbbl_priv.a(usbc_ctrl.o)
                                                  ../../../../../../../PLAT/prebuild/PLAT/lib/gcc/libusbbl_priv.a(usbpcd_proc_req.o)
usbc_ctrl_ep0_start_transfer                      ../../../../../../../PLAT/prebuild/PLAT/lib/gcc/libusbbl_priv.a(usbc_ctrl.o)
                                                  ../../../../../../../PLAT/prebuild/PLAT/lib/gcc/libusbbl_priv.a(usbc_dev_if.o)
usbc_ctrl_ep_activate                             ../../../../../../../PLAT/prebuild/PLAT/lib/gcc/libusbbl_priv.a(usbc_ctrl.o)
                                                  ../../../../../../../PLAT/prebuild/PLAT/lib/gcc/libusbbl_priv.a(usbc_dev_if.o)
usbc_ctrl_ep_clear_stall                          ../../../../../../../PLAT/prebuild/PLAT/lib/gcc/libusbbl_priv.a(usbc_ctrl.o)
                                                  ../../../../../../../PLAT/prebuild/PLAT/lib/gcc/libusbbl_priv.a(usbc_dev_if.o)
usbc_ctrl_ep_deactivate                           ../../../../../../../PLAT/prebuild/PLAT/lib/gcc/libusbbl_priv.a(usbc_ctrl.o)
                                                  ../../../../../../../PLAT/prebuild/PLAT/lib/gcc/libusbbl_priv.a(usbc_dev_if.o)
usbc_ctrl_ep_set_stall                            ../../../../../../../PLAT/prebuild/PLAT/lib/gcc/libusbbl_priv.a(usbc_ctrl.o)
                                                  ../../../../../../../PLAT/prebuild/PLAT/lib/gcc/libusbbl_priv.a(usbc_dev_if.o)
usbc_ctrl_ep_start_transfer                       ../../../../../../../PLAT/prebuild/PLAT/lib/gcc/libusbbl_priv.a(usbc_ctrl.o)
                                                  ../../../../../../../PLAT/prebuild/PLAT/lib/gcc/libusbbl_priv.a(usbc_dev_if.o)
usbc_ctrl_ep_wr_pkt                               ../../../../../../../PLAT/prebuild/PLAT/lib/gcc/libusbbl_priv.a(usbc_ctrl.o)
                                                  ../../../../../../../PLAT/prebuild/PLAT/lib/gcc/libusbbl_priv.a(usbc_int.o)
usbc_ctrl_flush_rxfifo                            ../../../../../../../PLAT/prebuild/PLAT/lib/gcc/libusbbl_priv.a(usbc_ctrl.o)
usbc_ctrl_flush_txfifo                            ../../../../../../../PLAT/prebuild/PLAT/lib/gcc/libusbbl_priv.a(usbc_ctrl.o)
                                                  ../../../../../../../PLAT/prebuild/PLAT/lib/gcc/libusbbl_priv.a(usbpcd_proc.o)
                                                  ../../../../../../../PLAT/prebuild/PLAT/lib/gcc/libusbbl_priv.a(usbc_int.o)
usbc_ctrl_full_flush_txfifo                       ../../../../../../../PLAT/prebuild/PLAT/lib/gcc/libusbbl_priv.a(usbc_ctrl.o)
usbc_ctrl_get_dev_speed                           ../../../../../../../PLAT/prebuild/PLAT/lib/gcc/libusbbl_priv.a(usbc_ctrl.o)
                                                  ../../../../../../../PLAT/prebuild/PLAT/lib/gcc/libusbbl_priv.a(usbc_int.o)
usbc_ctrl_get_devstat                             ../../../../../../../PLAT/prebuild/PLAT/lib/gcc/libusbbl_priv.a(usbc_dev_if.o)
                                                  ../../../../../../../PLAT/prebuild/PLAT/lib/gcc/libusbbl_priv.a(usbpcd_proc_api.o)
                                                  ../../../../../../../PLAT/prebuild/PLAT/lib/gcc/libusbbl_priv.a(usbpcd_proc.o)
usbc_ctrl_get_mode                                ../../../../../../../PLAT/prebuild/PLAT/lib/gcc/libusbbl_priv.a(usbc_ctrl.o)
usbc_ctrl_initpara_by_opts                        ../../../../../../../PLAT/prebuild/PLAT/lib/gcc/libusbbl_priv.a(usbc_ctrl.o)
                                                  ../../../../../../../PLAT/prebuild/PLAT/lib/gcc/libusbbl_priv.a(usbc_dev_if.o)
usbc_ctrl_is_dev_mode                             ../../../../../../../PLAT/prebuild/PLAT/lib/gcc/libusbbl_priv.a(usbc_ctrl.o)
                                                  ../../../../../../../PLAT/prebuild/PLAT/lib/gcc/libusbbl_priv.a(usbc_int.o)
usbc_ctrl_is_host_mode                            ../../../../../../../PLAT/prebuild/PLAT/lib/gcc/libusbbl_priv.a(usbc_ctrl.o)
usbc_ctrl_rd_otg_itr                              ../../../../../../../PLAT/prebuild/PLAT/lib/gcc/libusbbl_priv.a(usbc_ctrl.o)
usbc_ctrl_rd_pkt                                  ../../../../../../../PLAT/prebuild/PLAT/lib/gcc/libusbbl_priv.a(usbc_ctrl.o)
                                                  ../../../../../../../PLAT/prebuild/PLAT/lib/gcc/libusbbl_priv.a(usbc_int.o)
usbc_ctrl_read_dev_out_ep_intr                    ../../../../../../../PLAT/prebuild/PLAT/lib/gcc/libusbbl_priv.a(usbc_ctrl.o)
usbc_ctrl_restore_irq                             ../../../../../../../PLAT/prebuild/PLAT/lib/gcc/libusbbl_priv.a(usbc_ctrl.o)
usbc_ctrl_retwkups2_bkfifo_cfg                    ../../../../../../../PLAT/prebuild/PLAT/lib/gcc/libusbbl_priv.a(usbpcd_proc.o)
usbc_ctrl_save_and_maskirq                        ../../../../../../../PLAT/prebuild/PLAT/lib/gcc/libusbbl_priv.a(usbc_ctrl.o)
usbc_ctrl_set_devspeed                            ../../../../../../../PLAT/prebuild/PLAT/lib/gcc/libusbbl_priv.a(usbc_ctrl.o)
usbc_ctrl_set_devstat                             ../../../../../../../PLAT/prebuild/PLAT/lib/gcc/libusbbl_priv.a(usbc_dev_if.o)
                                                  ../../../../../../../PLAT/prebuild/PLAT/lib/gcc/libusbbl_priv.a(usbpcd_proc_api.o)
                                                  ../../../../../../../PLAT/prebuild/PLAT/lib/gcc/libusbbl_priv.a(usbpcd_proc.o)
usbc_ctrl_soft_connect                            ../../../../../../../PLAT/prebuild/PLAT/lib/gcc/libusbbl_priv.a(usbc_ctrl.o)
usbc_ctrl_soft_disconnect                         ../../../../../../../PLAT/prebuild/PLAT/lib/gcc/libusbbl_priv.a(usbc_ctrl.o)
                                                  ../../../../../../../PLAT/prebuild/PLAT/lib/gcc/libusbbl_priv.a(usbc_bsp.o)
                                                  ../../../../../../../PLAT/prebuild/PLAT/lib/gcc/libusbbl_priv.a(usbpcd_proc.o)
usbc_dev_int_handler                              ../../../../../../../PLAT/prebuild/PLAT/lib/gcc/libusbbl_priv.a(usbc_int.o)
                                                  ../../../../../../../PLAT/prebuild/PLAT/lib/gcc/libusbbl_priv.a(usbc_bsp.o)
                                                  ../../../../../../../PLAT/prebuild/PLAT/lib/gcc/libusbbl_priv.a(device_vcom.o)
usbc_devif_ep_clear_stall                         ../../../../../../../PLAT/prebuild/PLAT/lib/gcc/libusbbl_priv.a(usbc_dev_if.o)
                                                  ../../../../../../../PLAT/prebuild/PLAT/lib/gcc/libusbbl_priv.a(usbpcd_proc_api.o)
usbc_devif_ep_off                                 ../../../../../../../PLAT/prebuild/PLAT/lib/gcc/libusbbl_priv.a(usbc_dev_if.o)
                                                  ../../../../../../../PLAT/prebuild/PLAT/lib/gcc/libusbbl_priv.a(function_rndis.o)
                                                  ../../../../../../../PLAT/prebuild/PLAT/lib/gcc/libusbbl_priv.a(function_ecm.o)
                                                  ../../../../../../../PLAT/prebuild/PLAT/lib/gcc/libusbbl_priv.a(function_vcom_tpl.o)
usbc_devif_ep_on                                  ../../../../../../../PLAT/prebuild/PLAT/lib/gcc/libusbbl_priv.a(usbc_dev_if.o)
                                                  ../../../../../../../PLAT/prebuild/PLAT/lib/gcc/libusbbl_priv.a(usbpcd_proc.o)
                                                  ../../../../../../../PLAT/prebuild/PLAT/lib/gcc/libusbbl_priv.a(function_rndis.o)
                                                  ../../../../../../../PLAT/prebuild/PLAT/lib/gcc/libusbbl_priv.a(function_ecm.o)
                                                  ../../../../../../../PLAT/prebuild/PLAT/lib/gcc/libusbbl_priv.a(function_vcom_tpl.o)
usbc_devif_ep_stall                               ../../../../../../../PLAT/prebuild/PLAT/lib/gcc/libusbbl_priv.a(usbc_dev_if.o)
                                                  ../../../../../../../PLAT/prebuild/PLAT/lib/gcc/libusbbl_priv.a(usbpcd_proc_api.o)
                                                  ../../../../../../../PLAT/prebuild/PLAT/lib/gcc/libusbbl_priv.a(usbpcd_proc.o)
usbc_devif_ep_tx                                  ../../../../../../../PLAT/prebuild/PLAT/lib/gcc/libusbbl_priv.a(usbc_dev_if.o)
                                                  ../../../../../../../PLAT/prebuild/PLAT/lib/gcc/libusbbl_priv.a(usbpcd_proc_req.o)
                                                  ../../../../../../../PLAT/prebuild/PLAT/lib/gcc/libusbbl_priv.a(function_rndis.o)
                                                  ../../../../../../../PLAT/prebuild/PLAT/lib/gcc/libusbbl_priv.a(function_ecm.o)
                                                  ../../../../../../../PLAT/prebuild/PLAT/lib/gcc/libusbbl_priv.a(function_vcom_tpl.o)
usbc_devif_get_iep_maxpkt                         ../../../../../../../PLAT/prebuild/PLAT/lib/gcc/libusbbl_priv.a(usbc_dev_if.o)
                                                  ../../../../../../../PLAT/prebuild/PLAT/lib/gcc/libusbbl_priv.a(function_vcom_tpl.o)
usbc_devif_get_oep_xfercnt                        ../../../../../../../PLAT/prebuild/PLAT/lib/gcc/libusbbl_priv.a(usbc_dev_if.o)
                                                  ../../../../../../../PLAT/prebuild/PLAT/lib/gcc/libusbbl_priv.a(function_rndis.o)
                                                  ../../../../../../../PLAT/prebuild/PLAT/lib/gcc/libusbbl_priv.a(function_ecm.o)
                                                  ../../../../../../../PLAT/prebuild/PLAT/lib/gcc/libusbbl_priv.a(function_vcom_tpl.o)
usbc_devif_prepare_ep_rxtran                      ../../../../../../../PLAT/prebuild/PLAT/lib/gcc/libusbbl_priv.a(usbc_dev_if.o)
                                                  ../../../../../../../PLAT/prebuild/PLAT/lib/gcc/libusbbl_priv.a(usbpcd_proc_req.o)
                                                  ../../../../../../../PLAT/prebuild/PLAT/lib/gcc/libusbbl_priv.a(function_rndis.o)
                                                  ../../../../../../../PLAT/prebuild/PLAT/lib/gcc/libusbbl_priv.a(function_ecm.o)
                                                  ../../../../../../../PLAT/prebuild/PLAT/lib/gcc/libusbbl_priv.a(function_vcom_tpl.o)
usbc_enum_trace_record                            ../../../../../../../PLAT/prebuild/PLAT/lib/gcc/libusbbl_priv.a(usbc_trace.o)
                                                  ../../../../../../../PLAT/prebuild/PLAT/lib/gcc/libusbbl_priv.a(usbpcd_proc_api.o)
                                                  ../../../../../../../PLAT/prebuild/PLAT/lib/gcc/libusbbl_priv.a(usbc_int.o)
                                                  ../../../../../../../PLAT/prebuild/PLAT/lib/gcc/libusbbl_priv.a(function_vcom_tpl.o)
                                                  ../../../../../../../PLAT/prebuild/PLAT/lib/gcc/libusbbl_priv.a(device_vcom.o)
                                                  ../../../../../../../PLAT/prebuild/PLAT/lib/gcc/libusbbl_priv.a(usbd_multi.o)
usbc_get_dev_trace_avail                          ../../../../../../../PLAT/prebuild/PLAT/lib/gcc/libusbbl_priv.a(usbc_trace.o)
usbc_get_ep_rxtran_xfer_info                      ../../../../../../../PLAT/prebuild/PLAT/lib/gcc/libusbbl_priv.a(usbc_dev_if.o)
usbc_get_ep_type                                  ../../../../../../../PLAT/prebuild/PLAT/lib/gcc/libusbbl_priv.a(usbd_funclib.o)
                                                  ../../../../../../../PLAT/prebuild/PLAT/lib/gcc/libusbbl_priv.a(device_ecm.o)
                                                  ../../../../../../../PLAT/prebuild/PLAT/lib/gcc/libusbbl_priv.a(device_rndis.o)
                                                  ../../../../../../../PLAT/prebuild/PLAT/lib/gcc/libusbbl_priv.a(device_vcom.o)
usbc_iepoep_trace_record                          ../../../../../../../PLAT/prebuild/PLAT/lib/gcc/libusbbl_priv.a(usbc_trace.o)
                                                  ../../../../../../../PLAT/prebuild/PLAT/lib/gcc/libusbbl_priv.a(usbc_int.o)
usbc_inno_phy_init                                ../../../../../../../PLAT/prebuild/PLAT/lib/gcc/libusbbl_priv.a(usbc_bsp.o)
usbc_prepare_reset_flush_all_inep                 ../../../../../../../PLAT/prebuild/PLAT/lib/gcc/libusbbl_priv.a(usbc_int.o)
usbc_register_ep_type                             ../../../../../../../PLAT/prebuild/PLAT/lib/gcc/libusbbl_priv.a(usbd_funclib.o)
                                                  ../../../../../../../PLAT/prebuild/PLAT/lib/gcc/libusbbl_priv.a(device_ecm.o)
                                                  ../../../../../../../PLAT/prebuild/PLAT/lib/gcc/libusbbl_priv.a(device_rndis.o)
                                                  ../../../../../../../PLAT/prebuild/PLAT/lib/gcc/libusbbl_priv.a(device_vcom.o)
usbc_trace_cfg                                    ../../../../../../../PLAT/prebuild/PLAT/lib/gcc/libusbbl_priv.a(usbc_trace.o)
usbc_trace_disable                                ../../../../../../../PLAT/prebuild/PLAT/lib/gcc/libusbbl_priv.a(usbc_trace.o)
usbc_trace_iep_xfer                               ../../../../../../../PLAT/prebuild/PLAT/lib/gcc/libusbbl_priv.a(usbc_trace.o)
                                                  ../../../../../../../PLAT/prebuild/PLAT/lib/gcc/libusbbl_priv.a(usbc_ctrl.o)
usbc_trace_oep_proc                               ../../../../../../../PLAT/prebuild/PLAT/lib/gcc/libusbbl_priv.a(usbc_trace.o)
usbc_trace_setup                                  ../../../../../../../PLAT/prebuild/PLAT/lib/gcc/libusbbl_priv.a(usbc_trace.o)
                                                  ../../../../../../../PLAT/prebuild/PLAT/lib/gcc/libusbbl_priv.a(usbpcd_proc.o)
usbc_trace_uldp_oep_xfer                          ../../../../../../../PLAT/prebuild/PLAT/lib/gcc/libusbbl_priv.a(usbc_trace.o)
usbc_trace_wkup_init                              ../../../../../../../PLAT/prebuild/PLAT/lib/gcc/libusbbl_priv.a(usbc_trace.o)
usbc_traceread_dev_inep_intr                      ../../../../../../../PLAT/prebuild/PLAT/lib/gcc/libusbbl_priv.a(usbc_trace.o)
usbc_traceread_dev_oep_intr                       ../../../../../../../PLAT/prebuild/PLAT/lib/gcc/libusbbl_priv.a(usbc_trace.o)
usbcustom_cfg_max_power                           ../../../../../../../PLAT/gccout/ec618_0h00/ap/bootloader/lib/libdriver.a(usbd_proc_cb_custom.o)
                                                  ../../../../../../../PLAT/prebuild/PLAT/lib/gcc/libusbbl_priv.a(usbd_proc_cb_lib.o)
usbcustom_cfg_remote_wkup_bit                     ../../../../../../../PLAT/gccout/ec618_0h00/ap/bootloader/lib/libdriver.a(usbd_proc_cb_custom.o)
                                                  ../../../../../../../PLAT/prebuild/PLAT/lib/gcc/libusbbl_priv.a(usbd_proc_cb_lib.o)
usbcustom_cfg_self_powered_bit                    ../../../../../../../PLAT/gccout/ec618_0h00/ap/bootloader/lib/libdriver.a(usbd_proc_cb_custom.o)
                                                  ../../../../../../../PLAT/prebuild/PLAT/lib/gcc/libusbbl_priv.a(usbd_proc_cb_lib.o)
usbcustom_cfg_str_desc                            ../../../../../../../PLAT/gccout/ec618_0h00/ap/bootloader/lib/libdriver.a(usbd_proc_cb_custom.o)
                                                  ../../../../../../../PLAT/prebuild/PLAT/lib/gcc/libusbbl_priv.a(usbd_proc_cb_lib.o)
usbcustom_epin_id_map                             ../../../../../../../PLAT/gccout/ec618_0h00/ap/bootloader/lib/libdriver.a(usbd_multi_usrcfg_custom.o)
                                                  ../../../../../../../PLAT/prebuild/PLAT/lib/gcc/libusbbl_priv.a(usbd_funclib.o)
usbcustom_epout_id_map                            ../../../../../../../PLAT/gccout/ec618_0h00/ap/bootloader/lib/libdriver.a(usbd_multi_usrcfg_custom.o)
                                                  ../../../../../../../PLAT/prebuild/PLAT/lib/gcc/libusbbl_priv.a(usbd_funclib.o)
usbcustom_intf_str_desc                           ../../../../../../../PLAT/gccout/ec618_0h00/ap/bootloader/lib/libdriver.a(usbd_proc_cb_custom.o)
                                                  ../../../../../../../PLAT/prebuild/PLAT/lib/gcc/libusbbl_priv.a(usbd_proc_cb_lib.o)
usbcustom_manufacture_str_desc                    ../../../../../../../PLAT/gccout/ec618_0h00/ap/bootloader/lib/libdriver.a(usbd_proc_cb_custom.o)
                                                  ../../../../../../../PLAT/prebuild/PLAT/lib/gcc/libusbbl_priv.a(usbd_proc_cb_lib.o)
usbcustom_multidev_ccinfo_map                     ../../../../../../../PLAT/gccout/ec618_0h00/ap/bootloader/lib/libdriver.a(usbd_multi_usrcfg_custom.o)
                                                  ../../../../../../../PLAT/prebuild/PLAT/lib/gcc/libusbbl_priv.a(usbd_multi_usrcfg_lib.o)
usbcustom_multidev_ccinfo_maprst                  ../../../../../../../PLAT/gccout/ec618_0h00/ap/bootloader/lib/libdriver.a(usbd_multi_usrcfg_custom.o)
usbcustom_multidev_cfg_end                        ../../../../../../../PLAT/gccout/ec618_0h00/ap/bootloader/lib/libdriver.a(usbd_multi_usrcfg_custom.o)
                                                  ../../../../../../../PLAT/prebuild/PLAT/lib/gcc/libusbbl_priv.a(usbd_multi_usrcfg_lib.o)
usbcustom_multidev_cfg_reset                      ../../../../../../../PLAT/gccout/ec618_0h00/ap/bootloader/lib/libdriver.a(usbd_multi_usrcfg_custom.o)
                                                  ../../../../../../../PLAT/prebuild/PLAT/lib/gcc/libusbbl_priv.a(usbd_multi_usrcfg_lib.o)
usbcustom_multidev_cfg_update                     ../../../../../../../PLAT/gccout/ec618_0h00/ap/bootloader/lib/libdriver.a(usbd_multi_usrcfg_custom.o)
                                                  ../../../../../../../PLAT/prebuild/PLAT/lib/gcc/libusbbl_priv.a(usbd_multi_usrcfg_lib.o)
usbcustom_multidev_cmndesc                        ../../../../../../../PLAT/gccout/ec618_0h00/ap/bootloader/lib/libdriver.a(usbd_multi_usrcfg_custom.o)
                                                  ../../../../../../../PLAT/prebuild/PLAT/lib/gcc/libusbbl_priv.a(usbd_multi_usrcfg_lib.o)
usbcustom_multidev_ctrl_proc                      ../../../../../../../PLAT/gccout/ec618_0h00/ap/bootloader/lib/libdriver.a(usbd_multi_usrcfg_custom.o)
                                                  ../../../../../../../PLAT/prebuild/PLAT/lib/gcc/libusbbl_priv.a(usbd_multi_usrcfg_lib.o)
usbcustom_multidev_strdesc                        ../../../../../../../PLAT/gccout/ec618_0h00/ap/bootloader/lib/libdriver.a(usbd_multi_usrcfg_custom.o)
                                                  ../../../../../../../PLAT/prebuild/PLAT/lib/gcc/libusbbl_priv.a(usbd_multi_usrcfg_lib.o)
usbcustom_product_str_desc                        ../../../../../../../PLAT/gccout/ec618_0h00/ap/bootloader/lib/libdriver.a(usbd_proc_cb_custom.o)
                                                  ../../../../../../../PLAT/prebuild/PLAT/lib/gcc/libusbbl_priv.a(usbd_proc_cb_lib.o)
usbcustom_qulifier_desc                           ../../../../../../../PLAT/gccout/ec618_0h00/ap/bootloader/lib/libdriver.a(usbd_proc_cb_custom.o)
usbcustom_ser_str_desc                            ../../../../../../../PLAT/gccout/ec618_0h00/ap/bootloader/lib/libdriver.a(usbd_proc_cb_custom.o)
                                                  ../../../../../../../PLAT/prebuild/PLAT/lib/gcc/libusbbl_priv.a(usbd_proc_cb_lib.o)
usbd_clsdev_bind_func                             ../../../../../../../PLAT/prebuild/PLAT/lib/gcc/libusbbl_priv.a(usbd_clsdev.o)
usbd_clsdev_earlyinit                             ../../../../../../../PLAT/prebuild/PLAT/lib/gcc/libusbbl_priv.a(usbd_clsdev.o)
                                                  ../../../../../../../PLAT/prebuild/PLAT/lib/gcc/libusbbl_priv.a(usbd_multi.o)
usbd_clsdev_retwkup_restore                       ../../../../../../../PLAT/prebuild/PLAT/lib/gcc/libusbbl_priv.a(usbd_clsdev.o)
                                                  ../../../../../../../PLAT/prebuild/PLAT/lib/gcc/libusbbl_priv.a(usbd_multi.o)
usbd_clsdev_terminate                             ../../../../../../../PLAT/prebuild/PLAT/lib/gcc/libusbbl_priv.a(usbd_clsdev.o)
                                                  ../../../../../../../PLAT/prebuild/PLAT/lib/gcc/libusbbl_priv.a(usbd_multi.o)
usbd_clsdev_unbind_func                           ../../../../../../../PLAT/prebuild/PLAT/lib/gcc/libusbbl_priv.a(usbd_clsdev.o)
usbd_desc_arr_othspd_tpl                          ../../../../../../../PLAT/prebuild/PLAT/lib/gcc/libusbbl_priv.a(function_vcom_tpl.o)
usbd_desc_arr_tpl                                 ../../../../../../../PLAT/prebuild/PLAT/lib/gcc/libusbbl_priv.a(function_vcom_tpl.o)
usbd_dev_desc_arr                                 ../../../../../../../PLAT/gccout/ec618_0h00/ap/bootloader/lib/libdriver.a(usbd_proc_cb_custom.o)
                                                  ../../../../../../../PLAT/prebuild/PLAT/lib/gcc/libusbbl_priv.a(usbd_proc_cb_lib.o)
usbd_dev_langid_desc                              ../../../../../../../PLAT/gccout/ec618_0h00/ap/bootloader/lib/libdriver.a(usbd_proc_cb_custom.o)
                                                  ../../../../../../../PLAT/prebuild/PLAT/lib/gcc/libusbbl_priv.a(usbd_proc_cb_lib.o)
usbd_dev_qualifier_desc_arr                       ../../../../../../../PLAT/gccout/ec618_0h00/ap/bootloader/lib/libdriver.a(usbd_proc_cb_custom.o)
                                                  ../../../../../../../PLAT/prebuild/PLAT/lib/gcc/libusbbl_priv.a(usbd_proc_cb_lib.o)
usbd_dev_str_desc                                 ../../../../../../../PLAT/prebuild/PLAT/lib/gcc/libusbbl_priv.a(usbpcd_proc_api.o)
                                                  ../../../../../../../PLAT/prebuild/PLAT/lib/gcc/libusbbl_priv.a(usbd_proc_cb_lib.o)
usbd_early_init_finsih                            ../../../../../../../PLAT/prebuild/PLAT/lib/gcc/libusbbl_priv.a(usbd_funclib.o)
                                                  ../../../../../../../PLAT/prebuild/PLAT/lib/gcc/libusbbl_priv.a(usbd_clsdev.o)
usbd_early_init_flag                              ../../../../../../../PLAT/prebuild/PLAT/lib/gcc/libusbbl_priv.a(usbd_funclib.o)
                                                  ../../../../../../../PLAT/prebuild/PLAT/lib/gcc/libusbbl_priv.a(device_ecm.o)
                                                  ../../../../../../../PLAT/prebuild/PLAT/lib/gcc/libusbbl_priv.a(device_rndis.o)
                                                  ../../../../../../../PLAT/prebuild/PLAT/lib/gcc/libusbbl_priv.a(device_vcom.o)
usbd_ecm_config_desc                              ../../../../../../../PLAT/prebuild/PLAT/lib/gcc/libusbbl_priv.a(function_ecm.o)
usbd_ecm_other_config_desc                        ../../../../../../../PLAT/prebuild/PLAT/lib/gcc/libusbbl_priv.a(function_ecm.o)
usbd_endpoint_maxpacket_size                      ../../../../../../../PLAT/prebuild/PLAT/lib/gcc/libusbbl_priv.a(function_vcom_tpl.o)
usbd_enum_tick_arr_record                         ../../../../../../../PLAT/prebuild/PLAT/lib/gcc/libusbbl_priv.a(usbc_trace.o)
                                                  ../../../../../../../PLAT/prebuild/PLAT/lib/gcc/libusbbl_priv.a(usbc_int.o)
usbd_func_retwkup_restore                         ../../../../../../../PLAT/prebuild/PLAT/lib/gcc/libusbbl_priv.a(usbd_clsdev.o)
usbd_get_mod_last_err                             ../../../../../../../PLAT/prebuild/PLAT/lib/gcc/libusbbl_priv.a(usbc_trace.o)
                                                  ../../../../../../../PLAT/prebuild/PLAT/lib/gcc/libusbbl_priv.a(usbpcd_proc.o)
                                                  ../../../../../../../PLAT/prebuild/PLAT/lib/gcc/libusbbl_priv.a(usbd_multi_usrcfg_lib.o)
                                                  ../../../../../../../PLAT/prebuild/PLAT/lib/gcc/libusbbl_priv.a(usbd_clsdev.o)
usbd_glb_info_init                                ../../../../../../../PLAT/prebuild/PLAT/lib/gcc/libusbbl_priv.a(usbd_funclib.o)
                                                  ../../../../../../../PLAT/prebuild/PLAT/lib/gcc/libusbbl_priv.a(usbd_clsdev.o)
usbd_iep_trace_wrtxfifo                           ../../../../../../../PLAT/prebuild/PLAT/lib/gcc/libusbbl_priv.a(usbc_trace.o)
                                                  ../../../../../../../PLAT/prebuild/PLAT/lib/gcc/libusbbl_priv.a(usbc_int.o)
usbd_interface_id                                 ../../../../../../../PLAT/prebuild/PLAT/lib/gcc/libusbbl_priv.a(usbd_funclib.o)
                                                  ../../../../../../../PLAT/prebuild/PLAT/lib/gcc/libusbbl_priv.a(function_rndis.o)
                                                  ../../../../../../../PLAT/prebuild/PLAT/lib/gcc/libusbbl_priv.a(function_ecm.o)
                                                  ../../../../../../../PLAT/prebuild/PLAT/lib/gcc/libusbbl_priv.a(function_vcom_tpl.o)
usbd_mdev_bind_update                             ../../../../../../../PLAT/prebuild/PLAT/lib/gcc/libusbbl_priv.a(usbd_multi_usrcfg_lib.o)
usbd_mdev_ccinst_fill                             ../../../../../../../PLAT/prebuild/PLAT/lib/gcc/libusbbl_priv.a(usbd_multi_usrcfg_lib.o)
usbd_mdev_clstype_fill                            ../../../../../../../PLAT/prebuild/PLAT/lib/gcc/libusbbl_priv.a(usbd_multi_usrcfg_lib.o)
usbd_mdev_custom_filter_fill                      ../../../../../../../PLAT/prebuild/PLAT/lib/gcc/libusbbl_priv.a(usbd_multi_usrcfg_lib.o)
usbd_mdev_func_fill                               ../../../../../../../PLAT/prebuild/PLAT/lib/gcc/libusbbl_priv.a(usbd_multi_usrcfg_lib.o)
usbd_mdev_load_end                                ../../../../../../../PLAT/prebuild/PLAT/lib/gcc/libusbbl_priv.a(usbd_multi_usrcfg_lib.o)
usbd_mdev_load_reset                              ../../../../../../../PLAT/prebuild/PLAT/lib/gcc/libusbbl_priv.a(usbd_multi_usrcfg_lib.o)
usbd_mdev_load_update                             ../../../../../../../PLAT/prebuild/PLAT/lib/gcc/libusbbl_priv.a(usbd_multi_usrcfg_lib.o)
usbd_mdev_loadelem_swap                           ../../../../../../../PLAT/prebuild/PLAT/lib/gcc/libusbbl_priv.a(usbd_multi_usrcfg_lib.o)
usbd_multi_alloc_ep                               ../../../../../../../PLAT/prebuild/PLAT/lib/gcc/libusbbl_priv.a(usbd_funclib.o)
                                                  ../../../../../../../PLAT/prebuild/PLAT/lib/gcc/libusbbl_priv.a(function_rndis.o)
                                                  ../../../../../../../PLAT/prebuild/PLAT/lib/gcc/libusbbl_priv.a(function_ecm.o)
                                                  ../../../../../../../PLAT/prebuild/PLAT/lib/gcc/libusbbl_priv.a(function_vcom_tpl.o)
usbd_multi_cb                                     ../../../../../../../PLAT/prebuild/PLAT/lib/gcc/libusbbl_priv.a(usbd_multi.o)
                                                  ../../../../../../../PLAT/prebuild/PLAT/lib/gcc/libusbbl_priv.a(usbc_bsp.o)
usbd_multi_config_desc                            ../../../../../../../PLAT/prebuild/PLAT/lib/gcc/libusbbl_priv.a(usbd_multi.o)
usbd_multi_ep_id_map                              ../../../../../../../PLAT/prebuild/PLAT/lib/gcc/libusbbl_priv.a(usbd_funclib.o)
usbd_multi_ep_id_unmap                            ../../../../../../../PLAT/prebuild/PLAT/lib/gcc/libusbbl_priv.a(usbd_funclib.o)
usbd_multi_ep_to_funcidx                          ../../../../../../../PLAT/prebuild/PLAT/lib/gcc/libusbbl_priv.a(usbd_funclib.o)
usbd_multi_free_ep                                ../../../../../../../PLAT/prebuild/PLAT/lib/gcc/libusbbl_priv.a(usbd_funclib.o)
usbd_multi_func_get_ep_bitmap                     ../../../../../../../PLAT/prebuild/PLAT/lib/gcc/libusbbl_priv.a(usbd_funclib.o)
usbd_multi_func_idx_init                          ../../../../../../../PLAT/prebuild/PLAT/lib/gcc/libusbbl_priv.a(usbd_funclib.o)
                                                  ../../../../../../../PLAT/prebuild/PLAT/lib/gcc/libusbbl_priv.a(usbd_clsdev.o)
usbd_multi_func_up_lnkmd_xfer_cfg                 ../../../../../../../PLAT/prebuild/PLAT/lib/gcc/libusbbl_priv.a(usbd_funclib.o)
usbd_multi_get_func_bulkep                        ../../../../../../../PLAT/prebuild/PLAT/lib/gcc/libusbbl_priv.a(usbd_funclib.o)
usbd_multi_get_intf_byidx                         ../../../../../../../PLAT/prebuild/PLAT/lib/gcc/libusbbl_priv.a(usbd_funclib.o)
usbd_multi_get_intf_num                           ../../../../../../../PLAT/prebuild/PLAT/lib/gcc/libusbbl_priv.a(usbd_funclib.o)
                                                  ../../../../../../../PLAT/prebuild/PLAT/lib/gcc/libusbbl_priv.a(usbd_multi.o)
usbd_multi_get_string_byid                        ../../../../../../../PLAT/prebuild/PLAT/lib/gcc/libusbbl_priv.a(usbd_funclib.o)
usbd_multi_get_ulog_cls                           ../../../../../../../PLAT/prebuild/PLAT/lib/gcc/libusbbl_priv.a(usbd_multi_usrcfg_lib.o)
                                                  ../../../../../../../PLAT/prebuild/PLAT/lib/gcc/libusbbl_priv.a(device_vcom.o)
usbd_multi_get_usb_func_tblentry                  ../../../../../../../PLAT/prebuild/PLAT/lib/gcc/libusbbl_priv.a(usbd_funclib.o)
                                                  ../../../../../../../PLAT/prebuild/PLAT/lib/gcc/libusbbl_priv.a(usbd_multi.o)
                                                  ../../../../../../../PLAT/prebuild/PLAT/lib/gcc/libusbbl_priv.a(usbd_clsdev.o)
usbd_multi_lib_alloc_ep                           ../../../../../../../PLAT/prebuild/PLAT/lib/gcc/libusbbl_priv.a(usbd_funclib.o)
usbd_multi_lib_clsdev_cb                          ../../../../../../../PLAT/prebuild/PLAT/lib/gcc/libusbbl_priv.a(usbd_multi_usrcfg_lib.o)
usbd_multi_lib_cmndesc_cb                         ../../../../../../../PLAT/prebuild/PLAT/lib/gcc/libusbbl_priv.a(usbd_multi_usrcfg_lib.o)
usbd_multi_lib_dev_extmsg                         ../../../../../../../PLAT/prebuild/PLAT/lib/gcc/libusbbl_priv.a(usbd_multi_usrcfg_lib.o)
usbd_multi_lib_free_ep                            ../../../../../../../PLAT/prebuild/PLAT/lib/gcc/libusbbl_priv.a(usbd_funclib.o)
usbd_multi_lib_get_func_clstype                   ../../../../../../../PLAT/prebuild/PLAT/lib/gcc/libusbbl_priv.a(usbd_multi_usrcfg_lib.o)
usbd_multi_lib_get_load_info                      ../../../../../../../PLAT/prebuild/PLAT/lib/gcc/libusbbl_priv.a(usbd_multi_usrcfg_lib.o)
usbd_multi_lib_set_cmndesc_para                   ../../../../../../../PLAT/prebuild/PLAT/lib/gcc/libusbbl_priv.a(usbd_multi_usrcfg_lib.o)
                                                  ../../../../../../../PLAT/prebuild/PLAT/lib/gcc/libusbbl_priv.a(function_rndis.o)
                                                  ../../../../../../../PLAT/prebuild/PLAT/lib/gcc/libusbbl_priv.a(function_ecm.o)
                                                  ../../../../../../../PLAT/prebuild/PLAT/lib/gcc/libusbbl_priv.a(function_vcom_tpl.o)
usbd_multi_lib_set_strdesc_para                   ../../../../../../../PLAT/prebuild/PLAT/lib/gcc/libusbbl_priv.a(usbd_multi_usrcfg_lib.o)
                                                  ../../../../../../../PLAT/prebuild/PLAT/lib/gcc/libusbbl_priv.a(function_rndis.o)
                                                  ../../../../../../../PLAT/prebuild/PLAT/lib/gcc/libusbbl_priv.a(function_ecm.o)
                                                  ../../../../../../../PLAT/prebuild/PLAT/lib/gcc/libusbbl_priv.a(function_vcom_tpl.o)
usbd_multi_lib_strdesc_cb                         ../../../../../../../PLAT/prebuild/PLAT/lib/gcc/libusbbl_priv.a(usbd_multi_usrcfg_lib.o)
usbd_multi_lib_usrcfg_clstype_bind                ../../../../../../../PLAT/prebuild/PLAT/lib/gcc/libusbbl_priv.a(usbd_multi_usrcfg_lib.o)
                                                  ../../../../../../../PLAT/prebuild/PLAT/lib/gcc/libusbbl_priv.a(usbd_clsdev.o)
usbd_multi_lib_usrcfg_global_init                 ../../../../../../../PLAT/prebuild/PLAT/lib/gcc/libusbbl_priv.a(usbd_multi_usrcfg_lib.o)
                                                  ../../../../../../../PLAT/prebuild/PLAT/lib/gcc/libusbbl_priv.a(usbd_clsdev.o)
usbd_multi_libcall_clsdev_ctrl                    ../../../../../../../PLAT/prebuild/PLAT/lib/gcc/libusbbl_priv.a(usbd_multi_usrcfg_lib.o)
                                                  ../../../../../../../PLAT/prebuild/PLAT/lib/gcc/libusbbl_priv.a(device_ecm.o)
                                                  ../../../../../../../PLAT/prebuild/PLAT/lib/gcc/libusbbl_priv.a(device_rndis.o)
                                                  ../../../../../../../PLAT/prebuild/PLAT/lib/gcc/libusbbl_priv.a(device_vcom.o)
usbd_multi_libcall_cmndesc                        ../../../../../../../PLAT/prebuild/PLAT/lib/gcc/libusbbl_priv.a(usbd_multi_usrcfg_lib.o)
                                                  ../../../../../../../PLAT/prebuild/PLAT/lib/gcc/libusbbl_priv.a(function_rndis.o)
                                                  ../../../../../../../PLAT/prebuild/PLAT/lib/gcc/libusbbl_priv.a(function_ecm.o)
                                                  ../../../../../../../PLAT/prebuild/PLAT/lib/gcc/libusbbl_priv.a(function_vcom_tpl.o)
usbd_multi_libcall_strdesc                        ../../../../../../../PLAT/prebuild/PLAT/lib/gcc/libusbbl_priv.a(usbd_multi_usrcfg_lib.o)
                                                  ../../../../../../../PLAT/prebuild/PLAT/lib/gcc/libusbbl_priv.a(function_rndis.o)
                                                  ../../../../../../../PLAT/prebuild/PLAT/lib/gcc/libusbbl_priv.a(function_ecm.o)
                                                  ../../../../../../../PLAT/prebuild/PLAT/lib/gcc/libusbbl_priv.a(function_vcom_tpl.o)
usbd_multi_load_locmap                            ../../../../../../../PLAT/prebuild/PLAT/lib/gcc/libusbbl_priv.a(usbd_funclib.o)
usbd_multi_loadrec_ep_maxpkt                      ../../../../../../../PLAT/prebuild/PLAT/lib/gcc/libusbbl_priv.a(usbd_funclib.o)
                                                  ../../../../../../../PLAT/prebuild/PLAT/lib/gcc/libusbbl_priv.a(usbc_ctrl.o)
usbd_multi_other_config_desc                      ../../../../../../../PLAT/prebuild/PLAT/lib/gcc/libusbbl_priv.a(usbd_multi.o)
usbd_multi_reserve_rndis_ep                       ../../../../../../../PLAT/prebuild/PLAT/lib/gcc/libusbbl_priv.a(usbd_funclib.o)
usbd_multi_set_ulog_cls                           ../../../../../../../PLAT/prebuild/PLAT/lib/gcc/libusbbl_priv.a(usbd_multi_usrcfg_lib.o)
                                                  ../../../../../../../PLAT/prebuild/PLAT/lib/gcc/libusbbl_priv.a(usbd_clsdev.o)
usbd_multi_strings_add_node                       ../../../../../../../PLAT/prebuild/PLAT/lib/gcc/libusbbl_priv.a(usbd_funclib.o)
                                                  ../../../../../../../PLAT/prebuild/PLAT/lib/gcc/libusbbl_priv.a(function_rndis.o)
                                                  ../../../../../../../PLAT/prebuild/PLAT/lib/gcc/libusbbl_priv.a(function_ecm.o)
                                                  ../../../../../../../PLAT/prebuild/PLAT/lib/gcc/libusbbl_priv.a(function_vcom_tpl.o)
usbd_multi_update_bindinfo                        ../../../../../../../PLAT/prebuild/PLAT/lib/gcc/libusbbl_priv.a(usbd_funclib.o)
                                                  ../../../../../../../PLAT/prebuild/PLAT/lib/gcc/libusbbl_priv.a(usbd_clsdev.o)
usbd_multi_usb_func_find_nm_id                    ../../../../../../../PLAT/prebuild/PLAT/lib/gcc/libusbbl_priv.a(usbd_funclib.o)
                                                  ../../../../../../../PLAT/prebuild/PLAT/lib/gcc/libusbbl_priv.a(usbd_clsdev.o)
usbd_multi_usb_func_from_ep                       ../../../../../../../PLAT/prebuild/PLAT/lib/gcc/libusbbl_priv.a(usbd_funclib.o)
                                                  ../../../../../../../PLAT/prebuild/PLAT/lib/gcc/libusbbl_priv.a(usbd_multi.o)
usbd_multi_usb_func_from_intf                     ../../../../../../../PLAT/prebuild/PLAT/lib/gcc/libusbbl_priv.a(usbd_funclib.o)
                                                  ../../../../../../../PLAT/prebuild/PLAT/lib/gcc/libusbbl_priv.a(usbd_multi.o)
usbd_mutli_bind_pfn_tbl                           ../../../../../../../PLAT/prebuild/PLAT/lib/gcc/libusbbl_priv.a(usbd_multi_usrcfg_lib.o)
                                                  ../../../../../../../PLAT/prebuild/PLAT/lib/gcc/libusbbl_priv.a(usbd_clsdev.o)
usbd_mutli_func_tbl                               ../../../../../../../PLAT/prebuild/PLAT/lib/gcc/libusbbl_priv.a(usbd_multi_usrcfg_lib.o)
                                                  ../../../../../../../PLAT/prebuild/PLAT/lib/gcc/libusbbl_priv.a(usbd_funclib.o)
usbd_register_misc_str_func                       ../../../../../../../PLAT/prebuild/PLAT/lib/gcc/libusbbl_priv.a(usbd_proc_cb_lib.o)
                                                  ../../../../../../../PLAT/prebuild/PLAT/lib/gcc/libusbbl_priv.a(usbd_funclib.o)
usbd_rndis_config_desc                            ../../../../../../../PLAT/prebuild/PLAT/lib/gcc/libusbbl_priv.a(function_rndis.o)
usbd_rndis_other_config_desc                      ../../../../../../../PLAT/prebuild/PLAT/lib/gcc/libusbbl_priv.a(function_rndis.o)
usbd_set_mod_last_err                             ../../../../../../../PLAT/prebuild/PLAT/lib/gcc/libusbbl_priv.a(usbc_trace.o)
                                                  ../../../../../../../PLAT/prebuild/PLAT/lib/gcc/libusbbl_priv.a(usbpcd_proc.o)
                                                  ../../../../../../../PLAT/prebuild/PLAT/lib/gcc/libusbbl_priv.a(usbc_ctrl.o)
                                                  ../../../../../../../PLAT/prebuild/PLAT/lib/gcc/libusbbl_priv.a(function_rndis.o)
                                                  ../../../../../../../PLAT/prebuild/PLAT/lib/gcc/libusbbl_priv.a(function_ecm.o)
                                                  ../../../../../../../PLAT/prebuild/PLAT/lib/gcc/libusbbl_priv.a(function_vcom_tpl.o)
                                                  ../../../../../../../PLAT/prebuild/PLAT/lib/gcc/libusbbl_priv.a(device_vcom.o)
                                                  ../../../../../../../PLAT/prebuild/PLAT/lib/gcc/libusbbl_priv.a(usbd_multi_usrcfg_lib.o)
                                                  ../../../../../../../PLAT/prebuild/PLAT/lib/gcc/libusbbl_priv.a(usbd_clsdev.o)
                                                  ../../../../../../../PLAT/gccout/ec618_0h00/ap/bootloader/lib/libdriver.a(function_vcom_inherent.o)
usbd_string_id                                    ../../../../../../../PLAT/prebuild/PLAT/lib/gcc/libusbbl_priv.a(usbd_funclib.o)
                                                  ../../../../../../../PLAT/prebuild/PLAT/lib/gcc/libusbbl_priv.a(function_rndis.o)
                                                  ../../../../../../../PLAT/prebuild/PLAT/lib/gcc/libusbbl_priv.a(function_ecm.o)
                                                  ../../../../../../../PLAT/prebuild/PLAT/lib/gcc/libusbbl_priv.a(function_vcom_tpl.o)
usbd_trace_ep0_setup_breakstage                   ../../../../../../../PLAT/prebuild/PLAT/lib/gcc/libusbbl_priv.a(usbc_trace.o)
                                                  ../../../../../../../PLAT/prebuild/PLAT/lib/gcc/libusbbl_priv.a(usbc_ctrl.o)
usbdev_rxbuf_check                                ../../../../../../../PLAT/prebuild/PLAT/lib/gcc/libusbbl_priv.a(device_vcom.o)
usbdev_rxbuf_try_dlyalloc                         ../../../../../../../PLAT/prebuild/PLAT/lib/gcc/libusbbl_priv.a(device_vcom.o)
usbdev_txbuf_check                                ../../../../../../../PLAT/prebuild/PLAT/lib/gcc/libusbbl_priv.a(device_vcom.o)
usbdev_txbuf_try_dlyalloc                         ../../../../../../../PLAT/prebuild/PLAT/lib/gcc/libusbbl_priv.a(device_vcom.o)
usblpw_boot_slowcnt_dbg_init                      ../../../../../../../PLAT/prebuild/PLAT/lib/gcc/libusbbl_priv.a(usb_lowpwr.o)
usblpw_boot_slowcnt_log                           ../../../../../../../PLAT/prebuild/PLAT/lib/gcc/libusbbl_priv.a(usb_lowpwr.o)
usblpw_boot_slowcnt_udpate                        ../../../../../../../PLAT/prebuild/PLAT/lib/gcc/libusbbl_priv.a(usb_lowpwr.o)
usblpw_get_pwr_info                               ../../../../../../../PLAT/prebuild/PLAT/lib/gcc/libusbbl_priv.a(usb_lowpwr.o)
usblpw_innophy_enter_patch                        ../../../../../../../PLAT/prebuild/PLAT/lib/gcc/libusbbl_priv.a(innophy.o)
usblpw_innophy_exit_patch                         ../../../../../../../PLAT/prebuild/PLAT/lib/gcc/libusbbl_priv.a(innophy.o)
usblpw_innophy_susp_chk_patch                     ../../../../../../../PLAT/prebuild/PLAT/lib/gcc/libusbbl_priv.a(innophy.o)
usblpw_is_retwkup_support                         ../../../../../../../PLAT/prebuild/PLAT/lib/gcc/libusbbl_priv.a(usb_lowpwr.o)
usblpw_is_retwkups2_start                         ../../../../../../../PLAT/prebuild/PLAT/lib/gcc/libusbbl_priv.a(usb_lowpwr.o)
usblpw_retwkup_boot_start                         ../../../../../../../PLAT/prebuild/PLAT/lib/gcc/libusbbl_priv.a(usb_lowpwr.o)
usblpw_retwkup_bootstat_reset                     ../../../../../../../PLAT/prebuild/PLAT/lib/gcc/libusbbl_priv.a(usb_lowpwr.o)
usblpw_retwkup_clear_ctxstat_var                  ../../../../../../../PLAT/prebuild/PLAT/lib/gcc/libusbbl_priv.a(usb_lowpwr.o)
usblpw_retwkup_irq_detected                       ../../../../../../../PLAT/prebuild/PLAT/lib/gcc/libusbbl_priv.a(usb_lowpwr.o)
usblpw_retwkup_stack_enable                       ../../../../../../../PLAT/prebuild/PLAT/lib/gcc/libusbbl_priv.a(usb_lowpwr.o)
usblpw_retwkup_stack_restore                      ../../../../../../../PLAT/prebuild/PLAT/lib/gcc/libusbbl_priv.a(usb_lowpwr.o)
usbpcd_default_cfg                                ../../../../../../../PLAT/prebuild/PLAT/lib/gcc/libusbbl_priv.a(usbpcd_proc_api.o)
usbpcd_deinit                                     ../../../../../../../PLAT/prebuild/PLAT/lib/gcc/libusbbl_priv.a(usbpcd_proc.o)
                                                  ../../../../../../../PLAT/prebuild/PLAT/lib/gcc/libusbbl_priv.a(usbc_bsp.o)
usbpcd_dev_status                                 ../../../../../../../PLAT/prebuild/PLAT/lib/gcc/libusbbl_priv.a(usbpcd_proc_api.o)
usbpcd_ep_status                                  ../../../../../../../PLAT/prebuild/PLAT/lib/gcc/libusbbl_priv.a(usbpcd_proc_api.o)
usbpcd_init                                       ../../../../../../../PLAT/prebuild/PLAT/lib/gcc/libusbbl_priv.a(usbpcd_proc.o)
                                                  ../../../../../../../PLAT/prebuild/PLAT/lib/gcc/libusbbl_priv.a(usbc_bsp.o)
usbpcd_proc_clear_cfg_uplayer                     ../../../../../../../PLAT/prebuild/PLAT/lib/gcc/libusbbl_priv.a(usbpcd_proc_api.o)
usbpcd_proc_clsctrl_send_data                     ../../../../../../../PLAT/prebuild/PLAT/lib/gcc/libusbbl_priv.a(usbpcd_proc_req.o)
                                                  ../../../../../../../PLAT/prebuild/PLAT/lib/gcc/libusbbl_priv.a(function_rndis.o)
                                                  ../../../../../../../PLAT/prebuild/PLAT/lib/gcc/libusbbl_priv.a(function_vcom_tpl.o)
usbpcd_proc_ctl_error                             ../../../../../../../PLAT/prebuild/PLAT/lib/gcc/libusbbl_priv.a(usbpcd_proc_api.o)
                                                  ../../../../../../../PLAT/prebuild/PLAT/lib/gcc/libusbbl_priv.a(function_rndis.o)
                                                  ../../../../../../../PLAT/prebuild/PLAT/lib/gcc/libusbbl_priv.a(function_ecm.o)
                                                  ../../../../../../../PLAT/prebuild/PLAT/lib/gcc/libusbbl_priv.a(function_vcom_tpl.o)
usbpcd_proc_ctrl_continuous_rx                    ../../../../../../../PLAT/prebuild/PLAT/lib/gcc/libusbbl_priv.a(usbpcd_proc_req.o)
                                                  ../../../../../../../PLAT/prebuild/PLAT/lib/gcc/libusbbl_priv.a(usbpcd_proc.o)
usbpcd_proc_ctrl_continuous_send                  ../../../../../../../PLAT/prebuild/PLAT/lib/gcc/libusbbl_priv.a(usbpcd_proc_req.o)
                                                  ../../../../../../../PLAT/prebuild/PLAT/lib/gcc/libusbbl_priv.a(usbpcd_proc.o)
usbpcd_proc_ctrl_prepare_rxtransfer               ../../../../../../../PLAT/prebuild/PLAT/lib/gcc/libusbbl_priv.a(usbpcd_proc_req.o)
                                                  ../../../../../../../PLAT/prebuild/PLAT/lib/gcc/libusbbl_priv.a(function_rndis.o)
                                                  ../../../../../../../PLAT/prebuild/PLAT/lib/gcc/libusbbl_priv.a(function_ecm.o)
                                                  ../../../../../../../PLAT/prebuild/PLAT/lib/gcc/libusbbl_priv.a(function_vcom_tpl.o)
usbpcd_proc_ctrl_recv_stat                        ../../../../../../../PLAT/prebuild/PLAT/lib/gcc/libusbbl_priv.a(usbpcd_proc_req.o)
                                                  ../../../../../../../PLAT/prebuild/PLAT/lib/gcc/libusbbl_priv.a(usbpcd_proc.o)
usbpcd_proc_ctrl_send_stat                        ../../../../../../../PLAT/prebuild/PLAT/lib/gcc/libusbbl_priv.a(usbpcd_proc_req.o)
                                                  ../../../../../../../PLAT/prebuild/PLAT/lib/gcc/libusbbl_priv.a(usbpcd_proc_api.o)
                                                  ../../../../../../../PLAT/prebuild/PLAT/lib/gcc/libusbbl_priv.a(usbpcd_proc.o)
usbpcd_proc_get_string                            ../../../../../../../PLAT/prebuild/PLAT/lib/gcc/libusbbl_priv.a(usbpcd_proc_api.o)
                                                  ../../../../../../../PLAT/prebuild/PLAT/lib/gcc/libusbbl_priv.a(usbd_proc_cb_lib.o)
usbpcd_proc_getrx_cnt                             ../../../../../../../PLAT/prebuild/PLAT/lib/gcc/libusbbl_priv.a(usbpcd_proc_req.o)
usbpcd_proc_parse_setupreq                        ../../../../../../../PLAT/prebuild/PLAT/lib/gcc/libusbbl_priv.a(usbpcd_proc_api.o)
                                                  ../../../../../../../PLAT/prebuild/PLAT/lib/gcc/libusbbl_priv.a(usbpcd_proc.o)
usbpcd_proc_set_cfg_uplayer                       ../../../../../../../PLAT/prebuild/PLAT/lib/gcc/libusbbl_priv.a(usbpcd_proc_api.o)
usbpcd_proc_sim_cfg_var_clear                     ../../../../../../../PLAT/prebuild/PLAT/lib/gcc/libusbbl_priv.a(usbpcd_proc_api.o)
usbpcd_proc_sim_cfgreq                            ../../../../../../../PLAT/prebuild/PLAT/lib/gcc/libusbbl_priv.a(usbpcd_proc_api.o)
usbpcd_proc_standard_devreq                       ../../../../../../../PLAT/prebuild/PLAT/lib/gcc/libusbbl_priv.a(usbpcd_proc_api.o)
                                                  ../../../../../../../PLAT/prebuild/PLAT/lib/gcc/libusbbl_priv.a(usbpcd_proc.o)
usbpcd_proc_standard_epreq                        ../../../../../../../PLAT/prebuild/PLAT/lib/gcc/libusbbl_priv.a(usbpcd_proc_api.o)
                                                  ../../../../../../../PLAT/prebuild/PLAT/lib/gcc/libusbbl_priv.a(usbpcd_proc.o)
usbpcd_proc_standard_itfreq                       ../../../../../../../PLAT/prebuild/PLAT/lib/gcc/libusbbl_priv.a(usbpcd_proc_api.o)
                                                  ../../../../../../../PLAT/prebuild/PLAT/lib/gcc/libusbbl_priv.a(usbpcd_proc.o)
usbpcd_proc_stdctrl_send_data                     ../../../../../../../PLAT/prebuild/PLAT/lib/gcc/libusbbl_priv.a(usbpcd_proc_req.o)
                                                  ../../../../../../../PLAT/prebuild/PLAT/lib/gcc/libusbbl_priv.a(usbpcd_proc_api.o)
usbpcd_retwkup_slp1_stack_restore                 ../../../../../../../PLAT/prebuild/PLAT/lib/gcc/libusbbl_priv.a(usbpcd_proc.o)
usbpcd_retwkup_stack_restore                      ../../../../../../../PLAT/prebuild/PLAT/lib/gcc/libusbbl_priv.a(usbpcd_proc.o)
usbpcd_slp1_wkup_hardinit                         ../../../../../../../PLAT/prebuild/PLAT/lib/gcc/libusbbl_priv.a(usbpcd_proc.o)
usbstack_chk_and_set_ctx                          ../../../../../../../PLAT/prebuild/PLAT/lib/gcc/libusbbl_priv.a(usbc_bsp.o)
usbstack_clear_ctx_stat                           ../../../../../../../PLAT/prebuild/PLAT/lib/gcc/libusbbl_priv.a(usbc_bsp.o)
                                                  ../../../../../../../PLAT/gccout/ec618_0h00/ap/bootloader/lib/libdriver.a(usb_bl_test.o)
                                                  ../../../../../../../PLAT/gccout/ec618_0h00/ap/bootloader/PLAT/middleware/developed/fota/custom/src/fota_entry.o
usbstack_ctx_stat_isoff                           ../../../../../../../PLAT/prebuild/PLAT/lib/gcc/libusbbl_priv.a(usbc_bsp.o)
usbstack_ctx_stat_ison                            ../../../../../../../PLAT/prebuild/PLAT/lib/gcc/libusbbl_priv.a(usbc_bsp.o)
usbstack_ctx_stat_issucc                          ../../../../../../../PLAT/prebuild/PLAT/lib/gcc/libusbbl_priv.a(usbc_bsp.o)
usbstack_deinit                                   ../../../../../../../PLAT/prebuild/PLAT/lib/gcc/libusbbl_priv.a(usbc_bsp.o)
                                                  ../../../../../../../PLAT/gccout/ec618_0h00/ap/bootloader/PLAT/middleware/developed/fota/custom/src/fota_entry.o
usbstack_disconn_chkset_ctx                       ../../../../../../../PLAT/prebuild/PLAT/lib/gcc/libusbbl_priv.a(usbc_bsp.o)
usbstack_get_ctx_stat                             ../../../../../../../PLAT/prebuild/PLAT/lib/gcc/libusbbl_priv.a(usbc_bsp.o)
usbstack_get_ctx_vbus_mode                        ../../../../../../../PLAT/prebuild/PLAT/lib/gcc/libusbbl_priv.a(usbc_bsp.o)
usbstack_get_ctx_vbus_pad                         ../../../../../../../PLAT/prebuild/PLAT/lib/gcc/libusbbl_priv.a(usbc_bsp.o)
usbstack_init                                     ../../../../../../../PLAT/prebuild/PLAT/lib/gcc/libusbbl_priv.a(usbc_bsp.o)
                                                  ../../../../../../../PLAT/prebuild/PLAT/lib/gcc/libbootloader.a(bl_bsp.o)
usbstack_set_ctx_stat                             ../../../../../../../PLAT/prebuild/PLAT/lib/gcc/libusbbl_priv.a(usbc_bsp.o)
usbstack_set_ctx_vbus_mode                        ../../../../../../../PLAT/prebuild/PLAT/lib/gcc/libusbbl_priv.a(usbc_bsp.o)
                                                  ../../../../../../../PLAT/gccout/ec618_0h00/ap/bootloader/lib/libdriver.a(usb_bl_test.o)
                                                  ../../../../../../../PLAT/gccout/ec618_0h00/ap/bootloader/PLAT/middleware/developed/fota/custom/src/fota_entry.o
usbstack_top_var_clear                            ../../../../../../../PLAT/prebuild/PLAT/lib/gcc/libusbbl_priv.a(usbc_bsp.o)
vPortFree                                         ../../../../../../../PLAT/prebuild/PLAT/lib/gcc/libdriver_private_bl.a(acmsgtype.o)
                                                  ../../../../../../../PLAT/prebuild/PLAT/lib/gcc/libmiddleware_ec_private.a(simbip.o)
                                                  ../../../../../../../PLAT/prebuild/PLAT/lib/gcc/libmiddleware_ec_private.a(psstk_bip.o)
                                                  ../../../../../../../PLAT/prebuild/PLAT/lib/gcc/libosa.a(osasig.o)
                                                  ../../../../../../../PLAT/prebuild/PLAT/lib/gcc/libosa.a(osanvm.o)
                                                  ../../../../../../../PLAT/prebuild/PLAT/lib/gcc/libosa.a(asn1util.o)
                                                  ../../../../../../../PLAT/prebuild/PLAT/lib/gcc/libosa.a(osautil.o)
                                                  ../../../../../../../PLAT/prebuild/PLAT/lib/gcc/libosa.a(osasys.o)
vTaskDelete                                       ../../../../../../../PLAT/prebuild/PLAT/lib/gcc/libosa.a(ostask.o)
vTaskSetTimeOutState                              ../../../../../../../PLAT/prebuild/PLAT/lib/gcc/libmiddleware_ec_private.a(simbip.o)
vcom_app_ctx                                      ../../../../../../../PLAT/gccout/ec618_0h00/ap/bootloader/lib/libdriver.a(usb_bl_test.o)
vcom_app_ctx_init                                 ../../../../../../../PLAT/gccout/ec618_0h00/ap/bootloader/lib/libdriver.a(usb_bl_test.o)
vcom_app_ctx_is_busysending                       ../../../../../../../PLAT/gccout/ec618_0h00/ap/bootloader/lib/libdriver.a(usb_bl_test.o)
vcom_app_ctx_is_idlestep                          ../../../../../../../PLAT/gccout/ec618_0h00/ap/bootloader/lib/libdriver.a(usb_bl_test.o)
vcom_app_ctx_is_recvstep                          ../../../../../../../PLAT/gccout/ec618_0h00/ap/bootloader/lib/libdriver.a(usb_bl_test.o)
vcom_app_ctx_is_sendstep                          ../../../../../../../PLAT/gccout/ec618_0h00/ap/bootloader/lib/libdriver.a(usb_bl_test.o)
vcom_app_ctx_set_step                             ../../../../../../../PLAT/gccout/ec618_0h00/ap/bootloader/lib/libdriver.a(usb_bl_test.o)
vcom_app_delay                                    ../../../../../../../PLAT/gccout/ec618_0h00/ap/bootloader/lib/libdriver.a(usb_bl_api.o)
                                                  ../../../../../../../PLAT/gccout/ec618_0h00/ap/bootloader/lib/libdriver.a(usb_bl_test.o)
                                                  ../../../../../../../PLAT/gccout/ec618_0h00/ap/bootloader/PLAT/middleware/developed/fota/custom/src/fota_entry.o
vcom_app_get_rcvbuff_ptr                          ../../../../../../../PLAT/gccout/ec618_0h00/ap/bootloader/lib/libdriver.a(usb_bl_test.o)
vcom_app_get_rcvbuff_size                         ../../../../../../../PLAT/gccout/ec618_0h00/ap/bootloader/lib/libdriver.a(usb_bl_test.o)
vcom_app_get_recved_size                          ../../../../../../../PLAT/gccout/ec618_0h00/ap/bootloader/lib/libdriver.a(usb_bl_test.o)
vcom_app_get_sended_size                          ../../../../../../../PLAT/gccout/ec618_0h00/ap/bootloader/lib/libdriver.a(usb_bl_test.o)
vcom_app_get_sndbuff_ptr                          ../../../../../../../PLAT/gccout/ec618_0h00/ap/bootloader/lib/libdriver.a(usb_bl_test.o)
vcom_app_get_sndbuff_size                         ../../../../../../../PLAT/gccout/ec618_0h00/ap/bootloader/lib/libdriver.a(usb_bl_test.o)
vcom_app_recv_proc                                ../../../../../../../PLAT/gccout/ec618_0h00/ap/bootloader/lib/libdriver.a(usb_bl_api.o)
                                                  ../../../../../../../PLAT/gccout/ec618_0h00/ap/bootloader/lib/libdriver.a(usb_bl_test.o)
vcom_app_send_proc                                ../../../../../../../PLAT/gccout/ec618_0h00/ap/bootloader/lib/libdriver.a(usb_bl_api.o)
                                                  ../../../../../../../PLAT/prebuild/PLAT/lib/gcc/libbootloader.a(bl_bsp.o)
                                                  ../../../../../../../PLAT/gccout/ec618_0h00/ap/bootloader/lib/libdriver.a(usb_bl_test.o)
vcom_app_update_recved_size                       ../../../../../../../PLAT/gccout/ec618_0h00/ap/bootloader/lib/libdriver.a(usb_bl_test.o)
vcom_app_update_sended_size                       ../../../../../../../PLAT/gccout/ec618_0h00/ap/bootloader/lib/libdriver.a(usb_bl_test.o)
vcom_dbg_putchar                                  ../../../../../../../PLAT/prebuild/PLAT/lib/gcc/libbootloader.a(bl_bsp.o)
                                                  ../../../../../../../PLAT/gccout/ec618_0h00/ap/bootloader/lib/libdriver.a(usb_bl_api.o)
vcom_diep_txbuf_mode                              ../../../../../../../PLAT/prebuild/PLAT/lib/gcc/libusbbl_priv.a(function_vcom_tpl.o)
vcom_ext_ntf_req                                  ../../../../../../../PLAT/prebuild/PLAT/lib/gcc/libusbbl_priv.a(function_vcom_tpl.o)
vcom_func_custp1_bind                             ../../../../../../../PLAT/gccout/ec618_0h00/ap/bootloader/lib/libdriver.a(function_vcom_custp1.o)
vcom_func_custp1_deinit                           ../../../../../../../PLAT/gccout/ec618_0h00/ap/bootloader/lib/libdriver.a(function_vcom_custp1.o)
vcom_func_custp1_desc_ass                         ../../../../../../../PLAT/gccout/ec618_0h00/ap/bootloader/lib/libdriver.a(function_vcom_custp1.o)
vcom_func_custp1_desc_parse                       ../../../../../../../PLAT/gccout/ec618_0h00/ap/bootloader/lib/libdriver.a(function_vcom_custp1.o)
vcom_func_custp1_get_desc                         ../../../../../../../PLAT/gccout/ec618_0h00/ap/bootloader/lib/libdriver.a(function_vcom_custp1.o)
vcom_func_custp1_get_othspd_desc                  ../../../../../../../PLAT/gccout/ec618_0h00/ap/bootloader/lib/libdriver.a(function_vcom_custp1.o)
vcom_func_custp1_init                             ../../../../../../../PLAT/gccout/ec618_0h00/ap/bootloader/lib/libdriver.a(function_vcom_custp1.o)
vcom_func_custp1_unbind                           ../../../../../../../PLAT/gccout/ec618_0h00/ap/bootloader/lib/libdriver.a(function_vcom_custp1.o)
vcom_func_custp2_bind                             ../../../../../../../PLAT/gccout/ec618_0h00/ap/bootloader/lib/libdriver.a(function_vcom_custp2.o)
vcom_func_custp2_deinit                           ../../../../../../../PLAT/gccout/ec618_0h00/ap/bootloader/lib/libdriver.a(function_vcom_custp2.o)
vcom_func_custp2_desc_ass                         ../../../../../../../PLAT/gccout/ec618_0h00/ap/bootloader/lib/libdriver.a(function_vcom_custp2.o)
vcom_func_custp2_desc_parse                       ../../../../../../../PLAT/gccout/ec618_0h00/ap/bootloader/lib/libdriver.a(function_vcom_custp2.o)
vcom_func_custp2_get_desc                         ../../../../../../../PLAT/gccout/ec618_0h00/ap/bootloader/lib/libdriver.a(function_vcom_custp2.o)
vcom_func_custp2_get_othspd_desc                  ../../../../../../../PLAT/gccout/ec618_0h00/ap/bootloader/lib/libdriver.a(function_vcom_custp2.o)
vcom_func_custp2_init                             ../../../../../../../PLAT/gccout/ec618_0h00/ap/bootloader/lib/libdriver.a(function_vcom_custp2.o)
vcom_func_custp2_unbind                           ../../../../../../../PLAT/gccout/ec618_0h00/ap/bootloader/lib/libdriver.a(function_vcom_custp2.o)
vcom_func_diep_down_lnkmd_get_epnum               ../../../../../../../PLAT/prebuild/PLAT/lib/gcc/libusbbl_priv.a(function_vcom_tpl.o)
                                                  ../../../../../../../PLAT/prebuild/PLAT/lib/gcc/libusbbl_priv.a(device_vcom.o)
vcom_func_diep_notify_lnkmd_get_epnum             ../../../../../../../PLAT/prebuild/PLAT/lib/gcc/libusbbl_priv.a(function_vcom_tpl.o)
                                                  ../../../../../../../PLAT/prebuild/PLAT/lib/gcc/libusbbl_priv.a(device_vcom.o)
vcom_func_doep_up_lnkmd_get_epnum                 ../../../../../../../PLAT/prebuild/PLAT/lib/gcc/libusbbl_priv.a(function_vcom_tpl.o)
                                                  ../../../../../../../PLAT/prebuild/PLAT/lib/gcc/libusbbl_priv.a(device_vcom.o)
vcom_func_inhrnt_bind                             ../../../../../../../PLAT/gccout/ec618_0h00/ap/bootloader/lib/libdriver.a(function_vcom_inherent.o)
vcom_func_inhrnt_deinit                           ../../../../../../../PLAT/gccout/ec618_0h00/ap/bootloader/lib/libdriver.a(function_vcom_inherent.o)
vcom_func_inhrnt_desc_ass                         ../../../../../../../PLAT/gccout/ec618_0h00/ap/bootloader/lib/libdriver.a(function_vcom_inherent.o)
vcom_func_inhrnt_desc_parse                       ../../../../../../../PLAT/gccout/ec618_0h00/ap/bootloader/lib/libdriver.a(function_vcom_inherent.o)
vcom_func_inhrnt_get_desc                         ../../../../../../../PLAT/gccout/ec618_0h00/ap/bootloader/lib/libdriver.a(function_vcom_inherent.o)
vcom_func_inhrnt_get_othspd_desc                  ../../../../../../../PLAT/gccout/ec618_0h00/ap/bootloader/lib/libdriver.a(function_vcom_inherent.o)
vcom_func_inhrnt_init                             ../../../../../../../PLAT/gccout/ec618_0h00/ap/bootloader/lib/libdriver.a(function_vcom_inherent.o)
vcom_func_inhrnt_unbind                           ../../../../../../../PLAT/gccout/ec618_0h00/ap/bootloader/lib/libdriver.a(function_vcom_inherent.o)
vcom_func_recv_trigavail                          ../../../../../../../PLAT/prebuild/PLAT/lib/gcc/libusbbl_priv.a(function_vcom_tpl.o)
vcom_func_rxbuf_dlyalloc                          ../../../../../../../PLAT/prebuild/PLAT/lib/gcc/libusbbl_priv.a(function_vcom_tpl.o)
vcom_func_rxbuf_reset                             ../../../../../../../PLAT/prebuild/PLAT/lib/gcc/libusbbl_priv.a(function_vcom_tpl.o)
vcom_func_send_trigavail                          ../../../../../../../PLAT/prebuild/PLAT/lib/gcc/libusbbl_priv.a(function_vcom_tpl.o)
vcom_func_send_trigger                            ../../../../../../../PLAT/prebuild/PLAT/lib/gcc/libusbbl_priv.a(function_vcom_tpl.o)
vcom_func_string_bind                             ../../../../../../../PLAT/prebuild/PLAT/lib/gcc/libusbbl_priv.a(function_vcom_tpl.o)
vcom_func_trans_init                              ../../../../../../../PLAT/prebuild/PLAT/lib/gcc/libusbbl_priv.a(function_vcom_tpl.o)
vcom_func_txbuf_dlyalloc                          ../../../../../../../PLAT/prebuild/PLAT/lib/gcc/libusbbl_priv.a(function_vcom_tpl.o)
vcom_func_txbuf_reset                             ../../../../../../../PLAT/prebuild/PLAT/lib/gcc/libusbbl_priv.a(function_vcom_tpl.o)
vcom_loopback_test                                ../../../../../../../PLAT/gccout/ec618_0h00/ap/bootloader/lib/libdriver.a(usb_bl_test.o)
vcom_str_container_tbl                            ../../../../../../../PLAT/prebuild/PLAT/lib/gcc/libusbbl_priv.a(function_vcom_tpl.o)
vcom_tplfunc_bind                                 ../../../../../../../PLAT/prebuild/PLAT/lib/gcc/libusbbl_priv.a(function_vcom_tpl.o)
vcom_tplfunc_mtd                                  ../../../../../../../PLAT/prebuild/PLAT/lib/gcc/libusbbl_priv.a(function_vcom_tpl.o)
vcom_tplfunc_one_transfer_mode                    ../../../../../../../PLAT/prebuild/PLAT/lib/gcc/libusbbl_priv.a(function_vcom_tpl.o)
vcom_tplfunc_retwkup_restore                      ../../../../../../../PLAT/prebuild/PLAT/lib/gcc/libusbbl_priv.a(function_vcom_tpl.o)
vcom_tplfunc_trans_api                            ../../../../../../../PLAT/prebuild/PLAT/lib/gcc/libusbbl_priv.a(function_vcom_tpl.o)
vcom_tplfunc_trans_inst_ctrl                      ../../../../../../../PLAT/prebuild/PLAT/lib/gcc/libusbbl_priv.a(function_vcom_tpl.o)
vcom_tplfunc_unbind                               ../../../../../../../PLAT/prebuild/PLAT/lib/gcc/libusbbl_priv.a(function_vcom_tpl.o)
vcom_up_lnkmd_xfer_cfg                            ../../../../../../../PLAT/prebuild/PLAT/lib/gcc/libusbbl_priv.a(function_vcom_tpl.o)
vcom_urc_test_entry                               ../../../../../../../PLAT/gccout/ec618_0h00/ap/bootloader/lib/libdriver.a(usb_bl_test.o)
vcom_urcprint_test                                ../../../../../../../PLAT/gccout/ec618_0h00/ap/bootloader/lib/libdriver.a(usb_bl_test.o)
vcomdbg_hex                                       ../../../../../../../PLAT/gccout/ec618_0h00/ap/bootloader/lib/libdriver.a(usb_bl_api.o)
vcomdbg_str                                       ../../../../../../../PLAT/gccout/ec618_0h00/ap/bootloader/lib/libdriver.a(usb_bl_api.o)
                                                  ../../../../../../../PLAT/gccout/ec618_0h00/ap/bootloader/lib/libdriver.a(usb_bl_test.o)
vcomdbg_str_and_hex                               ../../../../../../../PLAT/gccout/ec618_0h00/ap/bootloader/lib/libdriver.a(usb_bl_api.o)
                                                  ../../../../../../../PLAT/gccout/ec618_0h00/ap/bootloader/lib/libdriver.a(usb_bl_test.o)
vcomx_get_in_waiting                              ../../../../../../../PLAT/prebuild/PLAT/lib/gcc/libusbbl_priv.a(device_vcom.o)
                                                  ../../../../../../../PLAT/gccout/ec618_0h00/ap/bootloader/lib/libdriver.a(usb_bl_api.o)
vcomx_get_out_avail                               ../../../../../../../PLAT/prebuild/PLAT/lib/gcc/libusbbl_priv.a(device_vcom.o)
                                                  ../../../../../../../PLAT/gccout/ec618_0h00/ap/bootloader/lib/libdriver.a(usb_bl_api.o)
vcomx_idx_from_ptr                                ../../../../../../../PLAT/prebuild/PLAT/lib/gcc/libusbbl_priv.a(device_vcom.o)
vcomx_isconnect                                   ../../../../../../../PLAT/prebuild/PLAT/lib/gcc/libusbbl_priv.a(device_vcom.o)
                                                  ../../../../../../../PLAT/gccout/ec618_0h00/ap/bootloader/lib/libdriver.a(usb_bl_test.o)
                                                  ../../../../../../../PLAT/gccout/ec618_0h00/ap/bootloader/lib/libdriver.a(usb_bl_api.o)
                                                  ../../../../../../../PLAT/gccout/ec618_0h00/ap/bootloader/PLAT/middleware/developed/fota/custom/src/fota_entry.o
vcomx_poll_rx                                     ../../../../../../../PLAT/prebuild/PLAT/lib/gcc/libusbbl_priv.a(device_vcom.o)
                                                  ../../../../../../../PLAT/gccout/ec618_0h00/ap/bootloader/lib/libdriver.a(usb_bl_api.o)
vcomx_poll_tx                                     ../../../../../../../PLAT/prebuild/PLAT/lib/gcc/libusbbl_priv.a(device_vcom.o)
                                                  ../../../../../../../PLAT/gccout/ec618_0h00/ap/bootloader/lib/libdriver.a(usb_bl_api.o)
vcomx_ptr_from_idx                                ../../../../../../../PLAT/prebuild/PLAT/lib/gcc/libusbbl_priv.a(device_vcom.o)
vcomx_recv                                        ../../../../../../../PLAT/prebuild/PLAT/lib/gcc/libusbbl_priv.a(device_vcom.o)
                                                  ../../../../../../../PLAT/gccout/ec618_0h00/ap/bootloader/lib/libdriver.a(usb_bl_api.o)
vcomx_send                                        ../../../../../../../PLAT/prebuild/PLAT/lib/gcc/libusbbl_priv.a(device_vcom.o)
                                                  ../../../../../../../PLAT/gccout/ec618_0h00/ap/bootloader/lib/libdriver.a(usb_bl_api.o)
verbose_bzlib                                     ../../../../../../../PLAT/prebuild/PLAT/lib/gcc/libdeltapatch.a(bzlib.o)
verbose_top                                       ../../../../../../../PLAT/prebuild/PLAT/lib/gcc/libdeltapatch.a(patch_main.o)
vfiprintf                                         e:/work/meig/ec618/ec618_sdk_rel_sdk/plat/tools/gcc/bin/../lib/gcc/arm-none-eabi/10.2.1/../../../../arm-none-eabi/lib/thumb/v7-m/nofp\libc_nano.a(lib_a-nano-vfprintf.o)
vfprintf                                          e:/work/meig/ec618/ec618_sdk_rel_sdk/plat/tools/gcc/bin/../lib/gcc/arm-none-eabi/10.2.1/../../../../arm-none-eabi/lib/thumb/v7-m/nofp\libc_nano.a(lib_a-nano-vfprintf.o)
vsniprintf                                        e:/work/meig/ec618/ec618_sdk_rel_sdk/plat/tools/gcc/bin/../lib/gcc/arm-none-eabi/10.2.1/../../../../arm-none-eabi/lib/thumb/v7-m/nofp\libc_nano.a(lib_a-vsnprintf.o)
vsnprintf                                         e:/work/meig/ec618/ec618_sdk_rel_sdk/plat/tools/gcc/bin/../lib/gcc/arm-none-eabi/10.2.1/../../../../arm-none-eabi/lib/thumb/v7-m/nofp\libc_nano.a(lib_a-vsnprintf.o)
                                                  ../../../../../../../PLAT/prebuild/PLAT/lib/gcc/libdriver_private_bl.a(uart.o)
wdt_callback_demo                                 ../../../../../../../PLAT/prebuild/PLAT/lib/gcc/libdeltapatch.a(patch_main.o)
xTaskCheckForTimeOut                              ../../../../../../../PLAT/prebuild/PLAT/lib/gcc/libmiddleware_ec_private.a(simbip.o)
xTaskGetCurrentTaskHandle                         ../../../../../../../PLAT/gccout/ec618_0h00/ap/bootloader/PLAT/project/ec618_0h00/ap/apps/bootloader/code/main/stub_os.o
xTimerGetExpiryTime                               ../../../../../../../PLAT/prebuild/PLAT/lib/gcc/libosa.a(osasys.o)
